
GccApplication5.elf:     file format elf32-avr

Sections:
Idx Name          Size      VMA       LMA       File off  Algn
  0 .data         00001208  00800200  0000526c  00005300  2**0
                  CONTENTS, ALLOC, LOAD, DATA
  1 .text         0000526c  00000000  00000000  00000094  2**1
                  CONTENTS, ALLOC, LOAD, READONLY, CODE
  2 .bss          000000cb  00801408  00801408  00006508  2**0
                  ALLOC
  3 .comment      00000030  00000000  00000000  00006508  2**0
                  CONTENTS, READONLY
  4 .note.gnu.avr.deviceinfo 00000040  00000000  00000000  00006538  2**2
                  CONTENTS, READONLY
  5 .debug_aranges 000001c8  00000000  00000000  00006578  2**0
                  CONTENTS, READONLY, DEBUGGING
  6 .debug_info   000022f4  00000000  00000000  00006740  2**0
                  CONTENTS, READONLY, DEBUGGING
  7 .debug_abbrev 00000e46  00000000  00000000  00008a34  2**0
                  CONTENTS, READONLY, DEBUGGING
  8 .debug_line   0000310b  00000000  00000000  0000987a  2**0
                  CONTENTS, READONLY, DEBUGGING
  9 .debug_frame  0000075c  00000000  00000000  0000c988  2**2
                  CONTENTS, READONLY, DEBUGGING
 10 .debug_str    00000a3c  00000000  00000000  0000d0e4  2**0
                  CONTENTS, READONLY, DEBUGGING
 11 .debug_loc    00000f0c  00000000  00000000  0000db20  2**0
                  CONTENTS, READONLY, DEBUGGING
 12 .debug_ranges 000001b8  00000000  00000000  0000ea2c  2**0
                  CONTENTS, READONLY, DEBUGGING

Disassembly of section .text:

00000000 <__vectors>:
       0:	71 c0       	rjmp	.+226    	; 0xe4 <__ctors_end>
       2:	00 00       	nop
       4:	90 c0       	rjmp	.+288    	; 0x126 <__bad_interrupt>
       6:	00 00       	nop
       8:	8e c0       	rjmp	.+284    	; 0x126 <__bad_interrupt>
       a:	00 00       	nop
       c:	8c c0       	rjmp	.+280    	; 0x126 <__bad_interrupt>
       e:	00 00       	nop
      10:	8a c0       	rjmp	.+276    	; 0x126 <__bad_interrupt>
      12:	00 00       	nop
      14:	0c 94 51 0e 	jmp	0x1ca2	; 0x1ca2 <__vector_5>
      18:	0c 94 24 0e 	jmp	0x1c48	; 0x1c48 <__vector_6>
      1c:	84 c0       	rjmp	.+264    	; 0x126 <__bad_interrupt>
      1e:	00 00       	nop
      20:	82 c0       	rjmp	.+260    	; 0x126 <__bad_interrupt>
      22:	00 00       	nop
      24:	80 c0       	rjmp	.+256    	; 0x126 <__bad_interrupt>
      26:	00 00       	nop
      28:	7e c0       	rjmp	.+252    	; 0x126 <__bad_interrupt>
      2a:	00 00       	nop
      2c:	7c c0       	rjmp	.+248    	; 0x126 <__bad_interrupt>
      2e:	00 00       	nop
      30:	7a c0       	rjmp	.+244    	; 0x126 <__bad_interrupt>
      32:	00 00       	nop
      34:	78 c0       	rjmp	.+240    	; 0x126 <__bad_interrupt>
      36:	00 00       	nop
      38:	76 c0       	rjmp	.+236    	; 0x126 <__bad_interrupt>
      3a:	00 00       	nop
      3c:	74 c0       	rjmp	.+232    	; 0x126 <__bad_interrupt>
      3e:	00 00       	nop
      40:	72 c0       	rjmp	.+228    	; 0x126 <__bad_interrupt>
      42:	00 00       	nop
      44:	70 c0       	rjmp	.+224    	; 0x126 <__bad_interrupt>
      46:	00 00       	nop
      48:	6e c0       	rjmp	.+220    	; 0x126 <__bad_interrupt>
      4a:	00 00       	nop
      4c:	6c c0       	rjmp	.+216    	; 0x126 <__bad_interrupt>
      4e:	00 00       	nop
      50:	6a c0       	rjmp	.+212    	; 0x126 <__bad_interrupt>
      52:	00 00       	nop
      54:	68 c0       	rjmp	.+208    	; 0x126 <__bad_interrupt>
      56:	00 00       	nop
      58:	66 c0       	rjmp	.+204    	; 0x126 <__bad_interrupt>
      5a:	00 00       	nop
      5c:	64 c0       	rjmp	.+200    	; 0x126 <__bad_interrupt>
      5e:	00 00       	nop
      60:	62 c0       	rjmp	.+196    	; 0x126 <__bad_interrupt>
      62:	00 00       	nop
      64:	0c 94 b0 12 	jmp	0x2560	; 0x2560 <__vector_25>
      68:	5e c0       	rjmp	.+188    	; 0x126 <__bad_interrupt>
      6a:	00 00       	nop
      6c:	5c c0       	rjmp	.+184    	; 0x126 <__bad_interrupt>
      6e:	00 00       	nop
      70:	5a c0       	rjmp	.+180    	; 0x126 <__bad_interrupt>
      72:	00 00       	nop
      74:	58 c0       	rjmp	.+176    	; 0x126 <__bad_interrupt>
      76:	00 00       	nop
      78:	56 c0       	rjmp	.+172    	; 0x126 <__bad_interrupt>
      7a:	00 00       	nop
      7c:	54 c0       	rjmp	.+168    	; 0x126 <__bad_interrupt>
      7e:	00 00       	nop
      80:	52 c0       	rjmp	.+164    	; 0x126 <__bad_interrupt>
      82:	00 00       	nop
      84:	50 c0       	rjmp	.+160    	; 0x126 <__bad_interrupt>
      86:	00 00       	nop
      88:	4e c0       	rjmp	.+156    	; 0x126 <__bad_interrupt>
      8a:	00 00       	nop
      8c:	4c c0       	rjmp	.+152    	; 0x126 <__bad_interrupt>
      8e:	00 00       	nop
      90:	4a c0       	rjmp	.+148    	; 0x126 <__bad_interrupt>
      92:	00 00       	nop
      94:	48 c0       	rjmp	.+144    	; 0x126 <__bad_interrupt>
      96:	00 00       	nop
      98:	46 c0       	rjmp	.+140    	; 0x126 <__bad_interrupt>
      9a:	00 00       	nop
      9c:	44 c0       	rjmp	.+136    	; 0x126 <__bad_interrupt>
      9e:	00 00       	nop
      a0:	42 c0       	rjmp	.+132    	; 0x126 <__bad_interrupt>
      a2:	00 00       	nop
      a4:	40 c0       	rjmp	.+128    	; 0x126 <__bad_interrupt>
      a6:	00 00       	nop
      a8:	3e c0       	rjmp	.+124    	; 0x126 <__bad_interrupt>
      aa:	00 00       	nop
      ac:	3c c0       	rjmp	.+120    	; 0x126 <__bad_interrupt>
      ae:	00 00       	nop
      b0:	3a c0       	rjmp	.+116    	; 0x126 <__bad_interrupt>
      b2:	00 00       	nop
      b4:	38 c0       	rjmp	.+112    	; 0x126 <__bad_interrupt>
      b6:	00 00       	nop
      b8:	36 c0       	rjmp	.+108    	; 0x126 <__bad_interrupt>
      ba:	00 00       	nop
      bc:	34 c0       	rjmp	.+104    	; 0x126 <__bad_interrupt>
      be:	00 00       	nop
      c0:	32 c0       	rjmp	.+100    	; 0x126 <__bad_interrupt>
      c2:	00 00       	nop
      c4:	30 c0       	rjmp	.+96     	; 0x126 <__bad_interrupt>
      c6:	00 00       	nop
      c8:	2e c0       	rjmp	.+92     	; 0x126 <__bad_interrupt>
      ca:	00 00       	nop
      cc:	2c c0       	rjmp	.+88     	; 0x126 <__bad_interrupt>
      ce:	00 00       	nop
      d0:	2a c0       	rjmp	.+84     	; 0x126 <__bad_interrupt>
      d2:	00 00       	nop
      d4:	28 c0       	rjmp	.+80     	; 0x126 <__bad_interrupt>
      d6:	00 00       	nop
      d8:	26 c0       	rjmp	.+76     	; 0x126 <__bad_interrupt>
      da:	00 00       	nop
      dc:	24 c0       	rjmp	.+72     	; 0x126 <__bad_interrupt>
      de:	00 00       	nop
      e0:	22 c0       	rjmp	.+68     	; 0x126 <__bad_interrupt>
	...

000000e4 <__ctors_end>:
      e4:	11 24       	eor	r1, r1
      e6:	1f be       	out	0x3f, r1	; 63
      e8:	cf ef       	ldi	r28, 0xFF	; 255
      ea:	d1 e2       	ldi	r29, 0x21	; 33
      ec:	de bf       	out	0x3e, r29	; 62
      ee:	cd bf       	out	0x3d, r28	; 61
      f0:	00 e0       	ldi	r16, 0x00	; 0
      f2:	0c bf       	out	0x3c, r16	; 60

000000f4 <__do_copy_data>:
      f4:	14 e1       	ldi	r17, 0x14	; 20
      f6:	a0 e0       	ldi	r26, 0x00	; 0
      f8:	b2 e0       	ldi	r27, 0x02	; 2
      fa:	ec e6       	ldi	r30, 0x6C	; 108
      fc:	f2 e5       	ldi	r31, 0x52	; 82
      fe:	00 e0       	ldi	r16, 0x00	; 0
     100:	0b bf       	out	0x3b, r16	; 59
     102:	02 c0       	rjmp	.+4      	; 0x108 <__do_copy_data+0x14>
     104:	07 90       	elpm	r0, Z+
     106:	0d 92       	st	X+, r0
     108:	a8 30       	cpi	r26, 0x08	; 8
     10a:	b1 07       	cpc	r27, r17
     10c:	d9 f7       	brne	.-10     	; 0x104 <__do_copy_data+0x10>

0000010e <__do_clear_bss>:
     10e:	24 e1       	ldi	r18, 0x14	; 20
     110:	a8 e0       	ldi	r26, 0x08	; 8
     112:	b4 e1       	ldi	r27, 0x14	; 20
     114:	01 c0       	rjmp	.+2      	; 0x118 <.do_clear_bss_start>

00000116 <.do_clear_bss_loop>:
     116:	1d 92       	st	X+, r1

00000118 <.do_clear_bss_start>:
     118:	a3 3d       	cpi	r26, 0xD3	; 211
     11a:	b2 07       	cpc	r27, r18
     11c:	e1 f7       	brne	.-8      	; 0x116 <.do_clear_bss_loop>
     11e:	0e 94 95 1c 	call	0x392a	; 0x392a <main>
     122:	0c 94 34 29 	jmp	0x5268	; 0x5268 <_exit>

00000126 <__bad_interrupt>:
     126:	6c cf       	rjmp	.-296    	; 0x0 <__vectors>

00000128 <lcd_set_4bit>:
{
	servo_1(67);
	_delay_ms(500);
	servo_1(84);
	_delay_ms(500);
}
     128:	0f 93       	push	r16
     12a:	1f 93       	push	r17
     12c:	cf 93       	push	r28
     12e:	df 93       	push	r29
     130:	cd b7       	in	r28, 0x3d	; 61
     132:	de b7       	in	r29, 0x3e	; 62
     134:	c0 57       	subi	r28, 0x70	; 112
     136:	d1 09       	sbc	r29, r1
     138:	0f b6       	in	r0, 0x3f	; 63
     13a:	f8 94       	cli
     13c:	de bf       	out	0x3e, r29	; 62
     13e:	0f be       	out	0x3f, r0	; 63
     140:	cd bf       	out	0x3d, r28	; 61
     142:	80 e0       	ldi	r24, 0x00	; 0
     144:	90 e0       	ldi	r25, 0x00	; 0
     146:	a0 e8       	ldi	r26, 0x80	; 128
     148:	bf e3       	ldi	r27, 0x3F	; 63
     14a:	89 83       	std	Y+1, r24	; 0x01
     14c:	9a 83       	std	Y+2, r25	; 0x02
     14e:	ab 83       	std	Y+3, r26	; 0x03
     150:	bc 83       	std	Y+4, r27	; 0x04
     152:	26 e6       	ldi	r18, 0x66	; 102
     154:	36 e6       	ldi	r19, 0x66	; 102
     156:	46 e6       	ldi	r20, 0x66	; 102
     158:	55 e4       	ldi	r21, 0x45	; 69
     15a:	69 81       	ldd	r22, Y+1	; 0x01
     15c:	7a 81       	ldd	r23, Y+2	; 0x02
     15e:	8b 81       	ldd	r24, Y+3	; 0x03
     160:	9c 81       	ldd	r25, Y+4	; 0x04
     162:	0e 94 c2 28 	call	0x5184	; 0x5184 <__mulsf3>
     166:	dc 01       	movw	r26, r24
     168:	cb 01       	movw	r24, r22
     16a:	8d 83       	std	Y+5, r24	; 0x05
     16c:	9e 83       	std	Y+6, r25	; 0x06
     16e:	af 83       	std	Y+7, r26	; 0x07
     170:	b8 87       	std	Y+8, r27	; 0x08
     172:	20 e0       	ldi	r18, 0x00	; 0
     174:	30 e0       	ldi	r19, 0x00	; 0
     176:	40 e8       	ldi	r20, 0x80	; 128
     178:	5f e3       	ldi	r21, 0x3F	; 63
     17a:	6d 81       	ldd	r22, Y+5	; 0x05
     17c:	7e 81       	ldd	r23, Y+6	; 0x06
     17e:	8f 81       	ldd	r24, Y+7	; 0x07
     180:	98 85       	ldd	r25, Y+8	; 0x08
     182:	0e 94 74 27 	call	0x4ee8	; 0x4ee8 <__cmpsf2>
     186:	88 23       	and	r24, r24
     188:	2c f4       	brge	.+10     	; 0x194 <lcd_set_4bit+0x6c>
     18a:	81 e0       	ldi	r24, 0x01	; 1
     18c:	90 e0       	ldi	r25, 0x00	; 0
     18e:	9a 87       	std	Y+10, r25	; 0x0a
     190:	89 87       	std	Y+9, r24	; 0x09
     192:	3f c0       	rjmp	.+126    	; 0x212 <lcd_set_4bit+0xea>
     194:	20 e0       	ldi	r18, 0x00	; 0
     196:	3f ef       	ldi	r19, 0xFF	; 255
     198:	4f e7       	ldi	r20, 0x7F	; 127
     19a:	57 e4       	ldi	r21, 0x47	; 71
     19c:	6d 81       	ldd	r22, Y+5	; 0x05
     19e:	7e 81       	ldd	r23, Y+6	; 0x06
     1a0:	8f 81       	ldd	r24, Y+7	; 0x07
     1a2:	98 85       	ldd	r25, Y+8	; 0x08
     1a4:	0e 94 be 28 	call	0x517c	; 0x517c <__gesf2>
     1a8:	18 16       	cp	r1, r24
     1aa:	4c f5       	brge	.+82     	; 0x1fe <lcd_set_4bit+0xd6>
     1ac:	20 e0       	ldi	r18, 0x00	; 0
     1ae:	30 e0       	ldi	r19, 0x00	; 0
     1b0:	40 e2       	ldi	r20, 0x20	; 32
     1b2:	51 e4       	ldi	r21, 0x41	; 65
     1b4:	69 81       	ldd	r22, Y+1	; 0x01
     1b6:	7a 81       	ldd	r23, Y+2	; 0x02
     1b8:	8b 81       	ldd	r24, Y+3	; 0x03
     1ba:	9c 81       	ldd	r25, Y+4	; 0x04
     1bc:	0e 94 c2 28 	call	0x5184	; 0x5184 <__mulsf3>
     1c0:	dc 01       	movw	r26, r24
     1c2:	cb 01       	movw	r24, r22
     1c4:	bc 01       	movw	r22, r24
     1c6:	cd 01       	movw	r24, r26
     1c8:	0e 94 e0 27 	call	0x4fc0	; 0x4fc0 <__fixunssfsi>
     1cc:	dc 01       	movw	r26, r24
     1ce:	cb 01       	movw	r24, r22
     1d0:	9a 87       	std	Y+10, r25	; 0x0a
     1d2:	89 87       	std	Y+9, r24	; 0x09
     1d4:	0f c0       	rjmp	.+30     	; 0x1f4 <lcd_set_4bit+0xcc>
     1d6:	80 e7       	ldi	r24, 0x70	; 112
     1d8:	91 e0       	ldi	r25, 0x01	; 1
     1da:	9c 87       	std	Y+12, r25	; 0x0c
     1dc:	8b 87       	std	Y+11, r24	; 0x0b
     1de:	8b 85       	ldd	r24, Y+11	; 0x0b
     1e0:	9c 85       	ldd	r25, Y+12	; 0x0c
     1e2:	01 97       	sbiw	r24, 0x01	; 1
     1e4:	f1 f7       	brne	.-4      	; 0x1e2 <lcd_set_4bit+0xba>
     1e6:	9c 87       	std	Y+12, r25	; 0x0c
     1e8:	8b 87       	std	Y+11, r24	; 0x0b
     1ea:	89 85       	ldd	r24, Y+9	; 0x09
     1ec:	9a 85       	ldd	r25, Y+10	; 0x0a
     1ee:	01 97       	sbiw	r24, 0x01	; 1
     1f0:	9a 87       	std	Y+10, r25	; 0x0a
     1f2:	89 87       	std	Y+9, r24	; 0x09
     1f4:	89 85       	ldd	r24, Y+9	; 0x09
     1f6:	9a 85       	ldd	r25, Y+10	; 0x0a
     1f8:	89 2b       	or	r24, r25
     1fa:	69 f7       	brne	.-38     	; 0x1d6 <lcd_set_4bit+0xae>
     1fc:	14 c0       	rjmp	.+40     	; 0x226 <lcd_set_4bit+0xfe>
     1fe:	6d 81       	ldd	r22, Y+5	; 0x05
     200:	7e 81       	ldd	r23, Y+6	; 0x06
     202:	8f 81       	ldd	r24, Y+7	; 0x07
     204:	98 85       	ldd	r25, Y+8	; 0x08
     206:	0e 94 e0 27 	call	0x4fc0	; 0x4fc0 <__fixunssfsi>
     20a:	dc 01       	movw	r26, r24
     20c:	cb 01       	movw	r24, r22
     20e:	9a 87       	std	Y+10, r25	; 0x0a
     210:	89 87       	std	Y+9, r24	; 0x09
     212:	89 85       	ldd	r24, Y+9	; 0x09
     214:	9a 85       	ldd	r25, Y+10	; 0x0a
     216:	9e 87       	std	Y+14, r25	; 0x0e
     218:	8d 87       	std	Y+13, r24	; 0x0d
     21a:	8d 85       	ldd	r24, Y+13	; 0x0d
     21c:	9e 85       	ldd	r25, Y+14	; 0x0e
     21e:	01 97       	sbiw	r24, 0x01	; 1
     220:	f1 f7       	brne	.-4      	; 0x21e <lcd_set_4bit+0xf6>
     222:	9e 87       	std	Y+14, r25	; 0x0e
     224:	8d 87       	std	Y+13, r24	; 0x0d
     226:	88 e2       	ldi	r24, 0x28	; 40
     228:	90 e0       	ldi	r25, 0x00	; 0
     22a:	28 e2       	ldi	r18, 0x28	; 40
     22c:	30 e0       	ldi	r19, 0x00	; 0
     22e:	f9 01       	movw	r30, r18
     230:	20 81       	ld	r18, Z
     232:	2e 7f       	andi	r18, 0xFE	; 254
     234:	fc 01       	movw	r30, r24
     236:	20 83       	st	Z, r18
     238:	88 e2       	ldi	r24, 0x28	; 40
     23a:	90 e0       	ldi	r25, 0x00	; 0
     23c:	28 e2       	ldi	r18, 0x28	; 40
     23e:	30 e0       	ldi	r19, 0x00	; 0
     240:	f9 01       	movw	r30, r18
     242:	20 81       	ld	r18, Z
     244:	2d 7f       	andi	r18, 0xFD	; 253
     246:	fc 01       	movw	r30, r24
     248:	20 83       	st	Z, r18
     24a:	88 e2       	ldi	r24, 0x28	; 40
     24c:	90 e0       	ldi	r25, 0x00	; 0
     24e:	20 e3       	ldi	r18, 0x30	; 48
     250:	fc 01       	movw	r30, r24
     252:	20 83       	st	Z, r18
     254:	88 e2       	ldi	r24, 0x28	; 40
     256:	90 e0       	ldi	r25, 0x00	; 0
     258:	28 e2       	ldi	r18, 0x28	; 40
     25a:	30 e0       	ldi	r19, 0x00	; 0
     25c:	f9 01       	movw	r30, r18
     25e:	20 81       	ld	r18, Z
     260:	24 60       	ori	r18, 0x04	; 4
     262:	fc 01       	movw	r30, r24
     264:	20 83       	st	Z, r18
     266:	80 e0       	ldi	r24, 0x00	; 0
     268:	90 e0       	ldi	r25, 0x00	; 0
     26a:	a0 ea       	ldi	r26, 0xA0	; 160
     26c:	b0 e4       	ldi	r27, 0x40	; 64
     26e:	8f 87       	std	Y+15, r24	; 0x0f
     270:	98 8b       	std	Y+16, r25	; 0x10
     272:	a9 8b       	std	Y+17, r26	; 0x11
     274:	ba 8b       	std	Y+18, r27	; 0x12
     276:	26 e6       	ldi	r18, 0x66	; 102
     278:	36 e6       	ldi	r19, 0x66	; 102
     27a:	46 e6       	ldi	r20, 0x66	; 102
     27c:	55 e4       	ldi	r21, 0x45	; 69
     27e:	6f 85       	ldd	r22, Y+15	; 0x0f
     280:	78 89       	ldd	r23, Y+16	; 0x10
     282:	89 89       	ldd	r24, Y+17	; 0x11
     284:	9a 89       	ldd	r25, Y+18	; 0x12
     286:	0e 94 c2 28 	call	0x5184	; 0x5184 <__mulsf3>
     28a:	dc 01       	movw	r26, r24
     28c:	cb 01       	movw	r24, r22
     28e:	8b 8b       	std	Y+19, r24	; 0x13
     290:	9c 8b       	std	Y+20, r25	; 0x14
     292:	ad 8b       	std	Y+21, r26	; 0x15
     294:	be 8b       	std	Y+22, r27	; 0x16
     296:	20 e0       	ldi	r18, 0x00	; 0
     298:	30 e0       	ldi	r19, 0x00	; 0
     29a:	40 e8       	ldi	r20, 0x80	; 128
     29c:	5f e3       	ldi	r21, 0x3F	; 63
     29e:	6b 89       	ldd	r22, Y+19	; 0x13
     2a0:	7c 89       	ldd	r23, Y+20	; 0x14
     2a2:	8d 89       	ldd	r24, Y+21	; 0x15
     2a4:	9e 89       	ldd	r25, Y+22	; 0x16
     2a6:	0e 94 74 27 	call	0x4ee8	; 0x4ee8 <__cmpsf2>
     2aa:	88 23       	and	r24, r24
     2ac:	2c f4       	brge	.+10     	; 0x2b8 <lcd_set_4bit+0x190>
     2ae:	81 e0       	ldi	r24, 0x01	; 1
     2b0:	90 e0       	ldi	r25, 0x00	; 0
     2b2:	98 8f       	std	Y+24, r25	; 0x18
     2b4:	8f 8b       	std	Y+23, r24	; 0x17
     2b6:	3f c0       	rjmp	.+126    	; 0x336 <lcd_set_4bit+0x20e>
     2b8:	20 e0       	ldi	r18, 0x00	; 0
     2ba:	3f ef       	ldi	r19, 0xFF	; 255
     2bc:	4f e7       	ldi	r20, 0x7F	; 127
     2be:	57 e4       	ldi	r21, 0x47	; 71
     2c0:	6b 89       	ldd	r22, Y+19	; 0x13
     2c2:	7c 89       	ldd	r23, Y+20	; 0x14
     2c4:	8d 89       	ldd	r24, Y+21	; 0x15
     2c6:	9e 89       	ldd	r25, Y+22	; 0x16
     2c8:	0e 94 be 28 	call	0x517c	; 0x517c <__gesf2>
     2cc:	18 16       	cp	r1, r24
     2ce:	4c f5       	brge	.+82     	; 0x322 <lcd_set_4bit+0x1fa>
     2d0:	20 e0       	ldi	r18, 0x00	; 0
     2d2:	30 e0       	ldi	r19, 0x00	; 0
     2d4:	40 e2       	ldi	r20, 0x20	; 32
     2d6:	51 e4       	ldi	r21, 0x41	; 65
     2d8:	6f 85       	ldd	r22, Y+15	; 0x0f
     2da:	78 89       	ldd	r23, Y+16	; 0x10
     2dc:	89 89       	ldd	r24, Y+17	; 0x11
     2de:	9a 89       	ldd	r25, Y+18	; 0x12
     2e0:	0e 94 c2 28 	call	0x5184	; 0x5184 <__mulsf3>
     2e4:	dc 01       	movw	r26, r24
     2e6:	cb 01       	movw	r24, r22
     2e8:	bc 01       	movw	r22, r24
     2ea:	cd 01       	movw	r24, r26
     2ec:	0e 94 e0 27 	call	0x4fc0	; 0x4fc0 <__fixunssfsi>
     2f0:	dc 01       	movw	r26, r24
     2f2:	cb 01       	movw	r24, r22
     2f4:	98 8f       	std	Y+24, r25	; 0x18
     2f6:	8f 8b       	std	Y+23, r24	; 0x17
     2f8:	0f c0       	rjmp	.+30     	; 0x318 <lcd_set_4bit+0x1f0>
     2fa:	80 e7       	ldi	r24, 0x70	; 112
     2fc:	91 e0       	ldi	r25, 0x01	; 1
     2fe:	9a 8f       	std	Y+26, r25	; 0x1a
     300:	89 8f       	std	Y+25, r24	; 0x19
     302:	89 8d       	ldd	r24, Y+25	; 0x19
     304:	9a 8d       	ldd	r25, Y+26	; 0x1a
     306:	01 97       	sbiw	r24, 0x01	; 1
     308:	f1 f7       	brne	.-4      	; 0x306 <lcd_set_4bit+0x1de>
     30a:	9a 8f       	std	Y+26, r25	; 0x1a
     30c:	89 8f       	std	Y+25, r24	; 0x19
     30e:	8f 89       	ldd	r24, Y+23	; 0x17
     310:	98 8d       	ldd	r25, Y+24	; 0x18
     312:	01 97       	sbiw	r24, 0x01	; 1
     314:	98 8f       	std	Y+24, r25	; 0x18
     316:	8f 8b       	std	Y+23, r24	; 0x17
     318:	8f 89       	ldd	r24, Y+23	; 0x17
     31a:	98 8d       	ldd	r25, Y+24	; 0x18
     31c:	89 2b       	or	r24, r25
     31e:	69 f7       	brne	.-38     	; 0x2fa <lcd_set_4bit+0x1d2>
     320:	14 c0       	rjmp	.+40     	; 0x34a <lcd_set_4bit+0x222>
     322:	6b 89       	ldd	r22, Y+19	; 0x13
     324:	7c 89       	ldd	r23, Y+20	; 0x14
     326:	8d 89       	ldd	r24, Y+21	; 0x15
     328:	9e 89       	ldd	r25, Y+22	; 0x16
     32a:	0e 94 e0 27 	call	0x4fc0	; 0x4fc0 <__fixunssfsi>
     32e:	dc 01       	movw	r26, r24
     330:	cb 01       	movw	r24, r22
     332:	98 8f       	std	Y+24, r25	; 0x18
     334:	8f 8b       	std	Y+23, r24	; 0x17
     336:	8f 89       	ldd	r24, Y+23	; 0x17
     338:	98 8d       	ldd	r25, Y+24	; 0x18
     33a:	9c 8f       	std	Y+28, r25	; 0x1c
     33c:	8b 8f       	std	Y+27, r24	; 0x1b
     33e:	8b 8d       	ldd	r24, Y+27	; 0x1b
     340:	9c 8d       	ldd	r25, Y+28	; 0x1c
     342:	01 97       	sbiw	r24, 0x01	; 1
     344:	f1 f7       	brne	.-4      	; 0x342 <lcd_set_4bit+0x21a>
     346:	9c 8f       	std	Y+28, r25	; 0x1c
     348:	8b 8f       	std	Y+27, r24	; 0x1b
     34a:	88 e2       	ldi	r24, 0x28	; 40
     34c:	90 e0       	ldi	r25, 0x00	; 0
     34e:	28 e2       	ldi	r18, 0x28	; 40
     350:	30 e0       	ldi	r19, 0x00	; 0
     352:	f9 01       	movw	r30, r18
     354:	20 81       	ld	r18, Z
     356:	2b 7f       	andi	r18, 0xFB	; 251
     358:	fc 01       	movw	r30, r24
     35a:	20 83       	st	Z, r18
     35c:	80 e0       	ldi	r24, 0x00	; 0
     35e:	90 e0       	ldi	r25, 0x00	; 0
     360:	a0 e8       	ldi	r26, 0x80	; 128
     362:	bf e3       	ldi	r27, 0x3F	; 63
     364:	8d 8f       	std	Y+29, r24	; 0x1d
     366:	9e 8f       	std	Y+30, r25	; 0x1e
     368:	af 8f       	std	Y+31, r26	; 0x1f
     36a:	b8 a3       	std	Y+32, r27	; 0x20
     36c:	26 e6       	ldi	r18, 0x66	; 102
     36e:	36 e6       	ldi	r19, 0x66	; 102
     370:	46 e6       	ldi	r20, 0x66	; 102
     372:	55 e4       	ldi	r21, 0x45	; 69
     374:	6d 8d       	ldd	r22, Y+29	; 0x1d
     376:	7e 8d       	ldd	r23, Y+30	; 0x1e
     378:	8f 8d       	ldd	r24, Y+31	; 0x1f
     37a:	98 a1       	ldd	r25, Y+32	; 0x20
     37c:	0e 94 c2 28 	call	0x5184	; 0x5184 <__mulsf3>
     380:	dc 01       	movw	r26, r24
     382:	cb 01       	movw	r24, r22
     384:	89 a3       	std	Y+33, r24	; 0x21
     386:	9a a3       	std	Y+34, r25	; 0x22
     388:	ab a3       	std	Y+35, r26	; 0x23
     38a:	bc a3       	std	Y+36, r27	; 0x24
     38c:	20 e0       	ldi	r18, 0x00	; 0
     38e:	30 e0       	ldi	r19, 0x00	; 0
     390:	40 e8       	ldi	r20, 0x80	; 128
     392:	5f e3       	ldi	r21, 0x3F	; 63
     394:	69 a1       	ldd	r22, Y+33	; 0x21
     396:	7a a1       	ldd	r23, Y+34	; 0x22
     398:	8b a1       	ldd	r24, Y+35	; 0x23
     39a:	9c a1       	ldd	r25, Y+36	; 0x24
     39c:	0e 94 74 27 	call	0x4ee8	; 0x4ee8 <__cmpsf2>
     3a0:	88 23       	and	r24, r24
     3a2:	2c f4       	brge	.+10     	; 0x3ae <lcd_set_4bit+0x286>
     3a4:	81 e0       	ldi	r24, 0x01	; 1
     3a6:	90 e0       	ldi	r25, 0x00	; 0
     3a8:	9e a3       	std	Y+38, r25	; 0x26
     3aa:	8d a3       	std	Y+37, r24	; 0x25
     3ac:	3f c0       	rjmp	.+126    	; 0x42c <__LOCK_REGION_LENGTH__+0x2c>
     3ae:	20 e0       	ldi	r18, 0x00	; 0
     3b0:	3f ef       	ldi	r19, 0xFF	; 255
     3b2:	4f e7       	ldi	r20, 0x7F	; 127
     3b4:	57 e4       	ldi	r21, 0x47	; 71
     3b6:	69 a1       	ldd	r22, Y+33	; 0x21
     3b8:	7a a1       	ldd	r23, Y+34	; 0x22
     3ba:	8b a1       	ldd	r24, Y+35	; 0x23
     3bc:	9c a1       	ldd	r25, Y+36	; 0x24
     3be:	0e 94 be 28 	call	0x517c	; 0x517c <__gesf2>
     3c2:	18 16       	cp	r1, r24
     3c4:	4c f5       	brge	.+82     	; 0x418 <__LOCK_REGION_LENGTH__+0x18>
     3c6:	20 e0       	ldi	r18, 0x00	; 0
     3c8:	30 e0       	ldi	r19, 0x00	; 0
     3ca:	40 e2       	ldi	r20, 0x20	; 32
     3cc:	51 e4       	ldi	r21, 0x41	; 65
     3ce:	6d 8d       	ldd	r22, Y+29	; 0x1d
     3d0:	7e 8d       	ldd	r23, Y+30	; 0x1e
     3d2:	8f 8d       	ldd	r24, Y+31	; 0x1f
     3d4:	98 a1       	ldd	r25, Y+32	; 0x20
     3d6:	0e 94 c2 28 	call	0x5184	; 0x5184 <__mulsf3>
     3da:	dc 01       	movw	r26, r24
     3dc:	cb 01       	movw	r24, r22
     3de:	bc 01       	movw	r22, r24
     3e0:	cd 01       	movw	r24, r26
     3e2:	0e 94 e0 27 	call	0x4fc0	; 0x4fc0 <__fixunssfsi>
     3e6:	dc 01       	movw	r26, r24
     3e8:	cb 01       	movw	r24, r22
     3ea:	9e a3       	std	Y+38, r25	; 0x26
     3ec:	8d a3       	std	Y+37, r24	; 0x25
     3ee:	0f c0       	rjmp	.+30     	; 0x40e <__LOCK_REGION_LENGTH__+0xe>
     3f0:	80 e7       	ldi	r24, 0x70	; 112
     3f2:	91 e0       	ldi	r25, 0x01	; 1
     3f4:	98 a7       	std	Y+40, r25	; 0x28
     3f6:	8f a3       	std	Y+39, r24	; 0x27
     3f8:	8f a1       	ldd	r24, Y+39	; 0x27
     3fa:	98 a5       	ldd	r25, Y+40	; 0x28
     3fc:	01 97       	sbiw	r24, 0x01	; 1
     3fe:	f1 f7       	brne	.-4      	; 0x3fc <lcd_set_4bit+0x2d4>
     400:	98 a7       	std	Y+40, r25	; 0x28
     402:	8f a3       	std	Y+39, r24	; 0x27
     404:	8d a1       	ldd	r24, Y+37	; 0x25
     406:	9e a1       	ldd	r25, Y+38	; 0x26
     408:	01 97       	sbiw	r24, 0x01	; 1
     40a:	9e a3       	std	Y+38, r25	; 0x26
     40c:	8d a3       	std	Y+37, r24	; 0x25
     40e:	8d a1       	ldd	r24, Y+37	; 0x25
     410:	9e a1       	ldd	r25, Y+38	; 0x26
     412:	89 2b       	or	r24, r25
     414:	69 f7       	brne	.-38     	; 0x3f0 <lcd_set_4bit+0x2c8>
     416:	14 c0       	rjmp	.+40     	; 0x440 <__LOCK_REGION_LENGTH__+0x40>
     418:	69 a1       	ldd	r22, Y+33	; 0x21
     41a:	7a a1       	ldd	r23, Y+34	; 0x22
     41c:	8b a1       	ldd	r24, Y+35	; 0x23
     41e:	9c a1       	ldd	r25, Y+36	; 0x24
     420:	0e 94 e0 27 	call	0x4fc0	; 0x4fc0 <__fixunssfsi>
     424:	dc 01       	movw	r26, r24
     426:	cb 01       	movw	r24, r22
     428:	9e a3       	std	Y+38, r25	; 0x26
     42a:	8d a3       	std	Y+37, r24	; 0x25
     42c:	8d a1       	ldd	r24, Y+37	; 0x25
     42e:	9e a1       	ldd	r25, Y+38	; 0x26
     430:	9a a7       	std	Y+42, r25	; 0x2a
     432:	89 a7       	std	Y+41, r24	; 0x29
     434:	89 a5       	ldd	r24, Y+41	; 0x29
     436:	9a a5       	ldd	r25, Y+42	; 0x2a
     438:	01 97       	sbiw	r24, 0x01	; 1
     43a:	f1 f7       	brne	.-4      	; 0x438 <__LOCK_REGION_LENGTH__+0x38>
     43c:	9a a7       	std	Y+42, r25	; 0x2a
     43e:	89 a7       	std	Y+41, r24	; 0x29
     440:	88 e2       	ldi	r24, 0x28	; 40
     442:	90 e0       	ldi	r25, 0x00	; 0
     444:	28 e2       	ldi	r18, 0x28	; 40
     446:	30 e0       	ldi	r19, 0x00	; 0
     448:	f9 01       	movw	r30, r18
     44a:	20 81       	ld	r18, Z
     44c:	2e 7f       	andi	r18, 0xFE	; 254
     44e:	fc 01       	movw	r30, r24
     450:	20 83       	st	Z, r18
     452:	88 e2       	ldi	r24, 0x28	; 40
     454:	90 e0       	ldi	r25, 0x00	; 0
     456:	28 e2       	ldi	r18, 0x28	; 40
     458:	30 e0       	ldi	r19, 0x00	; 0
     45a:	f9 01       	movw	r30, r18
     45c:	20 81       	ld	r18, Z
     45e:	2d 7f       	andi	r18, 0xFD	; 253
     460:	fc 01       	movw	r30, r24
     462:	20 83       	st	Z, r18
     464:	88 e2       	ldi	r24, 0x28	; 40
     466:	90 e0       	ldi	r25, 0x00	; 0
     468:	20 e3       	ldi	r18, 0x30	; 48
     46a:	fc 01       	movw	r30, r24
     46c:	20 83       	st	Z, r18
     46e:	88 e2       	ldi	r24, 0x28	; 40
     470:	90 e0       	ldi	r25, 0x00	; 0
     472:	28 e2       	ldi	r18, 0x28	; 40
     474:	30 e0       	ldi	r19, 0x00	; 0
     476:	f9 01       	movw	r30, r18
     478:	20 81       	ld	r18, Z
     47a:	24 60       	ori	r18, 0x04	; 4
     47c:	fc 01       	movw	r30, r24
     47e:	20 83       	st	Z, r18
     480:	80 e0       	ldi	r24, 0x00	; 0
     482:	90 e0       	ldi	r25, 0x00	; 0
     484:	a0 ea       	ldi	r26, 0xA0	; 160
     486:	b0 e4       	ldi	r27, 0x40	; 64
     488:	8b a7       	std	Y+43, r24	; 0x2b
     48a:	9c a7       	std	Y+44, r25	; 0x2c
     48c:	ad a7       	std	Y+45, r26	; 0x2d
     48e:	be a7       	std	Y+46, r27	; 0x2e
     490:	26 e6       	ldi	r18, 0x66	; 102
     492:	36 e6       	ldi	r19, 0x66	; 102
     494:	46 e6       	ldi	r20, 0x66	; 102
     496:	55 e4       	ldi	r21, 0x45	; 69
     498:	6b a5       	ldd	r22, Y+43	; 0x2b
     49a:	7c a5       	ldd	r23, Y+44	; 0x2c
     49c:	8d a5       	ldd	r24, Y+45	; 0x2d
     49e:	9e a5       	ldd	r25, Y+46	; 0x2e
     4a0:	0e 94 c2 28 	call	0x5184	; 0x5184 <__mulsf3>
     4a4:	dc 01       	movw	r26, r24
     4a6:	cb 01       	movw	r24, r22
     4a8:	8f a7       	std	Y+47, r24	; 0x2f
     4aa:	98 ab       	std	Y+48, r25	; 0x30
     4ac:	a9 ab       	std	Y+49, r26	; 0x31
     4ae:	ba ab       	std	Y+50, r27	; 0x32
     4b0:	20 e0       	ldi	r18, 0x00	; 0
     4b2:	30 e0       	ldi	r19, 0x00	; 0
     4b4:	40 e8       	ldi	r20, 0x80	; 128
     4b6:	5f e3       	ldi	r21, 0x3F	; 63
     4b8:	6f a5       	ldd	r22, Y+47	; 0x2f
     4ba:	78 a9       	ldd	r23, Y+48	; 0x30
     4bc:	89 a9       	ldd	r24, Y+49	; 0x31
     4be:	9a a9       	ldd	r25, Y+50	; 0x32
     4c0:	0e 94 74 27 	call	0x4ee8	; 0x4ee8 <__cmpsf2>
     4c4:	88 23       	and	r24, r24
     4c6:	2c f4       	brge	.+10     	; 0x4d2 <__LOCK_REGION_LENGTH__+0xd2>
     4c8:	81 e0       	ldi	r24, 0x01	; 1
     4ca:	90 e0       	ldi	r25, 0x00	; 0
     4cc:	9c ab       	std	Y+52, r25	; 0x34
     4ce:	8b ab       	std	Y+51, r24	; 0x33
     4d0:	3f c0       	rjmp	.+126    	; 0x550 <__LOCK_REGION_LENGTH__+0x150>
     4d2:	20 e0       	ldi	r18, 0x00	; 0
     4d4:	3f ef       	ldi	r19, 0xFF	; 255
     4d6:	4f e7       	ldi	r20, 0x7F	; 127
     4d8:	57 e4       	ldi	r21, 0x47	; 71
     4da:	6f a5       	ldd	r22, Y+47	; 0x2f
     4dc:	78 a9       	ldd	r23, Y+48	; 0x30
     4de:	89 a9       	ldd	r24, Y+49	; 0x31
     4e0:	9a a9       	ldd	r25, Y+50	; 0x32
     4e2:	0e 94 be 28 	call	0x517c	; 0x517c <__gesf2>
     4e6:	18 16       	cp	r1, r24
     4e8:	4c f5       	brge	.+82     	; 0x53c <__LOCK_REGION_LENGTH__+0x13c>
     4ea:	20 e0       	ldi	r18, 0x00	; 0
     4ec:	30 e0       	ldi	r19, 0x00	; 0
     4ee:	40 e2       	ldi	r20, 0x20	; 32
     4f0:	51 e4       	ldi	r21, 0x41	; 65
     4f2:	6b a5       	ldd	r22, Y+43	; 0x2b
     4f4:	7c a5       	ldd	r23, Y+44	; 0x2c
     4f6:	8d a5       	ldd	r24, Y+45	; 0x2d
     4f8:	9e a5       	ldd	r25, Y+46	; 0x2e
     4fa:	0e 94 c2 28 	call	0x5184	; 0x5184 <__mulsf3>
     4fe:	dc 01       	movw	r26, r24
     500:	cb 01       	movw	r24, r22
     502:	bc 01       	movw	r22, r24
     504:	cd 01       	movw	r24, r26
     506:	0e 94 e0 27 	call	0x4fc0	; 0x4fc0 <__fixunssfsi>
     50a:	dc 01       	movw	r26, r24
     50c:	cb 01       	movw	r24, r22
     50e:	9c ab       	std	Y+52, r25	; 0x34
     510:	8b ab       	std	Y+51, r24	; 0x33
     512:	0f c0       	rjmp	.+30     	; 0x532 <__LOCK_REGION_LENGTH__+0x132>
     514:	80 e7       	ldi	r24, 0x70	; 112
     516:	91 e0       	ldi	r25, 0x01	; 1
     518:	9e ab       	std	Y+54, r25	; 0x36
     51a:	8d ab       	std	Y+53, r24	; 0x35
     51c:	8d a9       	ldd	r24, Y+53	; 0x35
     51e:	9e a9       	ldd	r25, Y+54	; 0x36
     520:	01 97       	sbiw	r24, 0x01	; 1
     522:	f1 f7       	brne	.-4      	; 0x520 <__LOCK_REGION_LENGTH__+0x120>
     524:	9e ab       	std	Y+54, r25	; 0x36
     526:	8d ab       	std	Y+53, r24	; 0x35
     528:	8b a9       	ldd	r24, Y+51	; 0x33
     52a:	9c a9       	ldd	r25, Y+52	; 0x34
     52c:	01 97       	sbiw	r24, 0x01	; 1
     52e:	9c ab       	std	Y+52, r25	; 0x34
     530:	8b ab       	std	Y+51, r24	; 0x33
     532:	8b a9       	ldd	r24, Y+51	; 0x33
     534:	9c a9       	ldd	r25, Y+52	; 0x34
     536:	89 2b       	or	r24, r25
     538:	69 f7       	brne	.-38     	; 0x514 <__LOCK_REGION_LENGTH__+0x114>
     53a:	14 c0       	rjmp	.+40     	; 0x564 <__LOCK_REGION_LENGTH__+0x164>
     53c:	6f a5       	ldd	r22, Y+47	; 0x2f
     53e:	78 a9       	ldd	r23, Y+48	; 0x30
     540:	89 a9       	ldd	r24, Y+49	; 0x31
     542:	9a a9       	ldd	r25, Y+50	; 0x32
     544:	0e 94 e0 27 	call	0x4fc0	; 0x4fc0 <__fixunssfsi>
     548:	dc 01       	movw	r26, r24
     54a:	cb 01       	movw	r24, r22
     54c:	9c ab       	std	Y+52, r25	; 0x34
     54e:	8b ab       	std	Y+51, r24	; 0x33
     550:	8b a9       	ldd	r24, Y+51	; 0x33
     552:	9c a9       	ldd	r25, Y+52	; 0x34
     554:	98 af       	std	Y+56, r25	; 0x38
     556:	8f ab       	std	Y+55, r24	; 0x37
     558:	8f a9       	ldd	r24, Y+55	; 0x37
     55a:	98 ad       	ldd	r25, Y+56	; 0x38
     55c:	01 97       	sbiw	r24, 0x01	; 1
     55e:	f1 f7       	brne	.-4      	; 0x55c <__LOCK_REGION_LENGTH__+0x15c>
     560:	98 af       	std	Y+56, r25	; 0x38
     562:	8f ab       	std	Y+55, r24	; 0x37
     564:	88 e2       	ldi	r24, 0x28	; 40
     566:	90 e0       	ldi	r25, 0x00	; 0
     568:	28 e2       	ldi	r18, 0x28	; 40
     56a:	30 e0       	ldi	r19, 0x00	; 0
     56c:	f9 01       	movw	r30, r18
     56e:	20 81       	ld	r18, Z
     570:	2b 7f       	andi	r18, 0xFB	; 251
     572:	fc 01       	movw	r30, r24
     574:	20 83       	st	Z, r18
     576:	80 e0       	ldi	r24, 0x00	; 0
     578:	90 e0       	ldi	r25, 0x00	; 0
     57a:	a0 e8       	ldi	r26, 0x80	; 128
     57c:	bf e3       	ldi	r27, 0x3F	; 63
     57e:	89 af       	std	Y+57, r24	; 0x39
     580:	9a af       	std	Y+58, r25	; 0x3a
     582:	ab af       	std	Y+59, r26	; 0x3b
     584:	bc af       	std	Y+60, r27	; 0x3c
     586:	26 e6       	ldi	r18, 0x66	; 102
     588:	36 e6       	ldi	r19, 0x66	; 102
     58a:	46 e6       	ldi	r20, 0x66	; 102
     58c:	55 e4       	ldi	r21, 0x45	; 69
     58e:	69 ad       	ldd	r22, Y+57	; 0x39
     590:	7a ad       	ldd	r23, Y+58	; 0x3a
     592:	8b ad       	ldd	r24, Y+59	; 0x3b
     594:	9c ad       	ldd	r25, Y+60	; 0x3c
     596:	0e 94 c2 28 	call	0x5184	; 0x5184 <__mulsf3>
     59a:	dc 01       	movw	r26, r24
     59c:	cb 01       	movw	r24, r22
     59e:	9e 01       	movw	r18, r28
     5a0:	23 5c       	subi	r18, 0xC3	; 195
     5a2:	3f 4f       	sbci	r19, 0xFF	; 255
     5a4:	f9 01       	movw	r30, r18
     5a6:	80 83       	st	Z, r24
     5a8:	91 83       	std	Z+1, r25	; 0x01
     5aa:	a2 83       	std	Z+2, r26	; 0x02
     5ac:	b3 83       	std	Z+3, r27	; 0x03
     5ae:	20 e0       	ldi	r18, 0x00	; 0
     5b0:	30 e0       	ldi	r19, 0x00	; 0
     5b2:	40 e8       	ldi	r20, 0x80	; 128
     5b4:	5f e3       	ldi	r21, 0x3F	; 63
     5b6:	ce 01       	movw	r24, r28
     5b8:	cd 96       	adiw	r24, 0x3d	; 61
     5ba:	fc 01       	movw	r30, r24
     5bc:	60 81       	ld	r22, Z
     5be:	71 81       	ldd	r23, Z+1	; 0x01
     5c0:	82 81       	ldd	r24, Z+2	; 0x02
     5c2:	93 81       	ldd	r25, Z+3	; 0x03
     5c4:	0e 94 74 27 	call	0x4ee8	; 0x4ee8 <__cmpsf2>
     5c8:	88 23       	and	r24, r24
     5ca:	4c f4       	brge	.+18     	; 0x5de <__LOCK_REGION_LENGTH__+0x1de>
     5cc:	ce 01       	movw	r24, r28
     5ce:	8f 5b       	subi	r24, 0xBF	; 191
     5d0:	9f 4f       	sbci	r25, 0xFF	; 255
     5d2:	21 e0       	ldi	r18, 0x01	; 1
     5d4:	30 e0       	ldi	r19, 0x00	; 0
     5d6:	fc 01       	movw	r30, r24
     5d8:	31 83       	std	Z+1, r19	; 0x01
     5da:	20 83       	st	Z, r18
     5dc:	67 c0       	rjmp	.+206    	; 0x6ac <__LOCK_REGION_LENGTH__+0x2ac>
     5de:	20 e0       	ldi	r18, 0x00	; 0
     5e0:	3f ef       	ldi	r19, 0xFF	; 255
     5e2:	4f e7       	ldi	r20, 0x7F	; 127
     5e4:	57 e4       	ldi	r21, 0x47	; 71
     5e6:	ce 01       	movw	r24, r28
     5e8:	cd 96       	adiw	r24, 0x3d	; 61
     5ea:	fc 01       	movw	r30, r24
     5ec:	60 81       	ld	r22, Z
     5ee:	71 81       	ldd	r23, Z+1	; 0x01
     5f0:	82 81       	ldd	r24, Z+2	; 0x02
     5f2:	93 81       	ldd	r25, Z+3	; 0x03
     5f4:	0e 94 be 28 	call	0x517c	; 0x517c <__gesf2>
     5f8:	18 16       	cp	r1, r24
     5fa:	0c f0       	brlt	.+2      	; 0x5fe <__LOCK_REGION_LENGTH__+0x1fe>
     5fc:	46 c0       	rjmp	.+140    	; 0x68a <__LOCK_REGION_LENGTH__+0x28a>
     5fe:	20 e0       	ldi	r18, 0x00	; 0
     600:	30 e0       	ldi	r19, 0x00	; 0
     602:	40 e2       	ldi	r20, 0x20	; 32
     604:	51 e4       	ldi	r21, 0x41	; 65
     606:	69 ad       	ldd	r22, Y+57	; 0x39
     608:	7a ad       	ldd	r23, Y+58	; 0x3a
     60a:	8b ad       	ldd	r24, Y+59	; 0x3b
     60c:	9c ad       	ldd	r25, Y+60	; 0x3c
     60e:	0e 94 c2 28 	call	0x5184	; 0x5184 <__mulsf3>
     612:	dc 01       	movw	r26, r24
     614:	cb 01       	movw	r24, r22
     616:	8e 01       	movw	r16, r28
     618:	0f 5b       	subi	r16, 0xBF	; 191
     61a:	1f 4f       	sbci	r17, 0xFF	; 255
     61c:	bc 01       	movw	r22, r24
     61e:	cd 01       	movw	r24, r26
     620:	0e 94 e0 27 	call	0x4fc0	; 0x4fc0 <__fixunssfsi>
     624:	dc 01       	movw	r26, r24
     626:	cb 01       	movw	r24, r22
     628:	f8 01       	movw	r30, r16
     62a:	91 83       	std	Z+1, r25	; 0x01
     62c:	80 83       	st	Z, r24
     62e:	24 c0       	rjmp	.+72     	; 0x678 <__LOCK_REGION_LENGTH__+0x278>
     630:	ce 01       	movw	r24, r28
     632:	8d 5b       	subi	r24, 0xBD	; 189
     634:	9f 4f       	sbci	r25, 0xFF	; 255
     636:	20 e7       	ldi	r18, 0x70	; 112
     638:	31 e0       	ldi	r19, 0x01	; 1
     63a:	fc 01       	movw	r30, r24
     63c:	31 83       	std	Z+1, r19	; 0x01
     63e:	20 83       	st	Z, r18
     640:	ce 01       	movw	r24, r28
     642:	8d 5b       	subi	r24, 0xBD	; 189
     644:	9f 4f       	sbci	r25, 0xFF	; 255
     646:	fc 01       	movw	r30, r24
     648:	80 81       	ld	r24, Z
     64a:	91 81       	ldd	r25, Z+1	; 0x01
     64c:	01 97       	sbiw	r24, 0x01	; 1
     64e:	f1 f7       	brne	.-4      	; 0x64c <__LOCK_REGION_LENGTH__+0x24c>
     650:	9e 01       	movw	r18, r28
     652:	2d 5b       	subi	r18, 0xBD	; 189
     654:	3f 4f       	sbci	r19, 0xFF	; 255
     656:	f9 01       	movw	r30, r18
     658:	91 83       	std	Z+1, r25	; 0x01
     65a:	80 83       	st	Z, r24
     65c:	ce 01       	movw	r24, r28
     65e:	8f 5b       	subi	r24, 0xBF	; 191
     660:	9f 4f       	sbci	r25, 0xFF	; 255
     662:	9e 01       	movw	r18, r28
     664:	2f 5b       	subi	r18, 0xBF	; 191
     666:	3f 4f       	sbci	r19, 0xFF	; 255
     668:	f9 01       	movw	r30, r18
     66a:	20 81       	ld	r18, Z
     66c:	31 81       	ldd	r19, Z+1	; 0x01
     66e:	21 50       	subi	r18, 0x01	; 1
     670:	31 09       	sbc	r19, r1
     672:	fc 01       	movw	r30, r24
     674:	31 83       	std	Z+1, r19	; 0x01
     676:	20 83       	st	Z, r18
     678:	ce 01       	movw	r24, r28
     67a:	8f 5b       	subi	r24, 0xBF	; 191
     67c:	9f 4f       	sbci	r25, 0xFF	; 255
     67e:	fc 01       	movw	r30, r24
     680:	80 81       	ld	r24, Z
     682:	91 81       	ldd	r25, Z+1	; 0x01
     684:	89 2b       	or	r24, r25
     686:	a1 f6       	brne	.-88     	; 0x630 <__LOCK_REGION_LENGTH__+0x230>
     688:	2b c0       	rjmp	.+86     	; 0x6e0 <__LOCK_REGION_LENGTH__+0x2e0>
     68a:	8e 01       	movw	r16, r28
     68c:	0f 5b       	subi	r16, 0xBF	; 191
     68e:	1f 4f       	sbci	r17, 0xFF	; 255
     690:	ce 01       	movw	r24, r28
     692:	cd 96       	adiw	r24, 0x3d	; 61
     694:	fc 01       	movw	r30, r24
     696:	60 81       	ld	r22, Z
     698:	71 81       	ldd	r23, Z+1	; 0x01
     69a:	82 81       	ldd	r24, Z+2	; 0x02
     69c:	93 81       	ldd	r25, Z+3	; 0x03
     69e:	0e 94 e0 27 	call	0x4fc0	; 0x4fc0 <__fixunssfsi>
     6a2:	dc 01       	movw	r26, r24
     6a4:	cb 01       	movw	r24, r22
     6a6:	f8 01       	movw	r30, r16
     6a8:	91 83       	std	Z+1, r25	; 0x01
     6aa:	80 83       	st	Z, r24
     6ac:	ce 01       	movw	r24, r28
     6ae:	8b 5b       	subi	r24, 0xBB	; 187
     6b0:	9f 4f       	sbci	r25, 0xFF	; 255
     6b2:	9e 01       	movw	r18, r28
     6b4:	2f 5b       	subi	r18, 0xBF	; 191
     6b6:	3f 4f       	sbci	r19, 0xFF	; 255
     6b8:	f9 01       	movw	r30, r18
     6ba:	20 81       	ld	r18, Z
     6bc:	31 81       	ldd	r19, Z+1	; 0x01
     6be:	fc 01       	movw	r30, r24
     6c0:	31 83       	std	Z+1, r19	; 0x01
     6c2:	20 83       	st	Z, r18
     6c4:	ce 01       	movw	r24, r28
     6c6:	8b 5b       	subi	r24, 0xBB	; 187
     6c8:	9f 4f       	sbci	r25, 0xFF	; 255
     6ca:	fc 01       	movw	r30, r24
     6cc:	80 81       	ld	r24, Z
     6ce:	91 81       	ldd	r25, Z+1	; 0x01
     6d0:	01 97       	sbiw	r24, 0x01	; 1
     6d2:	f1 f7       	brne	.-4      	; 0x6d0 <__LOCK_REGION_LENGTH__+0x2d0>
     6d4:	9e 01       	movw	r18, r28
     6d6:	2b 5b       	subi	r18, 0xBB	; 187
     6d8:	3f 4f       	sbci	r19, 0xFF	; 255
     6da:	f9 01       	movw	r30, r18
     6dc:	91 83       	std	Z+1, r25	; 0x01
     6de:	80 83       	st	Z, r24
     6e0:	88 e2       	ldi	r24, 0x28	; 40
     6e2:	90 e0       	ldi	r25, 0x00	; 0
     6e4:	28 e2       	ldi	r18, 0x28	; 40
     6e6:	30 e0       	ldi	r19, 0x00	; 0
     6e8:	f9 01       	movw	r30, r18
     6ea:	20 81       	ld	r18, Z
     6ec:	2e 7f       	andi	r18, 0xFE	; 254
     6ee:	fc 01       	movw	r30, r24
     6f0:	20 83       	st	Z, r18
     6f2:	88 e2       	ldi	r24, 0x28	; 40
     6f4:	90 e0       	ldi	r25, 0x00	; 0
     6f6:	28 e2       	ldi	r18, 0x28	; 40
     6f8:	30 e0       	ldi	r19, 0x00	; 0
     6fa:	f9 01       	movw	r30, r18
     6fc:	20 81       	ld	r18, Z
     6fe:	2d 7f       	andi	r18, 0xFD	; 253
     700:	fc 01       	movw	r30, r24
     702:	20 83       	st	Z, r18
     704:	88 e2       	ldi	r24, 0x28	; 40
     706:	90 e0       	ldi	r25, 0x00	; 0
     708:	20 e3       	ldi	r18, 0x30	; 48
     70a:	fc 01       	movw	r30, r24
     70c:	20 83       	st	Z, r18
     70e:	88 e2       	ldi	r24, 0x28	; 40
     710:	90 e0       	ldi	r25, 0x00	; 0
     712:	28 e2       	ldi	r18, 0x28	; 40
     714:	30 e0       	ldi	r19, 0x00	; 0
     716:	f9 01       	movw	r30, r18
     718:	20 81       	ld	r18, Z
     71a:	24 60       	ori	r18, 0x04	; 4
     71c:	fc 01       	movw	r30, r24
     71e:	20 83       	st	Z, r18
     720:	9e 01       	movw	r18, r28
     722:	29 5b       	subi	r18, 0xB9	; 185
     724:	3f 4f       	sbci	r19, 0xFF	; 255
     726:	80 e0       	ldi	r24, 0x00	; 0
     728:	90 e0       	ldi	r25, 0x00	; 0
     72a:	a0 ea       	ldi	r26, 0xA0	; 160
     72c:	b0 e4       	ldi	r27, 0x40	; 64
     72e:	f9 01       	movw	r30, r18
     730:	80 83       	st	Z, r24
     732:	91 83       	std	Z+1, r25	; 0x01
     734:	a2 83       	std	Z+2, r26	; 0x02
     736:	b3 83       	std	Z+3, r27	; 0x03
     738:	8e 01       	movw	r16, r28
     73a:	05 5b       	subi	r16, 0xB5	; 181
     73c:	1f 4f       	sbci	r17, 0xFF	; 255
     73e:	ce 01       	movw	r24, r28
     740:	89 5b       	subi	r24, 0xB9	; 185
     742:	9f 4f       	sbci	r25, 0xFF	; 255
     744:	26 e6       	ldi	r18, 0x66	; 102
     746:	36 e6       	ldi	r19, 0x66	; 102
     748:	46 e6       	ldi	r20, 0x66	; 102
     74a:	55 e4       	ldi	r21, 0x45	; 69
     74c:	fc 01       	movw	r30, r24
     74e:	60 81       	ld	r22, Z
     750:	71 81       	ldd	r23, Z+1	; 0x01
     752:	82 81       	ldd	r24, Z+2	; 0x02
     754:	93 81       	ldd	r25, Z+3	; 0x03
     756:	0e 94 c2 28 	call	0x5184	; 0x5184 <__mulsf3>
     75a:	dc 01       	movw	r26, r24
     75c:	cb 01       	movw	r24, r22
     75e:	f8 01       	movw	r30, r16
     760:	80 83       	st	Z, r24
     762:	91 83       	std	Z+1, r25	; 0x01
     764:	a2 83       	std	Z+2, r26	; 0x02
     766:	b3 83       	std	Z+3, r27	; 0x03
     768:	ce 01       	movw	r24, r28
     76a:	85 5b       	subi	r24, 0xB5	; 181
     76c:	9f 4f       	sbci	r25, 0xFF	; 255
     76e:	20 e0       	ldi	r18, 0x00	; 0
     770:	30 e0       	ldi	r19, 0x00	; 0
     772:	40 e8       	ldi	r20, 0x80	; 128
     774:	5f e3       	ldi	r21, 0x3F	; 63
     776:	fc 01       	movw	r30, r24
     778:	60 81       	ld	r22, Z
     77a:	71 81       	ldd	r23, Z+1	; 0x01
     77c:	82 81       	ldd	r24, Z+2	; 0x02
     77e:	93 81       	ldd	r25, Z+3	; 0x03
     780:	0e 94 74 27 	call	0x4ee8	; 0x4ee8 <__cmpsf2>
     784:	88 23       	and	r24, r24
     786:	4c f4       	brge	.+18     	; 0x79a <__LOCK_REGION_LENGTH__+0x39a>
     788:	ce 01       	movw	r24, r28
     78a:	81 5b       	subi	r24, 0xB1	; 177
     78c:	9f 4f       	sbci	r25, 0xFF	; 255
     78e:	21 e0       	ldi	r18, 0x01	; 1
     790:	30 e0       	ldi	r19, 0x00	; 0
     792:	fc 01       	movw	r30, r24
     794:	31 83       	std	Z+1, r19	; 0x01
     796:	20 83       	st	Z, r18
     798:	6d c0       	rjmp	.+218    	; 0x874 <__LOCK_REGION_LENGTH__+0x474>
     79a:	ce 01       	movw	r24, r28
     79c:	85 5b       	subi	r24, 0xB5	; 181
     79e:	9f 4f       	sbci	r25, 0xFF	; 255
     7a0:	20 e0       	ldi	r18, 0x00	; 0
     7a2:	3f ef       	ldi	r19, 0xFF	; 255
     7a4:	4f e7       	ldi	r20, 0x7F	; 127
     7a6:	57 e4       	ldi	r21, 0x47	; 71
     7a8:	fc 01       	movw	r30, r24
     7aa:	60 81       	ld	r22, Z
     7ac:	71 81       	ldd	r23, Z+1	; 0x01
     7ae:	82 81       	ldd	r24, Z+2	; 0x02
     7b0:	93 81       	ldd	r25, Z+3	; 0x03
     7b2:	0e 94 be 28 	call	0x517c	; 0x517c <__gesf2>
     7b6:	18 16       	cp	r1, r24
     7b8:	0c f0       	brlt	.+2      	; 0x7bc <__LOCK_REGION_LENGTH__+0x3bc>
     7ba:	4a c0       	rjmp	.+148    	; 0x850 <__LOCK_REGION_LENGTH__+0x450>
     7bc:	ce 01       	movw	r24, r28
     7be:	89 5b       	subi	r24, 0xB9	; 185
     7c0:	9f 4f       	sbci	r25, 0xFF	; 255
     7c2:	20 e0       	ldi	r18, 0x00	; 0
     7c4:	30 e0       	ldi	r19, 0x00	; 0
     7c6:	40 e2       	ldi	r20, 0x20	; 32
     7c8:	51 e4       	ldi	r21, 0x41	; 65
     7ca:	fc 01       	movw	r30, r24
     7cc:	60 81       	ld	r22, Z
     7ce:	71 81       	ldd	r23, Z+1	; 0x01
     7d0:	82 81       	ldd	r24, Z+2	; 0x02
     7d2:	93 81       	ldd	r25, Z+3	; 0x03
     7d4:	0e 94 c2 28 	call	0x5184	; 0x5184 <__mulsf3>
     7d8:	dc 01       	movw	r26, r24
     7da:	cb 01       	movw	r24, r22
     7dc:	8e 01       	movw	r16, r28
     7de:	01 5b       	subi	r16, 0xB1	; 177
     7e0:	1f 4f       	sbci	r17, 0xFF	; 255
     7e2:	bc 01       	movw	r22, r24
     7e4:	cd 01       	movw	r24, r26
     7e6:	0e 94 e0 27 	call	0x4fc0	; 0x4fc0 <__fixunssfsi>
     7ea:	dc 01       	movw	r26, r24
     7ec:	cb 01       	movw	r24, r22
     7ee:	f8 01       	movw	r30, r16
     7f0:	91 83       	std	Z+1, r25	; 0x01
     7f2:	80 83       	st	Z, r24
     7f4:	24 c0       	rjmp	.+72     	; 0x83e <__LOCK_REGION_LENGTH__+0x43e>
     7f6:	ce 01       	movw	r24, r28
     7f8:	8f 5a       	subi	r24, 0xAF	; 175
     7fa:	9f 4f       	sbci	r25, 0xFF	; 255
     7fc:	20 e7       	ldi	r18, 0x70	; 112
     7fe:	31 e0       	ldi	r19, 0x01	; 1
     800:	fc 01       	movw	r30, r24
     802:	31 83       	std	Z+1, r19	; 0x01
     804:	20 83       	st	Z, r18
     806:	ce 01       	movw	r24, r28
     808:	8f 5a       	subi	r24, 0xAF	; 175
     80a:	9f 4f       	sbci	r25, 0xFF	; 255
     80c:	fc 01       	movw	r30, r24
     80e:	80 81       	ld	r24, Z
     810:	91 81       	ldd	r25, Z+1	; 0x01
     812:	01 97       	sbiw	r24, 0x01	; 1
     814:	f1 f7       	brne	.-4      	; 0x812 <__LOCK_REGION_LENGTH__+0x412>
     816:	9e 01       	movw	r18, r28
     818:	2f 5a       	subi	r18, 0xAF	; 175
     81a:	3f 4f       	sbci	r19, 0xFF	; 255
     81c:	f9 01       	movw	r30, r18
     81e:	91 83       	std	Z+1, r25	; 0x01
     820:	80 83       	st	Z, r24
     822:	ce 01       	movw	r24, r28
     824:	81 5b       	subi	r24, 0xB1	; 177
     826:	9f 4f       	sbci	r25, 0xFF	; 255
     828:	9e 01       	movw	r18, r28
     82a:	21 5b       	subi	r18, 0xB1	; 177
     82c:	3f 4f       	sbci	r19, 0xFF	; 255
     82e:	f9 01       	movw	r30, r18
     830:	20 81       	ld	r18, Z
     832:	31 81       	ldd	r19, Z+1	; 0x01
     834:	21 50       	subi	r18, 0x01	; 1
     836:	31 09       	sbc	r19, r1
     838:	fc 01       	movw	r30, r24
     83a:	31 83       	std	Z+1, r19	; 0x01
     83c:	20 83       	st	Z, r18
     83e:	ce 01       	movw	r24, r28
     840:	81 5b       	subi	r24, 0xB1	; 177
     842:	9f 4f       	sbci	r25, 0xFF	; 255
     844:	fc 01       	movw	r30, r24
     846:	80 81       	ld	r24, Z
     848:	91 81       	ldd	r25, Z+1	; 0x01
     84a:	89 2b       	or	r24, r25
     84c:	a1 f6       	brne	.-88     	; 0x7f6 <__LOCK_REGION_LENGTH__+0x3f6>
     84e:	2c c0       	rjmp	.+88     	; 0x8a8 <__LOCK_REGION_LENGTH__+0x4a8>
     850:	8e 01       	movw	r16, r28
     852:	01 5b       	subi	r16, 0xB1	; 177
     854:	1f 4f       	sbci	r17, 0xFF	; 255
     856:	ce 01       	movw	r24, r28
     858:	85 5b       	subi	r24, 0xB5	; 181
     85a:	9f 4f       	sbci	r25, 0xFF	; 255
     85c:	fc 01       	movw	r30, r24
     85e:	60 81       	ld	r22, Z
     860:	71 81       	ldd	r23, Z+1	; 0x01
     862:	82 81       	ldd	r24, Z+2	; 0x02
     864:	93 81       	ldd	r25, Z+3	; 0x03
     866:	0e 94 e0 27 	call	0x4fc0	; 0x4fc0 <__fixunssfsi>
     86a:	dc 01       	movw	r26, r24
     86c:	cb 01       	movw	r24, r22
     86e:	f8 01       	movw	r30, r16
     870:	91 83       	std	Z+1, r25	; 0x01
     872:	80 83       	st	Z, r24
     874:	ce 01       	movw	r24, r28
     876:	8d 5a       	subi	r24, 0xAD	; 173
     878:	9f 4f       	sbci	r25, 0xFF	; 255
     87a:	9e 01       	movw	r18, r28
     87c:	21 5b       	subi	r18, 0xB1	; 177
     87e:	3f 4f       	sbci	r19, 0xFF	; 255
     880:	f9 01       	movw	r30, r18
     882:	20 81       	ld	r18, Z
     884:	31 81       	ldd	r19, Z+1	; 0x01
     886:	fc 01       	movw	r30, r24
     888:	31 83       	std	Z+1, r19	; 0x01
     88a:	20 83       	st	Z, r18
     88c:	ce 01       	movw	r24, r28
     88e:	8d 5a       	subi	r24, 0xAD	; 173
     890:	9f 4f       	sbci	r25, 0xFF	; 255
     892:	fc 01       	movw	r30, r24
     894:	80 81       	ld	r24, Z
     896:	91 81       	ldd	r25, Z+1	; 0x01
     898:	01 97       	sbiw	r24, 0x01	; 1
     89a:	f1 f7       	brne	.-4      	; 0x898 <__LOCK_REGION_LENGTH__+0x498>
     89c:	9e 01       	movw	r18, r28
     89e:	2d 5a       	subi	r18, 0xAD	; 173
     8a0:	3f 4f       	sbci	r19, 0xFF	; 255
     8a2:	f9 01       	movw	r30, r18
     8a4:	91 83       	std	Z+1, r25	; 0x01
     8a6:	80 83       	st	Z, r24
     8a8:	88 e2       	ldi	r24, 0x28	; 40
     8aa:	90 e0       	ldi	r25, 0x00	; 0
     8ac:	28 e2       	ldi	r18, 0x28	; 40
     8ae:	30 e0       	ldi	r19, 0x00	; 0
     8b0:	f9 01       	movw	r30, r18
     8b2:	20 81       	ld	r18, Z
     8b4:	2b 7f       	andi	r18, 0xFB	; 251
     8b6:	fc 01       	movw	r30, r24
     8b8:	20 83       	st	Z, r18
     8ba:	9e 01       	movw	r18, r28
     8bc:	2b 5a       	subi	r18, 0xAB	; 171
     8be:	3f 4f       	sbci	r19, 0xFF	; 255
     8c0:	80 e0       	ldi	r24, 0x00	; 0
     8c2:	90 e0       	ldi	r25, 0x00	; 0
     8c4:	a0 e8       	ldi	r26, 0x80	; 128
     8c6:	bf e3       	ldi	r27, 0x3F	; 63
     8c8:	f9 01       	movw	r30, r18
     8ca:	80 83       	st	Z, r24
     8cc:	91 83       	std	Z+1, r25	; 0x01
     8ce:	a2 83       	std	Z+2, r26	; 0x02
     8d0:	b3 83       	std	Z+3, r27	; 0x03
     8d2:	8e 01       	movw	r16, r28
     8d4:	07 5a       	subi	r16, 0xA7	; 167
     8d6:	1f 4f       	sbci	r17, 0xFF	; 255
     8d8:	ce 01       	movw	r24, r28
     8da:	8b 5a       	subi	r24, 0xAB	; 171
     8dc:	9f 4f       	sbci	r25, 0xFF	; 255
     8de:	26 e6       	ldi	r18, 0x66	; 102
     8e0:	36 e6       	ldi	r19, 0x66	; 102
     8e2:	46 e6       	ldi	r20, 0x66	; 102
     8e4:	55 e4       	ldi	r21, 0x45	; 69
     8e6:	fc 01       	movw	r30, r24
     8e8:	60 81       	ld	r22, Z
     8ea:	71 81       	ldd	r23, Z+1	; 0x01
     8ec:	82 81       	ldd	r24, Z+2	; 0x02
     8ee:	93 81       	ldd	r25, Z+3	; 0x03
     8f0:	0e 94 c2 28 	call	0x5184	; 0x5184 <__mulsf3>
     8f4:	dc 01       	movw	r26, r24
     8f6:	cb 01       	movw	r24, r22
     8f8:	f8 01       	movw	r30, r16
     8fa:	80 83       	st	Z, r24
     8fc:	91 83       	std	Z+1, r25	; 0x01
     8fe:	a2 83       	std	Z+2, r26	; 0x02
     900:	b3 83       	std	Z+3, r27	; 0x03
     902:	ce 01       	movw	r24, r28
     904:	87 5a       	subi	r24, 0xA7	; 167
     906:	9f 4f       	sbci	r25, 0xFF	; 255
     908:	20 e0       	ldi	r18, 0x00	; 0
     90a:	30 e0       	ldi	r19, 0x00	; 0
     90c:	40 e8       	ldi	r20, 0x80	; 128
     90e:	5f e3       	ldi	r21, 0x3F	; 63
     910:	fc 01       	movw	r30, r24
     912:	60 81       	ld	r22, Z
     914:	71 81       	ldd	r23, Z+1	; 0x01
     916:	82 81       	ldd	r24, Z+2	; 0x02
     918:	93 81       	ldd	r25, Z+3	; 0x03
     91a:	0e 94 74 27 	call	0x4ee8	; 0x4ee8 <__cmpsf2>
     91e:	88 23       	and	r24, r24
     920:	4c f4       	brge	.+18     	; 0x934 <__LOCK_REGION_LENGTH__+0x534>
     922:	ce 01       	movw	r24, r28
     924:	83 5a       	subi	r24, 0xA3	; 163
     926:	9f 4f       	sbci	r25, 0xFF	; 255
     928:	21 e0       	ldi	r18, 0x01	; 1
     92a:	30 e0       	ldi	r19, 0x00	; 0
     92c:	fc 01       	movw	r30, r24
     92e:	31 83       	std	Z+1, r19	; 0x01
     930:	20 83       	st	Z, r18
     932:	6d c0       	rjmp	.+218    	; 0xa0e <__LOCK_REGION_LENGTH__+0x60e>
     934:	ce 01       	movw	r24, r28
     936:	87 5a       	subi	r24, 0xA7	; 167
     938:	9f 4f       	sbci	r25, 0xFF	; 255
     93a:	20 e0       	ldi	r18, 0x00	; 0
     93c:	3f ef       	ldi	r19, 0xFF	; 255
     93e:	4f e7       	ldi	r20, 0x7F	; 127
     940:	57 e4       	ldi	r21, 0x47	; 71
     942:	fc 01       	movw	r30, r24
     944:	60 81       	ld	r22, Z
     946:	71 81       	ldd	r23, Z+1	; 0x01
     948:	82 81       	ldd	r24, Z+2	; 0x02
     94a:	93 81       	ldd	r25, Z+3	; 0x03
     94c:	0e 94 be 28 	call	0x517c	; 0x517c <__gesf2>
     950:	18 16       	cp	r1, r24
     952:	0c f0       	brlt	.+2      	; 0x956 <__LOCK_REGION_LENGTH__+0x556>
     954:	4a c0       	rjmp	.+148    	; 0x9ea <__LOCK_REGION_LENGTH__+0x5ea>
     956:	ce 01       	movw	r24, r28
     958:	8b 5a       	subi	r24, 0xAB	; 171
     95a:	9f 4f       	sbci	r25, 0xFF	; 255
     95c:	20 e0       	ldi	r18, 0x00	; 0
     95e:	30 e0       	ldi	r19, 0x00	; 0
     960:	40 e2       	ldi	r20, 0x20	; 32
     962:	51 e4       	ldi	r21, 0x41	; 65
     964:	fc 01       	movw	r30, r24
     966:	60 81       	ld	r22, Z
     968:	71 81       	ldd	r23, Z+1	; 0x01
     96a:	82 81       	ldd	r24, Z+2	; 0x02
     96c:	93 81       	ldd	r25, Z+3	; 0x03
     96e:	0e 94 c2 28 	call	0x5184	; 0x5184 <__mulsf3>
     972:	dc 01       	movw	r26, r24
     974:	cb 01       	movw	r24, r22
     976:	8e 01       	movw	r16, r28
     978:	03 5a       	subi	r16, 0xA3	; 163
     97a:	1f 4f       	sbci	r17, 0xFF	; 255
     97c:	bc 01       	movw	r22, r24
     97e:	cd 01       	movw	r24, r26
     980:	0e 94 e0 27 	call	0x4fc0	; 0x4fc0 <__fixunssfsi>
     984:	dc 01       	movw	r26, r24
     986:	cb 01       	movw	r24, r22
     988:	f8 01       	movw	r30, r16
     98a:	91 83       	std	Z+1, r25	; 0x01
     98c:	80 83       	st	Z, r24
     98e:	24 c0       	rjmp	.+72     	; 0x9d8 <__LOCK_REGION_LENGTH__+0x5d8>
     990:	ce 01       	movw	r24, r28
     992:	81 5a       	subi	r24, 0xA1	; 161
     994:	9f 4f       	sbci	r25, 0xFF	; 255
     996:	20 e7       	ldi	r18, 0x70	; 112
     998:	31 e0       	ldi	r19, 0x01	; 1
     99a:	fc 01       	movw	r30, r24
     99c:	31 83       	std	Z+1, r19	; 0x01
     99e:	20 83       	st	Z, r18
     9a0:	ce 01       	movw	r24, r28
     9a2:	81 5a       	subi	r24, 0xA1	; 161
     9a4:	9f 4f       	sbci	r25, 0xFF	; 255
     9a6:	fc 01       	movw	r30, r24
     9a8:	80 81       	ld	r24, Z
     9aa:	91 81       	ldd	r25, Z+1	; 0x01
     9ac:	01 97       	sbiw	r24, 0x01	; 1
     9ae:	f1 f7       	brne	.-4      	; 0x9ac <__LOCK_REGION_LENGTH__+0x5ac>
     9b0:	9e 01       	movw	r18, r28
     9b2:	21 5a       	subi	r18, 0xA1	; 161
     9b4:	3f 4f       	sbci	r19, 0xFF	; 255
     9b6:	f9 01       	movw	r30, r18
     9b8:	91 83       	std	Z+1, r25	; 0x01
     9ba:	80 83       	st	Z, r24
     9bc:	ce 01       	movw	r24, r28
     9be:	83 5a       	subi	r24, 0xA3	; 163
     9c0:	9f 4f       	sbci	r25, 0xFF	; 255
     9c2:	9e 01       	movw	r18, r28
     9c4:	23 5a       	subi	r18, 0xA3	; 163
     9c6:	3f 4f       	sbci	r19, 0xFF	; 255
     9c8:	f9 01       	movw	r30, r18
     9ca:	20 81       	ld	r18, Z
     9cc:	31 81       	ldd	r19, Z+1	; 0x01
     9ce:	21 50       	subi	r18, 0x01	; 1
     9d0:	31 09       	sbc	r19, r1
     9d2:	fc 01       	movw	r30, r24
     9d4:	31 83       	std	Z+1, r19	; 0x01
     9d6:	20 83       	st	Z, r18
     9d8:	ce 01       	movw	r24, r28
     9da:	83 5a       	subi	r24, 0xA3	; 163
     9dc:	9f 4f       	sbci	r25, 0xFF	; 255
     9de:	fc 01       	movw	r30, r24
     9e0:	80 81       	ld	r24, Z
     9e2:	91 81       	ldd	r25, Z+1	; 0x01
     9e4:	89 2b       	or	r24, r25
     9e6:	a1 f6       	brne	.-88     	; 0x990 <__LOCK_REGION_LENGTH__+0x590>
     9e8:	2c c0       	rjmp	.+88     	; 0xa42 <__LOCK_REGION_LENGTH__+0x642>
     9ea:	8e 01       	movw	r16, r28
     9ec:	03 5a       	subi	r16, 0xA3	; 163
     9ee:	1f 4f       	sbci	r17, 0xFF	; 255
     9f0:	ce 01       	movw	r24, r28
     9f2:	87 5a       	subi	r24, 0xA7	; 167
     9f4:	9f 4f       	sbci	r25, 0xFF	; 255
     9f6:	fc 01       	movw	r30, r24
     9f8:	60 81       	ld	r22, Z
     9fa:	71 81       	ldd	r23, Z+1	; 0x01
     9fc:	82 81       	ldd	r24, Z+2	; 0x02
     9fe:	93 81       	ldd	r25, Z+3	; 0x03
     a00:	0e 94 e0 27 	call	0x4fc0	; 0x4fc0 <__fixunssfsi>
     a04:	dc 01       	movw	r26, r24
     a06:	cb 01       	movw	r24, r22
     a08:	f8 01       	movw	r30, r16
     a0a:	91 83       	std	Z+1, r25	; 0x01
     a0c:	80 83       	st	Z, r24
     a0e:	ce 01       	movw	r24, r28
     a10:	8f 59       	subi	r24, 0x9F	; 159
     a12:	9f 4f       	sbci	r25, 0xFF	; 255
     a14:	9e 01       	movw	r18, r28
     a16:	23 5a       	subi	r18, 0xA3	; 163
     a18:	3f 4f       	sbci	r19, 0xFF	; 255
     a1a:	f9 01       	movw	r30, r18
     a1c:	20 81       	ld	r18, Z
     a1e:	31 81       	ldd	r19, Z+1	; 0x01
     a20:	fc 01       	movw	r30, r24
     a22:	31 83       	std	Z+1, r19	; 0x01
     a24:	20 83       	st	Z, r18
     a26:	ce 01       	movw	r24, r28
     a28:	8f 59       	subi	r24, 0x9F	; 159
     a2a:	9f 4f       	sbci	r25, 0xFF	; 255
     a2c:	fc 01       	movw	r30, r24
     a2e:	80 81       	ld	r24, Z
     a30:	91 81       	ldd	r25, Z+1	; 0x01
     a32:	01 97       	sbiw	r24, 0x01	; 1
     a34:	f1 f7       	brne	.-4      	; 0xa32 <__LOCK_REGION_LENGTH__+0x632>
     a36:	9e 01       	movw	r18, r28
     a38:	2f 59       	subi	r18, 0x9F	; 159
     a3a:	3f 4f       	sbci	r19, 0xFF	; 255
     a3c:	f9 01       	movw	r30, r18
     a3e:	91 83       	std	Z+1, r25	; 0x01
     a40:	80 83       	st	Z, r24
     a42:	88 e2       	ldi	r24, 0x28	; 40
     a44:	90 e0       	ldi	r25, 0x00	; 0
     a46:	28 e2       	ldi	r18, 0x28	; 40
     a48:	30 e0       	ldi	r19, 0x00	; 0
     a4a:	f9 01       	movw	r30, r18
     a4c:	20 81       	ld	r18, Z
     a4e:	2e 7f       	andi	r18, 0xFE	; 254
     a50:	fc 01       	movw	r30, r24
     a52:	20 83       	st	Z, r18
     a54:	88 e2       	ldi	r24, 0x28	; 40
     a56:	90 e0       	ldi	r25, 0x00	; 0
     a58:	28 e2       	ldi	r18, 0x28	; 40
     a5a:	30 e0       	ldi	r19, 0x00	; 0
     a5c:	f9 01       	movw	r30, r18
     a5e:	20 81       	ld	r18, Z
     a60:	2d 7f       	andi	r18, 0xFD	; 253
     a62:	fc 01       	movw	r30, r24
     a64:	20 83       	st	Z, r18
     a66:	88 e2       	ldi	r24, 0x28	; 40
     a68:	90 e0       	ldi	r25, 0x00	; 0
     a6a:	20 e2       	ldi	r18, 0x20	; 32
     a6c:	fc 01       	movw	r30, r24
     a6e:	20 83       	st	Z, r18
     a70:	88 e2       	ldi	r24, 0x28	; 40
     a72:	90 e0       	ldi	r25, 0x00	; 0
     a74:	28 e2       	ldi	r18, 0x28	; 40
     a76:	30 e0       	ldi	r19, 0x00	; 0
     a78:	f9 01       	movw	r30, r18
     a7a:	20 81       	ld	r18, Z
     a7c:	24 60       	ori	r18, 0x04	; 4
     a7e:	fc 01       	movw	r30, r24
     a80:	20 83       	st	Z, r18
     a82:	9e 01       	movw	r18, r28
     a84:	2d 59       	subi	r18, 0x9D	; 157
     a86:	3f 4f       	sbci	r19, 0xFF	; 255
     a88:	80 e0       	ldi	r24, 0x00	; 0
     a8a:	90 e0       	ldi	r25, 0x00	; 0
     a8c:	a0 ea       	ldi	r26, 0xA0	; 160
     a8e:	b0 e4       	ldi	r27, 0x40	; 64
     a90:	f9 01       	movw	r30, r18
     a92:	80 83       	st	Z, r24
     a94:	91 83       	std	Z+1, r25	; 0x01
     a96:	a2 83       	std	Z+2, r26	; 0x02
     a98:	b3 83       	std	Z+3, r27	; 0x03
     a9a:	8e 01       	movw	r16, r28
     a9c:	09 59       	subi	r16, 0x99	; 153
     a9e:	1f 4f       	sbci	r17, 0xFF	; 255
     aa0:	ce 01       	movw	r24, r28
     aa2:	8d 59       	subi	r24, 0x9D	; 157
     aa4:	9f 4f       	sbci	r25, 0xFF	; 255
     aa6:	26 e6       	ldi	r18, 0x66	; 102
     aa8:	36 e6       	ldi	r19, 0x66	; 102
     aaa:	46 e6       	ldi	r20, 0x66	; 102
     aac:	55 e4       	ldi	r21, 0x45	; 69
     aae:	fc 01       	movw	r30, r24
     ab0:	60 81       	ld	r22, Z
     ab2:	71 81       	ldd	r23, Z+1	; 0x01
     ab4:	82 81       	ldd	r24, Z+2	; 0x02
     ab6:	93 81       	ldd	r25, Z+3	; 0x03
     ab8:	0e 94 c2 28 	call	0x5184	; 0x5184 <__mulsf3>
     abc:	dc 01       	movw	r26, r24
     abe:	cb 01       	movw	r24, r22
     ac0:	f8 01       	movw	r30, r16
     ac2:	80 83       	st	Z, r24
     ac4:	91 83       	std	Z+1, r25	; 0x01
     ac6:	a2 83       	std	Z+2, r26	; 0x02
     ac8:	b3 83       	std	Z+3, r27	; 0x03
     aca:	ce 01       	movw	r24, r28
     acc:	89 59       	subi	r24, 0x99	; 153
     ace:	9f 4f       	sbci	r25, 0xFF	; 255
     ad0:	20 e0       	ldi	r18, 0x00	; 0
     ad2:	30 e0       	ldi	r19, 0x00	; 0
     ad4:	40 e8       	ldi	r20, 0x80	; 128
     ad6:	5f e3       	ldi	r21, 0x3F	; 63
     ad8:	fc 01       	movw	r30, r24
     ada:	60 81       	ld	r22, Z
     adc:	71 81       	ldd	r23, Z+1	; 0x01
     ade:	82 81       	ldd	r24, Z+2	; 0x02
     ae0:	93 81       	ldd	r25, Z+3	; 0x03
     ae2:	0e 94 74 27 	call	0x4ee8	; 0x4ee8 <__cmpsf2>
     ae6:	88 23       	and	r24, r24
     ae8:	4c f4       	brge	.+18     	; 0xafc <__LOCK_REGION_LENGTH__+0x6fc>
     aea:	ce 01       	movw	r24, r28
     aec:	85 59       	subi	r24, 0x95	; 149
     aee:	9f 4f       	sbci	r25, 0xFF	; 255
     af0:	21 e0       	ldi	r18, 0x01	; 1
     af2:	30 e0       	ldi	r19, 0x00	; 0
     af4:	fc 01       	movw	r30, r24
     af6:	31 83       	std	Z+1, r19	; 0x01
     af8:	20 83       	st	Z, r18
     afa:	6d c0       	rjmp	.+218    	; 0xbd6 <__LOCK_REGION_LENGTH__+0x7d6>
     afc:	ce 01       	movw	r24, r28
     afe:	89 59       	subi	r24, 0x99	; 153
     b00:	9f 4f       	sbci	r25, 0xFF	; 255
     b02:	20 e0       	ldi	r18, 0x00	; 0
     b04:	3f ef       	ldi	r19, 0xFF	; 255
     b06:	4f e7       	ldi	r20, 0x7F	; 127
     b08:	57 e4       	ldi	r21, 0x47	; 71
     b0a:	fc 01       	movw	r30, r24
     b0c:	60 81       	ld	r22, Z
     b0e:	71 81       	ldd	r23, Z+1	; 0x01
     b10:	82 81       	ldd	r24, Z+2	; 0x02
     b12:	93 81       	ldd	r25, Z+3	; 0x03
     b14:	0e 94 be 28 	call	0x517c	; 0x517c <__gesf2>
     b18:	18 16       	cp	r1, r24
     b1a:	0c f0       	brlt	.+2      	; 0xb1e <__LOCK_REGION_LENGTH__+0x71e>
     b1c:	4a c0       	rjmp	.+148    	; 0xbb2 <__LOCK_REGION_LENGTH__+0x7b2>
     b1e:	ce 01       	movw	r24, r28
     b20:	8d 59       	subi	r24, 0x9D	; 157
     b22:	9f 4f       	sbci	r25, 0xFF	; 255
     b24:	20 e0       	ldi	r18, 0x00	; 0
     b26:	30 e0       	ldi	r19, 0x00	; 0
     b28:	40 e2       	ldi	r20, 0x20	; 32
     b2a:	51 e4       	ldi	r21, 0x41	; 65
     b2c:	fc 01       	movw	r30, r24
     b2e:	60 81       	ld	r22, Z
     b30:	71 81       	ldd	r23, Z+1	; 0x01
     b32:	82 81       	ldd	r24, Z+2	; 0x02
     b34:	93 81       	ldd	r25, Z+3	; 0x03
     b36:	0e 94 c2 28 	call	0x5184	; 0x5184 <__mulsf3>
     b3a:	dc 01       	movw	r26, r24
     b3c:	cb 01       	movw	r24, r22
     b3e:	8e 01       	movw	r16, r28
     b40:	05 59       	subi	r16, 0x95	; 149
     b42:	1f 4f       	sbci	r17, 0xFF	; 255
     b44:	bc 01       	movw	r22, r24
     b46:	cd 01       	movw	r24, r26
     b48:	0e 94 e0 27 	call	0x4fc0	; 0x4fc0 <__fixunssfsi>
     b4c:	dc 01       	movw	r26, r24
     b4e:	cb 01       	movw	r24, r22
     b50:	f8 01       	movw	r30, r16
     b52:	91 83       	std	Z+1, r25	; 0x01
     b54:	80 83       	st	Z, r24
     b56:	24 c0       	rjmp	.+72     	; 0xba0 <__LOCK_REGION_LENGTH__+0x7a0>
     b58:	ce 01       	movw	r24, r28
     b5a:	83 59       	subi	r24, 0x93	; 147
     b5c:	9f 4f       	sbci	r25, 0xFF	; 255
     b5e:	20 e7       	ldi	r18, 0x70	; 112
     b60:	31 e0       	ldi	r19, 0x01	; 1
     b62:	fc 01       	movw	r30, r24
     b64:	31 83       	std	Z+1, r19	; 0x01
     b66:	20 83       	st	Z, r18
     b68:	ce 01       	movw	r24, r28
     b6a:	83 59       	subi	r24, 0x93	; 147
     b6c:	9f 4f       	sbci	r25, 0xFF	; 255
     b6e:	fc 01       	movw	r30, r24
     b70:	80 81       	ld	r24, Z
     b72:	91 81       	ldd	r25, Z+1	; 0x01
     b74:	01 97       	sbiw	r24, 0x01	; 1
     b76:	f1 f7       	brne	.-4      	; 0xb74 <__LOCK_REGION_LENGTH__+0x774>
     b78:	9e 01       	movw	r18, r28
     b7a:	23 59       	subi	r18, 0x93	; 147
     b7c:	3f 4f       	sbci	r19, 0xFF	; 255
     b7e:	f9 01       	movw	r30, r18
     b80:	91 83       	std	Z+1, r25	; 0x01
     b82:	80 83       	st	Z, r24
     b84:	ce 01       	movw	r24, r28
     b86:	85 59       	subi	r24, 0x95	; 149
     b88:	9f 4f       	sbci	r25, 0xFF	; 255
     b8a:	9e 01       	movw	r18, r28
     b8c:	25 59       	subi	r18, 0x95	; 149
     b8e:	3f 4f       	sbci	r19, 0xFF	; 255
     b90:	f9 01       	movw	r30, r18
     b92:	20 81       	ld	r18, Z
     b94:	31 81       	ldd	r19, Z+1	; 0x01
     b96:	21 50       	subi	r18, 0x01	; 1
     b98:	31 09       	sbc	r19, r1
     b9a:	fc 01       	movw	r30, r24
     b9c:	31 83       	std	Z+1, r19	; 0x01
     b9e:	20 83       	st	Z, r18
     ba0:	ce 01       	movw	r24, r28
     ba2:	85 59       	subi	r24, 0x95	; 149
     ba4:	9f 4f       	sbci	r25, 0xFF	; 255
     ba6:	fc 01       	movw	r30, r24
     ba8:	80 81       	ld	r24, Z
     baa:	91 81       	ldd	r25, Z+1	; 0x01
     bac:	89 2b       	or	r24, r25
     bae:	a1 f6       	brne	.-88     	; 0xb58 <__LOCK_REGION_LENGTH__+0x758>
     bb0:	2c c0       	rjmp	.+88     	; 0xc0a <__LOCK_REGION_LENGTH__+0x80a>
     bb2:	8e 01       	movw	r16, r28
     bb4:	05 59       	subi	r16, 0x95	; 149
     bb6:	1f 4f       	sbci	r17, 0xFF	; 255
     bb8:	ce 01       	movw	r24, r28
     bba:	89 59       	subi	r24, 0x99	; 153
     bbc:	9f 4f       	sbci	r25, 0xFF	; 255
     bbe:	fc 01       	movw	r30, r24
     bc0:	60 81       	ld	r22, Z
     bc2:	71 81       	ldd	r23, Z+1	; 0x01
     bc4:	82 81       	ldd	r24, Z+2	; 0x02
     bc6:	93 81       	ldd	r25, Z+3	; 0x03
     bc8:	0e 94 e0 27 	call	0x4fc0	; 0x4fc0 <__fixunssfsi>
     bcc:	dc 01       	movw	r26, r24
     bce:	cb 01       	movw	r24, r22
     bd0:	f8 01       	movw	r30, r16
     bd2:	91 83       	std	Z+1, r25	; 0x01
     bd4:	80 83       	st	Z, r24
     bd6:	ce 01       	movw	r24, r28
     bd8:	81 59       	subi	r24, 0x91	; 145
     bda:	9f 4f       	sbci	r25, 0xFF	; 255
     bdc:	9e 01       	movw	r18, r28
     bde:	25 59       	subi	r18, 0x95	; 149
     be0:	3f 4f       	sbci	r19, 0xFF	; 255
     be2:	f9 01       	movw	r30, r18
     be4:	20 81       	ld	r18, Z
     be6:	31 81       	ldd	r19, Z+1	; 0x01
     be8:	fc 01       	movw	r30, r24
     bea:	31 83       	std	Z+1, r19	; 0x01
     bec:	20 83       	st	Z, r18
     bee:	ce 01       	movw	r24, r28
     bf0:	81 59       	subi	r24, 0x91	; 145
     bf2:	9f 4f       	sbci	r25, 0xFF	; 255
     bf4:	fc 01       	movw	r30, r24
     bf6:	80 81       	ld	r24, Z
     bf8:	91 81       	ldd	r25, Z+1	; 0x01
     bfa:	01 97       	sbiw	r24, 0x01	; 1
     bfc:	f1 f7       	brne	.-4      	; 0xbfa <__LOCK_REGION_LENGTH__+0x7fa>
     bfe:	9e 01       	movw	r18, r28
     c00:	21 59       	subi	r18, 0x91	; 145
     c02:	3f 4f       	sbci	r19, 0xFF	; 255
     c04:	f9 01       	movw	r30, r18
     c06:	91 83       	std	Z+1, r25	; 0x01
     c08:	80 83       	st	Z, r24
     c0a:	88 e2       	ldi	r24, 0x28	; 40
     c0c:	90 e0       	ldi	r25, 0x00	; 0
     c0e:	28 e2       	ldi	r18, 0x28	; 40
     c10:	30 e0       	ldi	r19, 0x00	; 0
     c12:	f9 01       	movw	r30, r18
     c14:	20 81       	ld	r18, Z
     c16:	2b 7f       	andi	r18, 0xFB	; 251
     c18:	fc 01       	movw	r30, r24
     c1a:	20 83       	st	Z, r18
     c1c:	c0 59       	subi	r28, 0x90	; 144
     c1e:	df 4f       	sbci	r29, 0xFF	; 255
     c20:	0f b6       	in	r0, 0x3f	; 63
     c22:	f8 94       	cli
     c24:	de bf       	out	0x3e, r29	; 62
     c26:	0f be       	out	0x3f, r0	; 63
     c28:	cd bf       	out	0x3d, r28	; 61
     c2a:	df 91       	pop	r29
     c2c:	cf 91       	pop	r28
     c2e:	1f 91       	pop	r17
     c30:	0f 91       	pop	r16
     c32:	08 95       	ret

00000c34 <lcd_init>:
     c34:	cf 93       	push	r28
     c36:	df 93       	push	r29
     c38:	cd b7       	in	r28, 0x3d	; 61
     c3a:	de b7       	in	r29, 0x3e	; 62
     c3c:	2e 97       	sbiw	r28, 0x0e	; 14
     c3e:	0f b6       	in	r0, 0x3f	; 63
     c40:	f8 94       	cli
     c42:	de bf       	out	0x3e, r29	; 62
     c44:	0f be       	out	0x3f, r0	; 63
     c46:	cd bf       	out	0x3d, r28	; 61
     c48:	6f da       	rcall	.-2850   	; 0x128 <lcd_set_4bit>
     c4a:	80 e0       	ldi	r24, 0x00	; 0
     c4c:	90 e0       	ldi	r25, 0x00	; 0
     c4e:	a0 e8       	ldi	r26, 0x80	; 128
     c50:	bf e3       	ldi	r27, 0x3F	; 63
     c52:	89 83       	std	Y+1, r24	; 0x01
     c54:	9a 83       	std	Y+2, r25	; 0x02
     c56:	ab 83       	std	Y+3, r26	; 0x03
     c58:	bc 83       	std	Y+4, r27	; 0x04
     c5a:	26 e6       	ldi	r18, 0x66	; 102
     c5c:	36 e6       	ldi	r19, 0x66	; 102
     c5e:	46 e6       	ldi	r20, 0x66	; 102
     c60:	55 e4       	ldi	r21, 0x45	; 69
     c62:	69 81       	ldd	r22, Y+1	; 0x01
     c64:	7a 81       	ldd	r23, Y+2	; 0x02
     c66:	8b 81       	ldd	r24, Y+3	; 0x03
     c68:	9c 81       	ldd	r25, Y+4	; 0x04
     c6a:	0e 94 c2 28 	call	0x5184	; 0x5184 <__mulsf3>
     c6e:	dc 01       	movw	r26, r24
     c70:	cb 01       	movw	r24, r22
     c72:	8d 83       	std	Y+5, r24	; 0x05
     c74:	9e 83       	std	Y+6, r25	; 0x06
     c76:	af 83       	std	Y+7, r26	; 0x07
     c78:	b8 87       	std	Y+8, r27	; 0x08
     c7a:	20 e0       	ldi	r18, 0x00	; 0
     c7c:	30 e0       	ldi	r19, 0x00	; 0
     c7e:	40 e8       	ldi	r20, 0x80	; 128
     c80:	5f e3       	ldi	r21, 0x3F	; 63
     c82:	6d 81       	ldd	r22, Y+5	; 0x05
     c84:	7e 81       	ldd	r23, Y+6	; 0x06
     c86:	8f 81       	ldd	r24, Y+7	; 0x07
     c88:	98 85       	ldd	r25, Y+8	; 0x08
     c8a:	0e 94 74 27 	call	0x4ee8	; 0x4ee8 <__cmpsf2>
     c8e:	88 23       	and	r24, r24
     c90:	2c f4       	brge	.+10     	; 0xc9c <lcd_init+0x68>
     c92:	81 e0       	ldi	r24, 0x01	; 1
     c94:	90 e0       	ldi	r25, 0x00	; 0
     c96:	9a 87       	std	Y+10, r25	; 0x0a
     c98:	89 87       	std	Y+9, r24	; 0x09
     c9a:	3f c0       	rjmp	.+126    	; 0xd1a <lcd_init+0xe6>
     c9c:	20 e0       	ldi	r18, 0x00	; 0
     c9e:	3f ef       	ldi	r19, 0xFF	; 255
     ca0:	4f e7       	ldi	r20, 0x7F	; 127
     ca2:	57 e4       	ldi	r21, 0x47	; 71
     ca4:	6d 81       	ldd	r22, Y+5	; 0x05
     ca6:	7e 81       	ldd	r23, Y+6	; 0x06
     ca8:	8f 81       	ldd	r24, Y+7	; 0x07
     caa:	98 85       	ldd	r25, Y+8	; 0x08
     cac:	0e 94 be 28 	call	0x517c	; 0x517c <__gesf2>
     cb0:	18 16       	cp	r1, r24
     cb2:	4c f5       	brge	.+82     	; 0xd06 <lcd_init+0xd2>
     cb4:	20 e0       	ldi	r18, 0x00	; 0
     cb6:	30 e0       	ldi	r19, 0x00	; 0
     cb8:	40 e2       	ldi	r20, 0x20	; 32
     cba:	51 e4       	ldi	r21, 0x41	; 65
     cbc:	69 81       	ldd	r22, Y+1	; 0x01
     cbe:	7a 81       	ldd	r23, Y+2	; 0x02
     cc0:	8b 81       	ldd	r24, Y+3	; 0x03
     cc2:	9c 81       	ldd	r25, Y+4	; 0x04
     cc4:	0e 94 c2 28 	call	0x5184	; 0x5184 <__mulsf3>
     cc8:	dc 01       	movw	r26, r24
     cca:	cb 01       	movw	r24, r22
     ccc:	bc 01       	movw	r22, r24
     cce:	cd 01       	movw	r24, r26
     cd0:	0e 94 e0 27 	call	0x4fc0	; 0x4fc0 <__fixunssfsi>
     cd4:	dc 01       	movw	r26, r24
     cd6:	cb 01       	movw	r24, r22
     cd8:	9a 87       	std	Y+10, r25	; 0x0a
     cda:	89 87       	std	Y+9, r24	; 0x09
     cdc:	0f c0       	rjmp	.+30     	; 0xcfc <lcd_init+0xc8>
     cde:	80 e7       	ldi	r24, 0x70	; 112
     ce0:	91 e0       	ldi	r25, 0x01	; 1
     ce2:	9c 87       	std	Y+12, r25	; 0x0c
     ce4:	8b 87       	std	Y+11, r24	; 0x0b
     ce6:	8b 85       	ldd	r24, Y+11	; 0x0b
     ce8:	9c 85       	ldd	r25, Y+12	; 0x0c
     cea:	01 97       	sbiw	r24, 0x01	; 1
     cec:	f1 f7       	brne	.-4      	; 0xcea <lcd_init+0xb6>
     cee:	9c 87       	std	Y+12, r25	; 0x0c
     cf0:	8b 87       	std	Y+11, r24	; 0x0b
     cf2:	89 85       	ldd	r24, Y+9	; 0x09
     cf4:	9a 85       	ldd	r25, Y+10	; 0x0a
     cf6:	01 97       	sbiw	r24, 0x01	; 1
     cf8:	9a 87       	std	Y+10, r25	; 0x0a
     cfa:	89 87       	std	Y+9, r24	; 0x09
     cfc:	89 85       	ldd	r24, Y+9	; 0x09
     cfe:	9a 85       	ldd	r25, Y+10	; 0x0a
     d00:	89 2b       	or	r24, r25
     d02:	69 f7       	brne	.-38     	; 0xcde <lcd_init+0xaa>
     d04:	14 c0       	rjmp	.+40     	; 0xd2e <lcd_init+0xfa>
     d06:	6d 81       	ldd	r22, Y+5	; 0x05
     d08:	7e 81       	ldd	r23, Y+6	; 0x06
     d0a:	8f 81       	ldd	r24, Y+7	; 0x07
     d0c:	98 85       	ldd	r25, Y+8	; 0x08
     d0e:	0e 94 e0 27 	call	0x4fc0	; 0x4fc0 <__fixunssfsi>
     d12:	dc 01       	movw	r26, r24
     d14:	cb 01       	movw	r24, r22
     d16:	9a 87       	std	Y+10, r25	; 0x0a
     d18:	89 87       	std	Y+9, r24	; 0x09
     d1a:	89 85       	ldd	r24, Y+9	; 0x09
     d1c:	9a 85       	ldd	r25, Y+10	; 0x0a
     d1e:	9e 87       	std	Y+14, r25	; 0x0e
     d20:	8d 87       	std	Y+13, r24	; 0x0d
     d22:	8d 85       	ldd	r24, Y+13	; 0x0d
     d24:	9e 85       	ldd	r25, Y+14	; 0x0e
     d26:	01 97       	sbiw	r24, 0x01	; 1
     d28:	f1 f7       	brne	.-4      	; 0xd26 <lcd_init+0xf2>
     d2a:	9e 87       	std	Y+14, r25	; 0x0e
     d2c:	8d 87       	std	Y+13, r24	; 0x0d
     d2e:	88 e2       	ldi	r24, 0x28	; 40
     d30:	11 d0       	rcall	.+34     	; 0xd54 <lcd_wr_command>
     d32:	81 e0       	ldi	r24, 0x01	; 1
     d34:	0f d0       	rcall	.+30     	; 0xd54 <lcd_wr_command>
     d36:	86 e0       	ldi	r24, 0x06	; 6
     d38:	0d d0       	rcall	.+26     	; 0xd54 <lcd_wr_command>
     d3a:	8e e0       	ldi	r24, 0x0E	; 14
     d3c:	0b d0       	rcall	.+22     	; 0xd54 <lcd_wr_command>
     d3e:	80 e8       	ldi	r24, 0x80	; 128
     d40:	09 d0       	rcall	.+18     	; 0xd54 <lcd_wr_command>
     d42:	2e 96       	adiw	r28, 0x0e	; 14
     d44:	0f b6       	in	r0, 0x3f	; 63
     d46:	f8 94       	cli
     d48:	de bf       	out	0x3e, r29	; 62
     d4a:	0f be       	out	0x3f, r0	; 63
     d4c:	cd bf       	out	0x3d, r28	; 61
     d4e:	df 91       	pop	r29
     d50:	cf 91       	pop	r28
     d52:	08 95       	ret

00000d54 <lcd_wr_command>:
     d54:	cf 93       	push	r28
     d56:	df 93       	push	r29
     d58:	cd b7       	in	r28, 0x3d	; 61
     d5a:	de b7       	in	r29, 0x3e	; 62
     d5c:	6e 97       	sbiw	r28, 0x1e	; 30
     d5e:	0f b6       	in	r0, 0x3f	; 63
     d60:	f8 94       	cli
     d62:	de bf       	out	0x3e, r29	; 62
     d64:	0f be       	out	0x3f, r0	; 63
     d66:	cd bf       	out	0x3d, r28	; 61
     d68:	8e 8f       	std	Y+30, r24	; 0x1e
     d6a:	8e 8d       	ldd	r24, Y+30	; 0x1e
     d6c:	89 83       	std	Y+1, r24	; 0x01
     d6e:	89 81       	ldd	r24, Y+1	; 0x01
     d70:	80 7f       	andi	r24, 0xF0	; 240
     d72:	89 83       	std	Y+1, r24	; 0x01
     d74:	88 e2       	ldi	r24, 0x28	; 40
     d76:	90 e0       	ldi	r25, 0x00	; 0
     d78:	28 e2       	ldi	r18, 0x28	; 40
     d7a:	30 e0       	ldi	r19, 0x00	; 0
     d7c:	f9 01       	movw	r30, r18
     d7e:	20 81       	ld	r18, Z
     d80:	2f 70       	andi	r18, 0x0F	; 15
     d82:	fc 01       	movw	r30, r24
     d84:	20 83       	st	Z, r18
     d86:	88 e2       	ldi	r24, 0x28	; 40
     d88:	90 e0       	ldi	r25, 0x00	; 0
     d8a:	28 e2       	ldi	r18, 0x28	; 40
     d8c:	30 e0       	ldi	r19, 0x00	; 0
     d8e:	f9 01       	movw	r30, r18
     d90:	30 81       	ld	r19, Z
     d92:	29 81       	ldd	r18, Y+1	; 0x01
     d94:	23 2b       	or	r18, r19
     d96:	fc 01       	movw	r30, r24
     d98:	20 83       	st	Z, r18
     d9a:	88 e2       	ldi	r24, 0x28	; 40
     d9c:	90 e0       	ldi	r25, 0x00	; 0
     d9e:	28 e2       	ldi	r18, 0x28	; 40
     da0:	30 e0       	ldi	r19, 0x00	; 0
     da2:	f9 01       	movw	r30, r18
     da4:	20 81       	ld	r18, Z
     da6:	2e 7f       	andi	r18, 0xFE	; 254
     da8:	fc 01       	movw	r30, r24
     daa:	20 83       	st	Z, r18
     dac:	88 e2       	ldi	r24, 0x28	; 40
     dae:	90 e0       	ldi	r25, 0x00	; 0
     db0:	28 e2       	ldi	r18, 0x28	; 40
     db2:	30 e0       	ldi	r19, 0x00	; 0
     db4:	f9 01       	movw	r30, r18
     db6:	20 81       	ld	r18, Z
     db8:	2d 7f       	andi	r18, 0xFD	; 253
     dba:	fc 01       	movw	r30, r24
     dbc:	20 83       	st	Z, r18
     dbe:	88 e2       	ldi	r24, 0x28	; 40
     dc0:	90 e0       	ldi	r25, 0x00	; 0
     dc2:	28 e2       	ldi	r18, 0x28	; 40
     dc4:	30 e0       	ldi	r19, 0x00	; 0
     dc6:	f9 01       	movw	r30, r18
     dc8:	20 81       	ld	r18, Z
     dca:	24 60       	ori	r18, 0x04	; 4
     dcc:	fc 01       	movw	r30, r24
     dce:	20 83       	st	Z, r18
     dd0:	80 e0       	ldi	r24, 0x00	; 0
     dd2:	90 e0       	ldi	r25, 0x00	; 0
     dd4:	a0 ea       	ldi	r26, 0xA0	; 160
     dd6:	b0 e4       	ldi	r27, 0x40	; 64
     dd8:	8a 83       	std	Y+2, r24	; 0x02
     dda:	9b 83       	std	Y+3, r25	; 0x03
     ddc:	ac 83       	std	Y+4, r26	; 0x04
     dde:	bd 83       	std	Y+5, r27	; 0x05
     de0:	26 e6       	ldi	r18, 0x66	; 102
     de2:	36 e6       	ldi	r19, 0x66	; 102
     de4:	46 e6       	ldi	r20, 0x66	; 102
     de6:	55 e4       	ldi	r21, 0x45	; 69
     de8:	6a 81       	ldd	r22, Y+2	; 0x02
     dea:	7b 81       	ldd	r23, Y+3	; 0x03
     dec:	8c 81       	ldd	r24, Y+4	; 0x04
     dee:	9d 81       	ldd	r25, Y+5	; 0x05
     df0:	0e 94 c2 28 	call	0x5184	; 0x5184 <__mulsf3>
     df4:	dc 01       	movw	r26, r24
     df6:	cb 01       	movw	r24, r22
     df8:	8e 83       	std	Y+6, r24	; 0x06
     dfa:	9f 83       	std	Y+7, r25	; 0x07
     dfc:	a8 87       	std	Y+8, r26	; 0x08
     dfe:	b9 87       	std	Y+9, r27	; 0x09
     e00:	20 e0       	ldi	r18, 0x00	; 0
     e02:	30 e0       	ldi	r19, 0x00	; 0
     e04:	40 e8       	ldi	r20, 0x80	; 128
     e06:	5f e3       	ldi	r21, 0x3F	; 63
     e08:	6e 81       	ldd	r22, Y+6	; 0x06
     e0a:	7f 81       	ldd	r23, Y+7	; 0x07
     e0c:	88 85       	ldd	r24, Y+8	; 0x08
     e0e:	99 85       	ldd	r25, Y+9	; 0x09
     e10:	0e 94 74 27 	call	0x4ee8	; 0x4ee8 <__cmpsf2>
     e14:	88 23       	and	r24, r24
     e16:	2c f4       	brge	.+10     	; 0xe22 <lcd_wr_command+0xce>
     e18:	81 e0       	ldi	r24, 0x01	; 1
     e1a:	90 e0       	ldi	r25, 0x00	; 0
     e1c:	9b 87       	std	Y+11, r25	; 0x0b
     e1e:	8a 87       	std	Y+10, r24	; 0x0a
     e20:	3f c0       	rjmp	.+126    	; 0xea0 <lcd_wr_command+0x14c>
     e22:	20 e0       	ldi	r18, 0x00	; 0
     e24:	3f ef       	ldi	r19, 0xFF	; 255
     e26:	4f e7       	ldi	r20, 0x7F	; 127
     e28:	57 e4       	ldi	r21, 0x47	; 71
     e2a:	6e 81       	ldd	r22, Y+6	; 0x06
     e2c:	7f 81       	ldd	r23, Y+7	; 0x07
     e2e:	88 85       	ldd	r24, Y+8	; 0x08
     e30:	99 85       	ldd	r25, Y+9	; 0x09
     e32:	0e 94 be 28 	call	0x517c	; 0x517c <__gesf2>
     e36:	18 16       	cp	r1, r24
     e38:	4c f5       	brge	.+82     	; 0xe8c <lcd_wr_command+0x138>
     e3a:	20 e0       	ldi	r18, 0x00	; 0
     e3c:	30 e0       	ldi	r19, 0x00	; 0
     e3e:	40 e2       	ldi	r20, 0x20	; 32
     e40:	51 e4       	ldi	r21, 0x41	; 65
     e42:	6a 81       	ldd	r22, Y+2	; 0x02
     e44:	7b 81       	ldd	r23, Y+3	; 0x03
     e46:	8c 81       	ldd	r24, Y+4	; 0x04
     e48:	9d 81       	ldd	r25, Y+5	; 0x05
     e4a:	0e 94 c2 28 	call	0x5184	; 0x5184 <__mulsf3>
     e4e:	dc 01       	movw	r26, r24
     e50:	cb 01       	movw	r24, r22
     e52:	bc 01       	movw	r22, r24
     e54:	cd 01       	movw	r24, r26
     e56:	0e 94 e0 27 	call	0x4fc0	; 0x4fc0 <__fixunssfsi>
     e5a:	dc 01       	movw	r26, r24
     e5c:	cb 01       	movw	r24, r22
     e5e:	9b 87       	std	Y+11, r25	; 0x0b
     e60:	8a 87       	std	Y+10, r24	; 0x0a
     e62:	0f c0       	rjmp	.+30     	; 0xe82 <lcd_wr_command+0x12e>
     e64:	80 e7       	ldi	r24, 0x70	; 112
     e66:	91 e0       	ldi	r25, 0x01	; 1
     e68:	9d 87       	std	Y+13, r25	; 0x0d
     e6a:	8c 87       	std	Y+12, r24	; 0x0c
     e6c:	8c 85       	ldd	r24, Y+12	; 0x0c
     e6e:	9d 85       	ldd	r25, Y+13	; 0x0d
     e70:	01 97       	sbiw	r24, 0x01	; 1
     e72:	f1 f7       	brne	.-4      	; 0xe70 <lcd_wr_command+0x11c>
     e74:	9d 87       	std	Y+13, r25	; 0x0d
     e76:	8c 87       	std	Y+12, r24	; 0x0c
     e78:	8a 85       	ldd	r24, Y+10	; 0x0a
     e7a:	9b 85       	ldd	r25, Y+11	; 0x0b
     e7c:	01 97       	sbiw	r24, 0x01	; 1
     e7e:	9b 87       	std	Y+11, r25	; 0x0b
     e80:	8a 87       	std	Y+10, r24	; 0x0a
     e82:	8a 85       	ldd	r24, Y+10	; 0x0a
     e84:	9b 85       	ldd	r25, Y+11	; 0x0b
     e86:	89 2b       	or	r24, r25
     e88:	69 f7       	brne	.-38     	; 0xe64 <lcd_wr_command+0x110>
     e8a:	14 c0       	rjmp	.+40     	; 0xeb4 <lcd_wr_command+0x160>
     e8c:	6e 81       	ldd	r22, Y+6	; 0x06
     e8e:	7f 81       	ldd	r23, Y+7	; 0x07
     e90:	88 85       	ldd	r24, Y+8	; 0x08
     e92:	99 85       	ldd	r25, Y+9	; 0x09
     e94:	0e 94 e0 27 	call	0x4fc0	; 0x4fc0 <__fixunssfsi>
     e98:	dc 01       	movw	r26, r24
     e9a:	cb 01       	movw	r24, r22
     e9c:	9b 87       	std	Y+11, r25	; 0x0b
     e9e:	8a 87       	std	Y+10, r24	; 0x0a
     ea0:	8a 85       	ldd	r24, Y+10	; 0x0a
     ea2:	9b 85       	ldd	r25, Y+11	; 0x0b
     ea4:	9f 87       	std	Y+15, r25	; 0x0f
     ea6:	8e 87       	std	Y+14, r24	; 0x0e
     ea8:	8e 85       	ldd	r24, Y+14	; 0x0e
     eaa:	9f 85       	ldd	r25, Y+15	; 0x0f
     eac:	01 97       	sbiw	r24, 0x01	; 1
     eae:	f1 f7       	brne	.-4      	; 0xeac <lcd_wr_command+0x158>
     eb0:	9f 87       	std	Y+15, r25	; 0x0f
     eb2:	8e 87       	std	Y+14, r24	; 0x0e
     eb4:	88 e2       	ldi	r24, 0x28	; 40
     eb6:	90 e0       	ldi	r25, 0x00	; 0
     eb8:	28 e2       	ldi	r18, 0x28	; 40
     eba:	30 e0       	ldi	r19, 0x00	; 0
     ebc:	f9 01       	movw	r30, r18
     ebe:	20 81       	ld	r18, Z
     ec0:	2b 7f       	andi	r18, 0xFB	; 251
     ec2:	fc 01       	movw	r30, r24
     ec4:	20 83       	st	Z, r18
     ec6:	8e 8d       	ldd	r24, Y+30	; 0x1e
     ec8:	8f 70       	andi	r24, 0x0F	; 15
     eca:	8e 8f       	std	Y+30, r24	; 0x1e
     ecc:	8e 8d       	ldd	r24, Y+30	; 0x1e
     ece:	82 95       	swap	r24
     ed0:	80 7f       	andi	r24, 0xF0	; 240
     ed2:	8e 8f       	std	Y+30, r24	; 0x1e
     ed4:	88 e2       	ldi	r24, 0x28	; 40
     ed6:	90 e0       	ldi	r25, 0x00	; 0
     ed8:	28 e2       	ldi	r18, 0x28	; 40
     eda:	30 e0       	ldi	r19, 0x00	; 0
     edc:	f9 01       	movw	r30, r18
     ede:	20 81       	ld	r18, Z
     ee0:	2f 70       	andi	r18, 0x0F	; 15
     ee2:	fc 01       	movw	r30, r24
     ee4:	20 83       	st	Z, r18
     ee6:	88 e2       	ldi	r24, 0x28	; 40
     ee8:	90 e0       	ldi	r25, 0x00	; 0
     eea:	28 e2       	ldi	r18, 0x28	; 40
     eec:	30 e0       	ldi	r19, 0x00	; 0
     eee:	f9 01       	movw	r30, r18
     ef0:	30 81       	ld	r19, Z
     ef2:	2e 8d       	ldd	r18, Y+30	; 0x1e
     ef4:	23 2b       	or	r18, r19
     ef6:	fc 01       	movw	r30, r24
     ef8:	20 83       	st	Z, r18
     efa:	88 e2       	ldi	r24, 0x28	; 40
     efc:	90 e0       	ldi	r25, 0x00	; 0
     efe:	28 e2       	ldi	r18, 0x28	; 40
     f00:	30 e0       	ldi	r19, 0x00	; 0
     f02:	f9 01       	movw	r30, r18
     f04:	20 81       	ld	r18, Z
     f06:	2e 7f       	andi	r18, 0xFE	; 254
     f08:	fc 01       	movw	r30, r24
     f0a:	20 83       	st	Z, r18
     f0c:	88 e2       	ldi	r24, 0x28	; 40
     f0e:	90 e0       	ldi	r25, 0x00	; 0
     f10:	28 e2       	ldi	r18, 0x28	; 40
     f12:	30 e0       	ldi	r19, 0x00	; 0
     f14:	f9 01       	movw	r30, r18
     f16:	20 81       	ld	r18, Z
     f18:	2d 7f       	andi	r18, 0xFD	; 253
     f1a:	fc 01       	movw	r30, r24
     f1c:	20 83       	st	Z, r18
     f1e:	88 e2       	ldi	r24, 0x28	; 40
     f20:	90 e0       	ldi	r25, 0x00	; 0
     f22:	28 e2       	ldi	r18, 0x28	; 40
     f24:	30 e0       	ldi	r19, 0x00	; 0
     f26:	f9 01       	movw	r30, r18
     f28:	20 81       	ld	r18, Z
     f2a:	24 60       	ori	r18, 0x04	; 4
     f2c:	fc 01       	movw	r30, r24
     f2e:	20 83       	st	Z, r18
     f30:	80 e0       	ldi	r24, 0x00	; 0
     f32:	90 e0       	ldi	r25, 0x00	; 0
     f34:	a0 ea       	ldi	r26, 0xA0	; 160
     f36:	b0 e4       	ldi	r27, 0x40	; 64
     f38:	88 8b       	std	Y+16, r24	; 0x10
     f3a:	99 8b       	std	Y+17, r25	; 0x11
     f3c:	aa 8b       	std	Y+18, r26	; 0x12
     f3e:	bb 8b       	std	Y+19, r27	; 0x13
     f40:	26 e6       	ldi	r18, 0x66	; 102
     f42:	36 e6       	ldi	r19, 0x66	; 102
     f44:	46 e6       	ldi	r20, 0x66	; 102
     f46:	55 e4       	ldi	r21, 0x45	; 69
     f48:	68 89       	ldd	r22, Y+16	; 0x10
     f4a:	79 89       	ldd	r23, Y+17	; 0x11
     f4c:	8a 89       	ldd	r24, Y+18	; 0x12
     f4e:	9b 89       	ldd	r25, Y+19	; 0x13
     f50:	0e 94 c2 28 	call	0x5184	; 0x5184 <__mulsf3>
     f54:	dc 01       	movw	r26, r24
     f56:	cb 01       	movw	r24, r22
     f58:	8c 8b       	std	Y+20, r24	; 0x14
     f5a:	9d 8b       	std	Y+21, r25	; 0x15
     f5c:	ae 8b       	std	Y+22, r26	; 0x16
     f5e:	bf 8b       	std	Y+23, r27	; 0x17
     f60:	20 e0       	ldi	r18, 0x00	; 0
     f62:	30 e0       	ldi	r19, 0x00	; 0
     f64:	40 e8       	ldi	r20, 0x80	; 128
     f66:	5f e3       	ldi	r21, 0x3F	; 63
     f68:	6c 89       	ldd	r22, Y+20	; 0x14
     f6a:	7d 89       	ldd	r23, Y+21	; 0x15
     f6c:	8e 89       	ldd	r24, Y+22	; 0x16
     f6e:	9f 89       	ldd	r25, Y+23	; 0x17
     f70:	0e 94 74 27 	call	0x4ee8	; 0x4ee8 <__cmpsf2>
     f74:	88 23       	and	r24, r24
     f76:	2c f4       	brge	.+10     	; 0xf82 <lcd_wr_command+0x22e>
     f78:	81 e0       	ldi	r24, 0x01	; 1
     f7a:	90 e0       	ldi	r25, 0x00	; 0
     f7c:	99 8f       	std	Y+25, r25	; 0x19
     f7e:	88 8f       	std	Y+24, r24	; 0x18
     f80:	3f c0       	rjmp	.+126    	; 0x1000 <lcd_wr_command+0x2ac>
     f82:	20 e0       	ldi	r18, 0x00	; 0
     f84:	3f ef       	ldi	r19, 0xFF	; 255
     f86:	4f e7       	ldi	r20, 0x7F	; 127
     f88:	57 e4       	ldi	r21, 0x47	; 71
     f8a:	6c 89       	ldd	r22, Y+20	; 0x14
     f8c:	7d 89       	ldd	r23, Y+21	; 0x15
     f8e:	8e 89       	ldd	r24, Y+22	; 0x16
     f90:	9f 89       	ldd	r25, Y+23	; 0x17
     f92:	0e 94 be 28 	call	0x517c	; 0x517c <__gesf2>
     f96:	18 16       	cp	r1, r24
     f98:	4c f5       	brge	.+82     	; 0xfec <lcd_wr_command+0x298>
     f9a:	20 e0       	ldi	r18, 0x00	; 0
     f9c:	30 e0       	ldi	r19, 0x00	; 0
     f9e:	40 e2       	ldi	r20, 0x20	; 32
     fa0:	51 e4       	ldi	r21, 0x41	; 65
     fa2:	68 89       	ldd	r22, Y+16	; 0x10
     fa4:	79 89       	ldd	r23, Y+17	; 0x11
     fa6:	8a 89       	ldd	r24, Y+18	; 0x12
     fa8:	9b 89       	ldd	r25, Y+19	; 0x13
     faa:	0e 94 c2 28 	call	0x5184	; 0x5184 <__mulsf3>
     fae:	dc 01       	movw	r26, r24
     fb0:	cb 01       	movw	r24, r22
     fb2:	bc 01       	movw	r22, r24
     fb4:	cd 01       	movw	r24, r26
     fb6:	0e 94 e0 27 	call	0x4fc0	; 0x4fc0 <__fixunssfsi>
     fba:	dc 01       	movw	r26, r24
     fbc:	cb 01       	movw	r24, r22
     fbe:	99 8f       	std	Y+25, r25	; 0x19
     fc0:	88 8f       	std	Y+24, r24	; 0x18
     fc2:	0f c0       	rjmp	.+30     	; 0xfe2 <lcd_wr_command+0x28e>
     fc4:	80 e7       	ldi	r24, 0x70	; 112
     fc6:	91 e0       	ldi	r25, 0x01	; 1
     fc8:	9b 8f       	std	Y+27, r25	; 0x1b
     fca:	8a 8f       	std	Y+26, r24	; 0x1a
     fcc:	8a 8d       	ldd	r24, Y+26	; 0x1a
     fce:	9b 8d       	ldd	r25, Y+27	; 0x1b
     fd0:	01 97       	sbiw	r24, 0x01	; 1
     fd2:	f1 f7       	brne	.-4      	; 0xfd0 <lcd_wr_command+0x27c>
     fd4:	9b 8f       	std	Y+27, r25	; 0x1b
     fd6:	8a 8f       	std	Y+26, r24	; 0x1a
     fd8:	88 8d       	ldd	r24, Y+24	; 0x18
     fda:	99 8d       	ldd	r25, Y+25	; 0x19
     fdc:	01 97       	sbiw	r24, 0x01	; 1
     fde:	99 8f       	std	Y+25, r25	; 0x19
     fe0:	88 8f       	std	Y+24, r24	; 0x18
     fe2:	88 8d       	ldd	r24, Y+24	; 0x18
     fe4:	99 8d       	ldd	r25, Y+25	; 0x19
     fe6:	89 2b       	or	r24, r25
     fe8:	69 f7       	brne	.-38     	; 0xfc4 <lcd_wr_command+0x270>
     fea:	14 c0       	rjmp	.+40     	; 0x1014 <lcd_wr_command+0x2c0>
     fec:	6c 89       	ldd	r22, Y+20	; 0x14
     fee:	7d 89       	ldd	r23, Y+21	; 0x15
     ff0:	8e 89       	ldd	r24, Y+22	; 0x16
     ff2:	9f 89       	ldd	r25, Y+23	; 0x17
     ff4:	0e 94 e0 27 	call	0x4fc0	; 0x4fc0 <__fixunssfsi>
     ff8:	dc 01       	movw	r26, r24
     ffa:	cb 01       	movw	r24, r22
     ffc:	99 8f       	std	Y+25, r25	; 0x19
     ffe:	88 8f       	std	Y+24, r24	; 0x18
    1000:	88 8d       	ldd	r24, Y+24	; 0x18
    1002:	99 8d       	ldd	r25, Y+25	; 0x19
    1004:	9d 8f       	std	Y+29, r25	; 0x1d
    1006:	8c 8f       	std	Y+28, r24	; 0x1c
    1008:	8c 8d       	ldd	r24, Y+28	; 0x1c
    100a:	9d 8d       	ldd	r25, Y+29	; 0x1d
    100c:	01 97       	sbiw	r24, 0x01	; 1
    100e:	f1 f7       	brne	.-4      	; 0x100c <lcd_wr_command+0x2b8>
    1010:	9d 8f       	std	Y+29, r25	; 0x1d
    1012:	8c 8f       	std	Y+28, r24	; 0x1c
    1014:	88 e2       	ldi	r24, 0x28	; 40
    1016:	90 e0       	ldi	r25, 0x00	; 0
    1018:	28 e2       	ldi	r18, 0x28	; 40
    101a:	30 e0       	ldi	r19, 0x00	; 0
    101c:	f9 01       	movw	r30, r18
    101e:	20 81       	ld	r18, Z
    1020:	2b 7f       	andi	r18, 0xFB	; 251
    1022:	fc 01       	movw	r30, r24
    1024:	20 83       	st	Z, r18
    1026:	6e 96       	adiw	r28, 0x1e	; 30
    1028:	0f b6       	in	r0, 0x3f	; 63
    102a:	f8 94       	cli
    102c:	de bf       	out	0x3e, r29	; 62
    102e:	0f be       	out	0x3f, r0	; 63
    1030:	cd bf       	out	0x3d, r28	; 61
    1032:	df 91       	pop	r29
    1034:	cf 91       	pop	r28
    1036:	08 95       	ret

00001038 <lcd_wr_char>:
    1038:	cf 93       	push	r28
    103a:	df 93       	push	r29
    103c:	cd b7       	in	r28, 0x3d	; 61
    103e:	de b7       	in	r29, 0x3e	; 62
    1040:	6e 97       	sbiw	r28, 0x1e	; 30
    1042:	0f b6       	in	r0, 0x3f	; 63
    1044:	f8 94       	cli
    1046:	de bf       	out	0x3e, r29	; 62
    1048:	0f be       	out	0x3f, r0	; 63
    104a:	cd bf       	out	0x3d, r28	; 61
    104c:	8e 8f       	std	Y+30, r24	; 0x1e
    104e:	8e 8d       	ldd	r24, Y+30	; 0x1e
    1050:	89 83       	std	Y+1, r24	; 0x01
    1052:	89 81       	ldd	r24, Y+1	; 0x01
    1054:	80 7f       	andi	r24, 0xF0	; 240
    1056:	89 83       	std	Y+1, r24	; 0x01
    1058:	88 e2       	ldi	r24, 0x28	; 40
    105a:	90 e0       	ldi	r25, 0x00	; 0
    105c:	28 e2       	ldi	r18, 0x28	; 40
    105e:	30 e0       	ldi	r19, 0x00	; 0
    1060:	f9 01       	movw	r30, r18
    1062:	20 81       	ld	r18, Z
    1064:	2f 70       	andi	r18, 0x0F	; 15
    1066:	fc 01       	movw	r30, r24
    1068:	20 83       	st	Z, r18
    106a:	88 e2       	ldi	r24, 0x28	; 40
    106c:	90 e0       	ldi	r25, 0x00	; 0
    106e:	28 e2       	ldi	r18, 0x28	; 40
    1070:	30 e0       	ldi	r19, 0x00	; 0
    1072:	f9 01       	movw	r30, r18
    1074:	30 81       	ld	r19, Z
    1076:	29 81       	ldd	r18, Y+1	; 0x01
    1078:	23 2b       	or	r18, r19
    107a:	fc 01       	movw	r30, r24
    107c:	20 83       	st	Z, r18
    107e:	88 e2       	ldi	r24, 0x28	; 40
    1080:	90 e0       	ldi	r25, 0x00	; 0
    1082:	28 e2       	ldi	r18, 0x28	; 40
    1084:	30 e0       	ldi	r19, 0x00	; 0
    1086:	f9 01       	movw	r30, r18
    1088:	20 81       	ld	r18, Z
    108a:	21 60       	ori	r18, 0x01	; 1
    108c:	fc 01       	movw	r30, r24
    108e:	20 83       	st	Z, r18
    1090:	88 e2       	ldi	r24, 0x28	; 40
    1092:	90 e0       	ldi	r25, 0x00	; 0
    1094:	28 e2       	ldi	r18, 0x28	; 40
    1096:	30 e0       	ldi	r19, 0x00	; 0
    1098:	f9 01       	movw	r30, r18
    109a:	20 81       	ld	r18, Z
    109c:	2d 7f       	andi	r18, 0xFD	; 253
    109e:	fc 01       	movw	r30, r24
    10a0:	20 83       	st	Z, r18
    10a2:	88 e2       	ldi	r24, 0x28	; 40
    10a4:	90 e0       	ldi	r25, 0x00	; 0
    10a6:	28 e2       	ldi	r18, 0x28	; 40
    10a8:	30 e0       	ldi	r19, 0x00	; 0
    10aa:	f9 01       	movw	r30, r18
    10ac:	20 81       	ld	r18, Z
    10ae:	24 60       	ori	r18, 0x04	; 4
    10b0:	fc 01       	movw	r30, r24
    10b2:	20 83       	st	Z, r18
    10b4:	80 e0       	ldi	r24, 0x00	; 0
    10b6:	90 e0       	ldi	r25, 0x00	; 0
    10b8:	a0 ea       	ldi	r26, 0xA0	; 160
    10ba:	b0 e4       	ldi	r27, 0x40	; 64
    10bc:	8a 83       	std	Y+2, r24	; 0x02
    10be:	9b 83       	std	Y+3, r25	; 0x03
    10c0:	ac 83       	std	Y+4, r26	; 0x04
    10c2:	bd 83       	std	Y+5, r27	; 0x05
    10c4:	26 e6       	ldi	r18, 0x66	; 102
    10c6:	36 e6       	ldi	r19, 0x66	; 102
    10c8:	46 e6       	ldi	r20, 0x66	; 102
    10ca:	55 e4       	ldi	r21, 0x45	; 69
    10cc:	6a 81       	ldd	r22, Y+2	; 0x02
    10ce:	7b 81       	ldd	r23, Y+3	; 0x03
    10d0:	8c 81       	ldd	r24, Y+4	; 0x04
    10d2:	9d 81       	ldd	r25, Y+5	; 0x05
    10d4:	0e 94 c2 28 	call	0x5184	; 0x5184 <__mulsf3>
    10d8:	dc 01       	movw	r26, r24
    10da:	cb 01       	movw	r24, r22
    10dc:	8e 83       	std	Y+6, r24	; 0x06
    10de:	9f 83       	std	Y+7, r25	; 0x07
    10e0:	a8 87       	std	Y+8, r26	; 0x08
    10e2:	b9 87       	std	Y+9, r27	; 0x09
    10e4:	20 e0       	ldi	r18, 0x00	; 0
    10e6:	30 e0       	ldi	r19, 0x00	; 0
    10e8:	40 e8       	ldi	r20, 0x80	; 128
    10ea:	5f e3       	ldi	r21, 0x3F	; 63
    10ec:	6e 81       	ldd	r22, Y+6	; 0x06
    10ee:	7f 81       	ldd	r23, Y+7	; 0x07
    10f0:	88 85       	ldd	r24, Y+8	; 0x08
    10f2:	99 85       	ldd	r25, Y+9	; 0x09
    10f4:	0e 94 74 27 	call	0x4ee8	; 0x4ee8 <__cmpsf2>
    10f8:	88 23       	and	r24, r24
    10fa:	2c f4       	brge	.+10     	; 0x1106 <lcd_wr_char+0xce>
    10fc:	81 e0       	ldi	r24, 0x01	; 1
    10fe:	90 e0       	ldi	r25, 0x00	; 0
    1100:	9b 87       	std	Y+11, r25	; 0x0b
    1102:	8a 87       	std	Y+10, r24	; 0x0a
    1104:	3f c0       	rjmp	.+126    	; 0x1184 <lcd_wr_char+0x14c>
    1106:	20 e0       	ldi	r18, 0x00	; 0
    1108:	3f ef       	ldi	r19, 0xFF	; 255
    110a:	4f e7       	ldi	r20, 0x7F	; 127
    110c:	57 e4       	ldi	r21, 0x47	; 71
    110e:	6e 81       	ldd	r22, Y+6	; 0x06
    1110:	7f 81       	ldd	r23, Y+7	; 0x07
    1112:	88 85       	ldd	r24, Y+8	; 0x08
    1114:	99 85       	ldd	r25, Y+9	; 0x09
    1116:	0e 94 be 28 	call	0x517c	; 0x517c <__gesf2>
    111a:	18 16       	cp	r1, r24
    111c:	4c f5       	brge	.+82     	; 0x1170 <lcd_wr_char+0x138>
    111e:	20 e0       	ldi	r18, 0x00	; 0
    1120:	30 e0       	ldi	r19, 0x00	; 0
    1122:	40 e2       	ldi	r20, 0x20	; 32
    1124:	51 e4       	ldi	r21, 0x41	; 65
    1126:	6a 81       	ldd	r22, Y+2	; 0x02
    1128:	7b 81       	ldd	r23, Y+3	; 0x03
    112a:	8c 81       	ldd	r24, Y+4	; 0x04
    112c:	9d 81       	ldd	r25, Y+5	; 0x05
    112e:	0e 94 c2 28 	call	0x5184	; 0x5184 <__mulsf3>
    1132:	dc 01       	movw	r26, r24
    1134:	cb 01       	movw	r24, r22
    1136:	bc 01       	movw	r22, r24
    1138:	cd 01       	movw	r24, r26
    113a:	0e 94 e0 27 	call	0x4fc0	; 0x4fc0 <__fixunssfsi>
    113e:	dc 01       	movw	r26, r24
    1140:	cb 01       	movw	r24, r22
    1142:	9b 87       	std	Y+11, r25	; 0x0b
    1144:	8a 87       	std	Y+10, r24	; 0x0a
    1146:	0f c0       	rjmp	.+30     	; 0x1166 <lcd_wr_char+0x12e>
    1148:	80 e7       	ldi	r24, 0x70	; 112
    114a:	91 e0       	ldi	r25, 0x01	; 1
    114c:	9d 87       	std	Y+13, r25	; 0x0d
    114e:	8c 87       	std	Y+12, r24	; 0x0c
    1150:	8c 85       	ldd	r24, Y+12	; 0x0c
    1152:	9d 85       	ldd	r25, Y+13	; 0x0d
    1154:	01 97       	sbiw	r24, 0x01	; 1
    1156:	f1 f7       	brne	.-4      	; 0x1154 <lcd_wr_char+0x11c>
    1158:	9d 87       	std	Y+13, r25	; 0x0d
    115a:	8c 87       	std	Y+12, r24	; 0x0c
    115c:	8a 85       	ldd	r24, Y+10	; 0x0a
    115e:	9b 85       	ldd	r25, Y+11	; 0x0b
    1160:	01 97       	sbiw	r24, 0x01	; 1
    1162:	9b 87       	std	Y+11, r25	; 0x0b
    1164:	8a 87       	std	Y+10, r24	; 0x0a
    1166:	8a 85       	ldd	r24, Y+10	; 0x0a
    1168:	9b 85       	ldd	r25, Y+11	; 0x0b
    116a:	89 2b       	or	r24, r25
    116c:	69 f7       	brne	.-38     	; 0x1148 <lcd_wr_char+0x110>
    116e:	14 c0       	rjmp	.+40     	; 0x1198 <lcd_wr_char+0x160>
    1170:	6e 81       	ldd	r22, Y+6	; 0x06
    1172:	7f 81       	ldd	r23, Y+7	; 0x07
    1174:	88 85       	ldd	r24, Y+8	; 0x08
    1176:	99 85       	ldd	r25, Y+9	; 0x09
    1178:	0e 94 e0 27 	call	0x4fc0	; 0x4fc0 <__fixunssfsi>
    117c:	dc 01       	movw	r26, r24
    117e:	cb 01       	movw	r24, r22
    1180:	9b 87       	std	Y+11, r25	; 0x0b
    1182:	8a 87       	std	Y+10, r24	; 0x0a
    1184:	8a 85       	ldd	r24, Y+10	; 0x0a
    1186:	9b 85       	ldd	r25, Y+11	; 0x0b
    1188:	9f 87       	std	Y+15, r25	; 0x0f
    118a:	8e 87       	std	Y+14, r24	; 0x0e
    118c:	8e 85       	ldd	r24, Y+14	; 0x0e
    118e:	9f 85       	ldd	r25, Y+15	; 0x0f
    1190:	01 97       	sbiw	r24, 0x01	; 1
    1192:	f1 f7       	brne	.-4      	; 0x1190 <lcd_wr_char+0x158>
    1194:	9f 87       	std	Y+15, r25	; 0x0f
    1196:	8e 87       	std	Y+14, r24	; 0x0e
    1198:	88 e2       	ldi	r24, 0x28	; 40
    119a:	90 e0       	ldi	r25, 0x00	; 0
    119c:	28 e2       	ldi	r18, 0x28	; 40
    119e:	30 e0       	ldi	r19, 0x00	; 0
    11a0:	f9 01       	movw	r30, r18
    11a2:	20 81       	ld	r18, Z
    11a4:	2b 7f       	andi	r18, 0xFB	; 251
    11a6:	fc 01       	movw	r30, r24
    11a8:	20 83       	st	Z, r18
    11aa:	8e 8d       	ldd	r24, Y+30	; 0x1e
    11ac:	8f 70       	andi	r24, 0x0F	; 15
    11ae:	8e 8f       	std	Y+30, r24	; 0x1e
    11b0:	8e 8d       	ldd	r24, Y+30	; 0x1e
    11b2:	82 95       	swap	r24
    11b4:	80 7f       	andi	r24, 0xF0	; 240
    11b6:	8e 8f       	std	Y+30, r24	; 0x1e
    11b8:	88 e2       	ldi	r24, 0x28	; 40
    11ba:	90 e0       	ldi	r25, 0x00	; 0
    11bc:	28 e2       	ldi	r18, 0x28	; 40
    11be:	30 e0       	ldi	r19, 0x00	; 0
    11c0:	f9 01       	movw	r30, r18
    11c2:	20 81       	ld	r18, Z
    11c4:	2f 70       	andi	r18, 0x0F	; 15
    11c6:	fc 01       	movw	r30, r24
    11c8:	20 83       	st	Z, r18
    11ca:	88 e2       	ldi	r24, 0x28	; 40
    11cc:	90 e0       	ldi	r25, 0x00	; 0
    11ce:	28 e2       	ldi	r18, 0x28	; 40
    11d0:	30 e0       	ldi	r19, 0x00	; 0
    11d2:	f9 01       	movw	r30, r18
    11d4:	30 81       	ld	r19, Z
    11d6:	2e 8d       	ldd	r18, Y+30	; 0x1e
    11d8:	23 2b       	or	r18, r19
    11da:	fc 01       	movw	r30, r24
    11dc:	20 83       	st	Z, r18
    11de:	88 e2       	ldi	r24, 0x28	; 40
    11e0:	90 e0       	ldi	r25, 0x00	; 0
    11e2:	28 e2       	ldi	r18, 0x28	; 40
    11e4:	30 e0       	ldi	r19, 0x00	; 0
    11e6:	f9 01       	movw	r30, r18
    11e8:	20 81       	ld	r18, Z
    11ea:	21 60       	ori	r18, 0x01	; 1
    11ec:	fc 01       	movw	r30, r24
    11ee:	20 83       	st	Z, r18
    11f0:	88 e2       	ldi	r24, 0x28	; 40
    11f2:	90 e0       	ldi	r25, 0x00	; 0
    11f4:	28 e2       	ldi	r18, 0x28	; 40
    11f6:	30 e0       	ldi	r19, 0x00	; 0
    11f8:	f9 01       	movw	r30, r18
    11fa:	20 81       	ld	r18, Z
    11fc:	2d 7f       	andi	r18, 0xFD	; 253
    11fe:	fc 01       	movw	r30, r24
    1200:	20 83       	st	Z, r18
    1202:	88 e2       	ldi	r24, 0x28	; 40
    1204:	90 e0       	ldi	r25, 0x00	; 0
    1206:	28 e2       	ldi	r18, 0x28	; 40
    1208:	30 e0       	ldi	r19, 0x00	; 0
    120a:	f9 01       	movw	r30, r18
    120c:	20 81       	ld	r18, Z
    120e:	24 60       	ori	r18, 0x04	; 4
    1210:	fc 01       	movw	r30, r24
    1212:	20 83       	st	Z, r18
    1214:	80 e0       	ldi	r24, 0x00	; 0
    1216:	90 e0       	ldi	r25, 0x00	; 0
    1218:	a0 ea       	ldi	r26, 0xA0	; 160
    121a:	b0 e4       	ldi	r27, 0x40	; 64
    121c:	88 8b       	std	Y+16, r24	; 0x10
    121e:	99 8b       	std	Y+17, r25	; 0x11
    1220:	aa 8b       	std	Y+18, r26	; 0x12
    1222:	bb 8b       	std	Y+19, r27	; 0x13
    1224:	26 e6       	ldi	r18, 0x66	; 102
    1226:	36 e6       	ldi	r19, 0x66	; 102
    1228:	46 e6       	ldi	r20, 0x66	; 102
    122a:	55 e4       	ldi	r21, 0x45	; 69
    122c:	68 89       	ldd	r22, Y+16	; 0x10
    122e:	79 89       	ldd	r23, Y+17	; 0x11
    1230:	8a 89       	ldd	r24, Y+18	; 0x12
    1232:	9b 89       	ldd	r25, Y+19	; 0x13
    1234:	0e 94 c2 28 	call	0x5184	; 0x5184 <__mulsf3>
    1238:	dc 01       	movw	r26, r24
    123a:	cb 01       	movw	r24, r22
    123c:	8c 8b       	std	Y+20, r24	; 0x14
    123e:	9d 8b       	std	Y+21, r25	; 0x15
    1240:	ae 8b       	std	Y+22, r26	; 0x16
    1242:	bf 8b       	std	Y+23, r27	; 0x17
    1244:	20 e0       	ldi	r18, 0x00	; 0
    1246:	30 e0       	ldi	r19, 0x00	; 0
    1248:	40 e8       	ldi	r20, 0x80	; 128
    124a:	5f e3       	ldi	r21, 0x3F	; 63
    124c:	6c 89       	ldd	r22, Y+20	; 0x14
    124e:	7d 89       	ldd	r23, Y+21	; 0x15
    1250:	8e 89       	ldd	r24, Y+22	; 0x16
    1252:	9f 89       	ldd	r25, Y+23	; 0x17
    1254:	0e 94 74 27 	call	0x4ee8	; 0x4ee8 <__cmpsf2>
    1258:	88 23       	and	r24, r24
    125a:	2c f4       	brge	.+10     	; 0x1266 <lcd_wr_char+0x22e>
    125c:	81 e0       	ldi	r24, 0x01	; 1
    125e:	90 e0       	ldi	r25, 0x00	; 0
    1260:	99 8f       	std	Y+25, r25	; 0x19
    1262:	88 8f       	std	Y+24, r24	; 0x18
    1264:	3f c0       	rjmp	.+126    	; 0x12e4 <lcd_wr_char+0x2ac>
    1266:	20 e0       	ldi	r18, 0x00	; 0
    1268:	3f ef       	ldi	r19, 0xFF	; 255
    126a:	4f e7       	ldi	r20, 0x7F	; 127
    126c:	57 e4       	ldi	r21, 0x47	; 71
    126e:	6c 89       	ldd	r22, Y+20	; 0x14
    1270:	7d 89       	ldd	r23, Y+21	; 0x15
    1272:	8e 89       	ldd	r24, Y+22	; 0x16
    1274:	9f 89       	ldd	r25, Y+23	; 0x17
    1276:	0e 94 be 28 	call	0x517c	; 0x517c <__gesf2>
    127a:	18 16       	cp	r1, r24
    127c:	4c f5       	brge	.+82     	; 0x12d0 <lcd_wr_char+0x298>
    127e:	20 e0       	ldi	r18, 0x00	; 0
    1280:	30 e0       	ldi	r19, 0x00	; 0
    1282:	40 e2       	ldi	r20, 0x20	; 32
    1284:	51 e4       	ldi	r21, 0x41	; 65
    1286:	68 89       	ldd	r22, Y+16	; 0x10
    1288:	79 89       	ldd	r23, Y+17	; 0x11
    128a:	8a 89       	ldd	r24, Y+18	; 0x12
    128c:	9b 89       	ldd	r25, Y+19	; 0x13
    128e:	0e 94 c2 28 	call	0x5184	; 0x5184 <__mulsf3>
    1292:	dc 01       	movw	r26, r24
    1294:	cb 01       	movw	r24, r22
    1296:	bc 01       	movw	r22, r24
    1298:	cd 01       	movw	r24, r26
    129a:	0e 94 e0 27 	call	0x4fc0	; 0x4fc0 <__fixunssfsi>
    129e:	dc 01       	movw	r26, r24
    12a0:	cb 01       	movw	r24, r22
    12a2:	99 8f       	std	Y+25, r25	; 0x19
    12a4:	88 8f       	std	Y+24, r24	; 0x18
    12a6:	0f c0       	rjmp	.+30     	; 0x12c6 <lcd_wr_char+0x28e>
    12a8:	80 e7       	ldi	r24, 0x70	; 112
    12aa:	91 e0       	ldi	r25, 0x01	; 1
    12ac:	9b 8f       	std	Y+27, r25	; 0x1b
    12ae:	8a 8f       	std	Y+26, r24	; 0x1a
    12b0:	8a 8d       	ldd	r24, Y+26	; 0x1a
    12b2:	9b 8d       	ldd	r25, Y+27	; 0x1b
    12b4:	01 97       	sbiw	r24, 0x01	; 1
    12b6:	f1 f7       	brne	.-4      	; 0x12b4 <lcd_wr_char+0x27c>
    12b8:	9b 8f       	std	Y+27, r25	; 0x1b
    12ba:	8a 8f       	std	Y+26, r24	; 0x1a
    12bc:	88 8d       	ldd	r24, Y+24	; 0x18
    12be:	99 8d       	ldd	r25, Y+25	; 0x19
    12c0:	01 97       	sbiw	r24, 0x01	; 1
    12c2:	99 8f       	std	Y+25, r25	; 0x19
    12c4:	88 8f       	std	Y+24, r24	; 0x18
    12c6:	88 8d       	ldd	r24, Y+24	; 0x18
    12c8:	99 8d       	ldd	r25, Y+25	; 0x19
    12ca:	89 2b       	or	r24, r25
    12cc:	69 f7       	brne	.-38     	; 0x12a8 <lcd_wr_char+0x270>
    12ce:	14 c0       	rjmp	.+40     	; 0x12f8 <lcd_wr_char+0x2c0>
    12d0:	6c 89       	ldd	r22, Y+20	; 0x14
    12d2:	7d 89       	ldd	r23, Y+21	; 0x15
    12d4:	8e 89       	ldd	r24, Y+22	; 0x16
    12d6:	9f 89       	ldd	r25, Y+23	; 0x17
    12d8:	0e 94 e0 27 	call	0x4fc0	; 0x4fc0 <__fixunssfsi>
    12dc:	dc 01       	movw	r26, r24
    12de:	cb 01       	movw	r24, r22
    12e0:	99 8f       	std	Y+25, r25	; 0x19
    12e2:	88 8f       	std	Y+24, r24	; 0x18
    12e4:	88 8d       	ldd	r24, Y+24	; 0x18
    12e6:	99 8d       	ldd	r25, Y+25	; 0x19
    12e8:	9d 8f       	std	Y+29, r25	; 0x1d
    12ea:	8c 8f       	std	Y+28, r24	; 0x1c
    12ec:	8c 8d       	ldd	r24, Y+28	; 0x1c
    12ee:	9d 8d       	ldd	r25, Y+29	; 0x1d
    12f0:	01 97       	sbiw	r24, 0x01	; 1
    12f2:	f1 f7       	brne	.-4      	; 0x12f0 <lcd_wr_char+0x2b8>
    12f4:	9d 8f       	std	Y+29, r25	; 0x1d
    12f6:	8c 8f       	std	Y+28, r24	; 0x1c
    12f8:	88 e2       	ldi	r24, 0x28	; 40
    12fa:	90 e0       	ldi	r25, 0x00	; 0
    12fc:	28 e2       	ldi	r18, 0x28	; 40
    12fe:	30 e0       	ldi	r19, 0x00	; 0
    1300:	f9 01       	movw	r30, r18
    1302:	20 81       	ld	r18, Z
    1304:	2b 7f       	andi	r18, 0xFB	; 251
    1306:	fc 01       	movw	r30, r24
    1308:	20 83       	st	Z, r18
    130a:	6e 96       	adiw	r28, 0x1e	; 30
    130c:	0f b6       	in	r0, 0x3f	; 63
    130e:	f8 94       	cli
    1310:	de bf       	out	0x3e, r29	; 62
    1312:	0f be       	out	0x3f, r0	; 63
    1314:	cd bf       	out	0x3d, r28	; 61
    1316:	df 91       	pop	r29
    1318:	cf 91       	pop	r28
    131a:	08 95       	ret

0000131c <lcd_home>:
    131c:	cf 93       	push	r28
    131e:	df 93       	push	r29
    1320:	cd b7       	in	r28, 0x3d	; 61
    1322:	de b7       	in	r29, 0x3e	; 62
    1324:	80 e8       	ldi	r24, 0x80	; 128
    1326:	16 dd       	rcall	.-1492   	; 0xd54 <lcd_wr_command>
    1328:	df 91       	pop	r29
    132a:	cf 91       	pop	r28
    132c:	08 95       	ret

0000132e <lcd_cursor>:
    132e:	cf 93       	push	r28
    1330:	df 93       	push	r29
    1332:	1f 92       	push	r1
    1334:	1f 92       	push	r1
    1336:	cd b7       	in	r28, 0x3d	; 61
    1338:	de b7       	in	r29, 0x3e	; 62
    133a:	89 83       	std	Y+1, r24	; 0x01
    133c:	6a 83       	std	Y+2, r22	; 0x02
    133e:	89 81       	ldd	r24, Y+1	; 0x01
    1340:	88 2f       	mov	r24, r24
    1342:	90 e0       	ldi	r25, 0x00	; 0
    1344:	82 30       	cpi	r24, 0x02	; 2
    1346:	91 05       	cpc	r25, r1
    1348:	81 f0       	breq	.+32     	; 0x136a <lcd_cursor+0x3c>
    134a:	83 30       	cpi	r24, 0x03	; 3
    134c:	91 05       	cpc	r25, r1
    134e:	1c f4       	brge	.+6      	; 0x1356 <lcd_cursor+0x28>
    1350:	01 97       	sbiw	r24, 0x01	; 1
    1352:	39 f0       	breq	.+14     	; 0x1362 <lcd_cursor+0x34>
    1354:	16 c0       	rjmp	.+44     	; 0x1382 <lcd_cursor+0x54>
    1356:	83 30       	cpi	r24, 0x03	; 3
    1358:	91 05       	cpc	r25, r1
    135a:	59 f0       	breq	.+22     	; 0x1372 <lcd_cursor+0x44>
    135c:	04 97       	sbiw	r24, 0x04	; 4
    135e:	69 f0       	breq	.+26     	; 0x137a <lcd_cursor+0x4c>
    1360:	10 c0       	rjmp	.+32     	; 0x1382 <lcd_cursor+0x54>
    1362:	8a 81       	ldd	r24, Y+2	; 0x02
    1364:	81 58       	subi	r24, 0x81	; 129
    1366:	f6 dc       	rcall	.-1556   	; 0xd54 <lcd_wr_command>
    1368:	0c c0       	rjmp	.+24     	; 0x1382 <lcd_cursor+0x54>
    136a:	8a 81       	ldd	r24, Y+2	; 0x02
    136c:	81 54       	subi	r24, 0x41	; 65
    136e:	f2 dc       	rcall	.-1564   	; 0xd54 <lcd_wr_command>
    1370:	08 c0       	rjmp	.+16     	; 0x1382 <lcd_cursor+0x54>
    1372:	8a 81       	ldd	r24, Y+2	; 0x02
    1374:	8d 56       	subi	r24, 0x6D	; 109
    1376:	ee dc       	rcall	.-1572   	; 0xd54 <lcd_wr_command>
    1378:	04 c0       	rjmp	.+8      	; 0x1382 <lcd_cursor+0x54>
    137a:	8a 81       	ldd	r24, Y+2	; 0x02
    137c:	8d 52       	subi	r24, 0x2D	; 45
    137e:	ea dc       	rcall	.-1580   	; 0xd54 <lcd_wr_command>
    1380:	00 00       	nop
    1382:	0f 90       	pop	r0
    1384:	0f 90       	pop	r0
    1386:	df 91       	pop	r29
    1388:	cf 91       	pop	r28
    138a:	08 95       	ret

0000138c <lcd_print>:
    138c:	cf 93       	push	r28
    138e:	df 93       	push	r29
    1390:	cd b7       	in	r28, 0x3d	; 61
    1392:	de b7       	in	r29, 0x3e	; 62
    1394:	27 97       	sbiw	r28, 0x07	; 7
    1396:	0f b6       	in	r0, 0x3f	; 63
    1398:	f8 94       	cli
    139a:	de bf       	out	0x3e, r29	; 62
    139c:	0f be       	out	0x3f, r0	; 63
    139e:	cd bf       	out	0x3d, r28	; 61
    13a0:	8a 83       	std	Y+2, r24	; 0x02
    13a2:	6b 83       	std	Y+3, r22	; 0x03
    13a4:	5d 83       	std	Y+5, r21	; 0x05
    13a6:	4c 83       	std	Y+4, r20	; 0x04
    13a8:	3f 83       	std	Y+7, r19	; 0x07
    13aa:	2e 83       	std	Y+6, r18	; 0x06
    13ac:	19 82       	std	Y+1, r1	; 0x01
    13ae:	8a 81       	ldd	r24, Y+2	; 0x02
    13b0:	88 23       	and	r24, r24
    13b2:	19 f0       	breq	.+6      	; 0x13ba <lcd_print+0x2e>
    13b4:	8b 81       	ldd	r24, Y+3	; 0x03
    13b6:	88 23       	and	r24, r24
    13b8:	11 f4       	brne	.+4      	; 0x13be <lcd_print+0x32>
    13ba:	b0 df       	rcall	.-160    	; 0x131c <lcd_home>
    13bc:	03 c0       	rjmp	.+6      	; 0x13c4 <lcd_print+0x38>
    13be:	6b 81       	ldd	r22, Y+3	; 0x03
    13c0:	8a 81       	ldd	r24, Y+2	; 0x02
    13c2:	b5 df       	rcall	.-150    	; 0x132e <lcd_cursor>
    13c4:	8e 81       	ldd	r24, Y+6	; 0x06
    13c6:	9f 81       	ldd	r25, Y+7	; 0x07
    13c8:	05 97       	sbiw	r24, 0x05	; 5
    13ca:	19 f0       	breq	.+6      	; 0x13d2 <lcd_print+0x46>
    13cc:	89 81       	ldd	r24, Y+1	; 0x01
    13ce:	81 30       	cpi	r24, 0x01	; 1
    13d0:	f9 f4       	brne	.+62     	; 0x1410 <lcd_print+0x84>
    13d2:	8c 81       	ldd	r24, Y+4	; 0x04
    13d4:	9d 81       	ldd	r25, Y+5	; 0x05
    13d6:	92 95       	swap	r25
    13d8:	82 95       	swap	r24
    13da:	8f 70       	andi	r24, 0x0F	; 15
    13dc:	89 27       	eor	r24, r25
    13de:	9f 70       	andi	r25, 0x0F	; 15
    13e0:	89 27       	eor	r24, r25
    13e2:	9c 01       	movw	r18, r24
    13e4:	a7 e4       	ldi	r26, 0x47	; 71
    13e6:	b3 e0       	ldi	r27, 0x03	; 3
    13e8:	0e 94 25 29 	call	0x524a	; 0x524a <__umulhisi3>
    13ec:	96 95       	lsr	r25
    13ee:	87 95       	ror	r24
    13f0:	96 95       	lsr	r25
    13f2:	87 95       	ror	r24
    13f4:	96 95       	lsr	r25
    13f6:	87 95       	ror	r24
    13f8:	c0 96       	adiw	r24, 0x30	; 48
    13fa:	90 93 85 14 	sts	0x1485, r25	; 0x801485 <million+0x1>
    13fe:	80 93 84 14 	sts	0x1484, r24	; 0x801484 <million>
    1402:	80 91 84 14 	lds	r24, 0x1484	; 0x801484 <million>
    1406:	90 91 85 14 	lds	r25, 0x1485	; 0x801485 <million+0x1>
    140a:	16 de       	rcall	.-980    	; 0x1038 <lcd_wr_char>
    140c:	81 e0       	ldi	r24, 0x01	; 1
    140e:	89 83       	std	Y+1, r24	; 0x01
    1410:	8e 81       	ldd	r24, Y+6	; 0x06
    1412:	9f 81       	ldd	r25, Y+7	; 0x07
    1414:	04 97       	sbiw	r24, 0x04	; 4
    1416:	21 f0       	breq	.+8      	; 0x1420 <lcd_print+0x94>
    1418:	89 81       	ldd	r24, Y+1	; 0x01
    141a:	81 30       	cpi	r24, 0x01	; 1
    141c:	09 f0       	breq	.+2      	; 0x1420 <lcd_print+0x94>
    141e:	3f c0       	rjmp	.+126    	; 0x149e <lcd_print+0x112>
    1420:	8c 81       	ldd	r24, Y+4	; 0x04
    1422:	9d 81       	ldd	r25, Y+5	; 0x05
    1424:	96 95       	lsr	r25
    1426:	87 95       	ror	r24
    1428:	96 95       	lsr	r25
    142a:	87 95       	ror	r24
    142c:	96 95       	lsr	r25
    142e:	87 95       	ror	r24
    1430:	9c 01       	movw	r18, r24
    1432:	a5 ec       	ldi	r26, 0xC5	; 197
    1434:	b0 e2       	ldi	r27, 0x20	; 32
    1436:	0e 94 25 29 	call	0x524a	; 0x524a <__umulhisi3>
    143a:	92 95       	swap	r25
    143c:	82 95       	swap	r24
    143e:	8f 70       	andi	r24, 0x0F	; 15
    1440:	89 27       	eor	r24, r25
    1442:	9f 70       	andi	r25, 0x0F	; 15
    1444:	89 27       	eor	r24, r25
    1446:	90 93 87 14 	sts	0x1487, r25	; 0x801487 <temp+0x1>
    144a:	80 93 86 14 	sts	0x1486, r24	; 0x801486 <temp>
    144e:	40 91 86 14 	lds	r20, 0x1486	; 0x801486 <temp>
    1452:	50 91 87 14 	lds	r21, 0x1487	; 0x801487 <temp+0x1>
    1456:	9a 01       	movw	r18, r20
    1458:	ad ec       	ldi	r26, 0xCD	; 205
    145a:	bc ec       	ldi	r27, 0xCC	; 204
    145c:	0e 94 25 29 	call	0x524a	; 0x524a <__umulhisi3>
    1460:	96 95       	lsr	r25
    1462:	87 95       	ror	r24
    1464:	96 95       	lsr	r25
    1466:	87 95       	ror	r24
    1468:	96 95       	lsr	r25
    146a:	87 95       	ror	r24
    146c:	88 0f       	add	r24, r24
    146e:	99 1f       	adc	r25, r25
    1470:	9c 01       	movw	r18, r24
    1472:	22 0f       	add	r18, r18
    1474:	33 1f       	adc	r19, r19
    1476:	22 0f       	add	r18, r18
    1478:	33 1f       	adc	r19, r19
    147a:	82 0f       	add	r24, r18
    147c:	93 1f       	adc	r25, r19
    147e:	9a 01       	movw	r18, r20
    1480:	28 1b       	sub	r18, r24
    1482:	39 0b       	sbc	r19, r25
    1484:	c9 01       	movw	r24, r18
    1486:	c0 96       	adiw	r24, 0x30	; 48
    1488:	90 93 d2 14 	sts	0x14D2, r25	; 0x8014d2 <thousand+0x1>
    148c:	80 93 d1 14 	sts	0x14D1, r24	; 0x8014d1 <thousand>
    1490:	80 91 d1 14 	lds	r24, 0x14D1	; 0x8014d1 <thousand>
    1494:	90 91 d2 14 	lds	r25, 0x14D2	; 0x8014d2 <thousand+0x1>
    1498:	cf dd       	rcall	.-1122   	; 0x1038 <lcd_wr_char>
    149a:	81 e0       	ldi	r24, 0x01	; 1
    149c:	89 83       	std	Y+1, r24	; 0x01
    149e:	8e 81       	ldd	r24, Y+6	; 0x06
    14a0:	9f 81       	ldd	r25, Y+7	; 0x07
    14a2:	03 97       	sbiw	r24, 0x03	; 3
    14a4:	19 f0       	breq	.+6      	; 0x14ac <lcd_print+0x120>
    14a6:	89 81       	ldd	r24, Y+1	; 0x01
    14a8:	81 30       	cpi	r24, 0x01	; 1
    14aa:	c9 f5       	brne	.+114    	; 0x151e <lcd_print+0x192>
    14ac:	8c 81       	ldd	r24, Y+4	; 0x04
    14ae:	9d 81       	ldd	r25, Y+5	; 0x05
    14b0:	96 95       	lsr	r25
    14b2:	87 95       	ror	r24
    14b4:	96 95       	lsr	r25
    14b6:	87 95       	ror	r24
    14b8:	9c 01       	movw	r18, r24
    14ba:	ab e7       	ldi	r26, 0x7B	; 123
    14bc:	b4 e1       	ldi	r27, 0x14	; 20
    14be:	0e 94 25 29 	call	0x524a	; 0x524a <__umulhisi3>
    14c2:	96 95       	lsr	r25
    14c4:	87 95       	ror	r24
    14c6:	90 93 87 14 	sts	0x1487, r25	; 0x801487 <temp+0x1>
    14ca:	80 93 86 14 	sts	0x1486, r24	; 0x801486 <temp>
    14ce:	40 91 86 14 	lds	r20, 0x1486	; 0x801486 <temp>
    14d2:	50 91 87 14 	lds	r21, 0x1487	; 0x801487 <temp+0x1>
    14d6:	9a 01       	movw	r18, r20
    14d8:	ad ec       	ldi	r26, 0xCD	; 205
    14da:	bc ec       	ldi	r27, 0xCC	; 204
    14dc:	0e 94 25 29 	call	0x524a	; 0x524a <__umulhisi3>
    14e0:	96 95       	lsr	r25
    14e2:	87 95       	ror	r24
    14e4:	96 95       	lsr	r25
    14e6:	87 95       	ror	r24
    14e8:	96 95       	lsr	r25
    14ea:	87 95       	ror	r24
    14ec:	88 0f       	add	r24, r24
    14ee:	99 1f       	adc	r25, r25
    14f0:	9c 01       	movw	r18, r24
    14f2:	22 0f       	add	r18, r18
    14f4:	33 1f       	adc	r19, r19
    14f6:	22 0f       	add	r18, r18
    14f8:	33 1f       	adc	r19, r19
    14fa:	82 0f       	add	r24, r18
    14fc:	93 1f       	adc	r25, r19
    14fe:	9a 01       	movw	r18, r20
    1500:	28 1b       	sub	r18, r24
    1502:	39 0b       	sbc	r19, r25
    1504:	c9 01       	movw	r24, r18
    1506:	c0 96       	adiw	r24, 0x30	; 48
    1508:	90 93 ce 14 	sts	0x14CE, r25	; 0x8014ce <hundred+0x1>
    150c:	80 93 cd 14 	sts	0x14CD, r24	; 0x8014cd <hundred>
    1510:	80 91 cd 14 	lds	r24, 0x14CD	; 0x8014cd <hundred>
    1514:	90 91 ce 14 	lds	r25, 0x14CE	; 0x8014ce <hundred+0x1>
    1518:	8f dd       	rcall	.-1250   	; 0x1038 <lcd_wr_char>
    151a:	81 e0       	ldi	r24, 0x01	; 1
    151c:	89 83       	std	Y+1, r24	; 0x01
    151e:	8e 81       	ldd	r24, Y+6	; 0x06
    1520:	9f 81       	ldd	r25, Y+7	; 0x07
    1522:	02 97       	sbiw	r24, 0x02	; 2
    1524:	19 f0       	breq	.+6      	; 0x152c <lcd_print+0x1a0>
    1526:	89 81       	ldd	r24, Y+1	; 0x01
    1528:	81 30       	cpi	r24, 0x01	; 1
    152a:	c9 f5       	brne	.+114    	; 0x159e <lcd_print+0x212>
    152c:	8c 81       	ldd	r24, Y+4	; 0x04
    152e:	9d 81       	ldd	r25, Y+5	; 0x05
    1530:	9c 01       	movw	r18, r24
    1532:	ad ec       	ldi	r26, 0xCD	; 205
    1534:	bc ec       	ldi	r27, 0xCC	; 204
    1536:	0e 94 25 29 	call	0x524a	; 0x524a <__umulhisi3>
    153a:	96 95       	lsr	r25
    153c:	87 95       	ror	r24
    153e:	96 95       	lsr	r25
    1540:	87 95       	ror	r24
    1542:	96 95       	lsr	r25
    1544:	87 95       	ror	r24
    1546:	90 93 87 14 	sts	0x1487, r25	; 0x801487 <temp+0x1>
    154a:	80 93 86 14 	sts	0x1486, r24	; 0x801486 <temp>
    154e:	40 91 86 14 	lds	r20, 0x1486	; 0x801486 <temp>
    1552:	50 91 87 14 	lds	r21, 0x1487	; 0x801487 <temp+0x1>
    1556:	9a 01       	movw	r18, r20
    1558:	ad ec       	ldi	r26, 0xCD	; 205
    155a:	bc ec       	ldi	r27, 0xCC	; 204
    155c:	0e 94 25 29 	call	0x524a	; 0x524a <__umulhisi3>
    1560:	96 95       	lsr	r25
    1562:	87 95       	ror	r24
    1564:	96 95       	lsr	r25
    1566:	87 95       	ror	r24
    1568:	96 95       	lsr	r25
    156a:	87 95       	ror	r24
    156c:	88 0f       	add	r24, r24
    156e:	99 1f       	adc	r25, r25
    1570:	9c 01       	movw	r18, r24
    1572:	22 0f       	add	r18, r18
    1574:	33 1f       	adc	r19, r19
    1576:	22 0f       	add	r18, r18
    1578:	33 1f       	adc	r19, r19
    157a:	82 0f       	add	r24, r18
    157c:	93 1f       	adc	r25, r19
    157e:	9a 01       	movw	r18, r20
    1580:	28 1b       	sub	r18, r24
    1582:	39 0b       	sbc	r19, r25
    1584:	c9 01       	movw	r24, r18
    1586:	c0 96       	adiw	r24, 0x30	; 48
    1588:	90 93 8a 14 	sts	0x148A, r25	; 0x80148a <tens+0x1>
    158c:	80 93 89 14 	sts	0x1489, r24	; 0x801489 <tens>
    1590:	80 91 89 14 	lds	r24, 0x1489	; 0x801489 <tens>
    1594:	90 91 8a 14 	lds	r25, 0x148A	; 0x80148a <tens+0x1>
    1598:	4f dd       	rcall	.-1378   	; 0x1038 <lcd_wr_char>
    159a:	81 e0       	ldi	r24, 0x01	; 1
    159c:	89 83       	std	Y+1, r24	; 0x01
    159e:	8e 81       	ldd	r24, Y+6	; 0x06
    15a0:	9f 81       	ldd	r25, Y+7	; 0x07
    15a2:	01 97       	sbiw	r24, 0x01	; 1
    15a4:	19 f0       	breq	.+6      	; 0x15ac <lcd_print+0x220>
    15a6:	89 81       	ldd	r24, Y+1	; 0x01
    15a8:	81 30       	cpi	r24, 0x01	; 1
    15aa:	21 f5       	brne	.+72     	; 0x15f4 <lcd_print+0x268>
    15ac:	4c 81       	ldd	r20, Y+4	; 0x04
    15ae:	5d 81       	ldd	r21, Y+5	; 0x05
    15b0:	9a 01       	movw	r18, r20
    15b2:	ad ec       	ldi	r26, 0xCD	; 205
    15b4:	bc ec       	ldi	r27, 0xCC	; 204
    15b6:	0e 94 25 29 	call	0x524a	; 0x524a <__umulhisi3>
    15ba:	96 95       	lsr	r25
    15bc:	87 95       	ror	r24
    15be:	96 95       	lsr	r25
    15c0:	87 95       	ror	r24
    15c2:	96 95       	lsr	r25
    15c4:	87 95       	ror	r24
    15c6:	88 0f       	add	r24, r24
    15c8:	99 1f       	adc	r25, r25
    15ca:	9c 01       	movw	r18, r24
    15cc:	22 0f       	add	r18, r18
    15ce:	33 1f       	adc	r19, r19
    15d0:	22 0f       	add	r18, r18
    15d2:	33 1f       	adc	r19, r19
    15d4:	82 0f       	add	r24, r18
    15d6:	93 1f       	adc	r25, r19
    15d8:	9a 01       	movw	r18, r20
    15da:	28 1b       	sub	r18, r24
    15dc:	39 0b       	sbc	r19, r25
    15de:	c9 01       	movw	r24, r18
    15e0:	c0 96       	adiw	r24, 0x30	; 48
    15e2:	90 93 d0 14 	sts	0x14D0, r25	; 0x8014d0 <unit+0x1>
    15e6:	80 93 cf 14 	sts	0x14CF, r24	; 0x8014cf <unit>
    15ea:	80 91 cf 14 	lds	r24, 0x14CF	; 0x8014cf <unit>
    15ee:	90 91 d0 14 	lds	r25, 0x14D0	; 0x8014d0 <unit+0x1>
    15f2:	22 dd       	rcall	.-1468   	; 0x1038 <lcd_wr_char>
    15f4:	8e 81       	ldd	r24, Y+6	; 0x06
    15f6:	9f 81       	ldd	r25, Y+7	; 0x07
    15f8:	06 97       	sbiw	r24, 0x06	; 6
    15fa:	14 f0       	brlt	.+4      	; 0x1600 <lcd_print+0x274>
    15fc:	85 e4       	ldi	r24, 0x45	; 69
    15fe:	1c dd       	rcall	.-1480   	; 0x1038 <lcd_wr_char>
    1600:	27 96       	adiw	r28, 0x07	; 7
    1602:	0f b6       	in	r0, 0x3f	; 63
    1604:	f8 94       	cli
    1606:	de bf       	out	0x3e, r29	; 62
    1608:	0f be       	out	0x3f, r0	; 63
    160a:	cd bf       	out	0x3d, r28	; 61
    160c:	df 91       	pop	r29
    160e:	cf 91       	pop	r28
    1610:	08 95       	ret

00001612 <dijkstra>:
    1612:	cf 93       	push	r28
    1614:	df 93       	push	r29
    1616:	cd b7       	in	r28, 0x3d	; 61
    1618:	de b7       	in	r29, 0x3e	; 62
    161a:	cc 53       	subi	r28, 0x3C	; 60
    161c:	d1 40       	sbci	r29, 0x01	; 1
    161e:	0f b6       	in	r0, 0x3f	; 63
    1620:	f8 94       	cli
    1622:	de bf       	out	0x3e, r29	; 62
    1624:	0f be       	out	0x3f, r0	; 63
    1626:	cd bf       	out	0x3d, r28	; 61
    1628:	9e 01       	movw	r18, r28
    162a:	27 5c       	subi	r18, 0xC7	; 199
    162c:	3e 4f       	sbci	r19, 0xFE	; 254
    162e:	f9 01       	movw	r30, r18
    1630:	91 83       	std	Z+1, r25	; 0x01
    1632:	80 83       	st	Z, r24
    1634:	ce 01       	movw	r24, r28
    1636:	85 5c       	subi	r24, 0xC5	; 197
    1638:	9e 4f       	sbci	r25, 0xFE	; 254
    163a:	fc 01       	movw	r30, r24
    163c:	71 83       	std	Z+1, r23	; 0x01
    163e:	60 83       	st	Z, r22
    1640:	1e 82       	std	Y+6, r1	; 0x06
    1642:	1d 82       	std	Y+5, r1	; 0x05
    1644:	1c 86       	std	Y+12, r1	; 0x0c
    1646:	1b 86       	std	Y+11, r1	; 0x0b
    1648:	ce 01       	movw	r24, r28
    164a:	87 5c       	subi	r24, 0xC7	; 199
    164c:	9e 4f       	sbci	r25, 0xFE	; 254
    164e:	9e 01       	movw	r18, r28
    1650:	27 5c       	subi	r18, 0xC7	; 199
    1652:	3e 4f       	sbci	r19, 0xFE	; 254
    1654:	f9 01       	movw	r30, r18
    1656:	20 81       	ld	r18, Z
    1658:	31 81       	ldd	r19, Z+1	; 0x01
    165a:	21 50       	subi	r18, 0x01	; 1
    165c:	31 09       	sbc	r19, r1
    165e:	fc 01       	movw	r30, r24
    1660:	31 83       	std	Z+1, r19	; 0x01
    1662:	20 83       	st	Z, r18
    1664:	ce 01       	movw	r24, r28
    1666:	85 5c       	subi	r24, 0xC5	; 197
    1668:	9e 4f       	sbci	r25, 0xFE	; 254
    166a:	9e 01       	movw	r18, r28
    166c:	25 5c       	subi	r18, 0xC5	; 197
    166e:	3e 4f       	sbci	r19, 0xFE	; 254
    1670:	f9 01       	movw	r30, r18
    1672:	20 81       	ld	r18, Z
    1674:	31 81       	ldd	r19, Z+1	; 0x01
    1676:	21 50       	subi	r18, 0x01	; 1
    1678:	31 09       	sbc	r19, r1
    167a:	fc 01       	movw	r30, r24
    167c:	31 83       	std	Z+1, r19	; 0x01
    167e:	20 83       	st	Z, r18
    1680:	18 86       	std	Y+8, r1	; 0x08
    1682:	1f 82       	std	Y+7, r1	; 0x07
    1684:	47 c0       	rjmp	.+142    	; 0x1714 <dijkstra+0x102>
    1686:	ce 01       	movw	r24, r28
    1688:	87 5c       	subi	r24, 0xC7	; 199
    168a:	9e 4f       	sbci	r25, 0xFE	; 254
    168c:	fc 01       	movw	r30, r24
    168e:	80 81       	ld	r24, Z
    1690:	91 81       	ldd	r25, Z+1	; 0x01
    1692:	40 e3       	ldi	r20, 0x30	; 48
    1694:	48 9f       	mul	r20, r24
    1696:	90 01       	movw	r18, r0
    1698:	49 9f       	mul	r20, r25
    169a:	30 0d       	add	r19, r0
    169c:	11 24       	eor	r1, r1
    169e:	8f 81       	ldd	r24, Y+7	; 0x07
    16a0:	98 85       	ldd	r25, Y+8	; 0x08
    16a2:	82 0f       	add	r24, r18
    16a4:	93 1f       	adc	r25, r19
    16a6:	88 0f       	add	r24, r24
    16a8:	99 1f       	adc	r25, r25
    16aa:	80 50       	subi	r24, 0x00	; 0
    16ac:	9e 4f       	sbci	r25, 0xFE	; 254
    16ae:	fc 01       	movw	r30, r24
    16b0:	20 81       	ld	r18, Z
    16b2:	31 81       	ldd	r19, Z+1	; 0x01
    16b4:	8f 81       	ldd	r24, Y+7	; 0x07
    16b6:	98 85       	ldd	r25, Y+8	; 0x08
    16b8:	88 0f       	add	r24, r24
    16ba:	99 1f       	adc	r25, r25
    16bc:	ae 01       	movw	r20, r28
    16be:	4f 5f       	subi	r20, 0xFF	; 255
    16c0:	5f 4f       	sbci	r21, 0xFF	; 255
    16c2:	84 0f       	add	r24, r20
    16c4:	95 1f       	adc	r25, r21
    16c6:	0c 96       	adiw	r24, 0x0c	; 12
    16c8:	fc 01       	movw	r30, r24
    16ca:	31 83       	std	Z+1, r19	; 0x01
    16cc:	20 83       	st	Z, r18
    16ce:	9e 01       	movw	r18, r28
    16d0:	2f 58       	subi	r18, 0x8F	; 143
    16d2:	3f 4f       	sbci	r19, 0xFF	; 255
    16d4:	8f 81       	ldd	r24, Y+7	; 0x07
    16d6:	98 85       	ldd	r25, Y+8	; 0x08
    16d8:	88 0f       	add	r24, r24
    16da:	99 1f       	adc	r25, r25
    16dc:	82 0f       	add	r24, r18
    16de:	93 1f       	adc	r25, r19
    16e0:	9e 01       	movw	r18, r28
    16e2:	27 5c       	subi	r18, 0xC7	; 199
    16e4:	3e 4f       	sbci	r19, 0xFE	; 254
    16e6:	f9 01       	movw	r30, r18
    16e8:	20 81       	ld	r18, Z
    16ea:	31 81       	ldd	r19, Z+1	; 0x01
    16ec:	fc 01       	movw	r30, r24
    16ee:	31 83       	std	Z+1, r19	; 0x01
    16f0:	20 83       	st	Z, r18
    16f2:	9e 01       	movw	r18, r28
    16f4:	2b 52       	subi	r18, 0x2B	; 43
    16f6:	3f 4f       	sbci	r19, 0xFF	; 255
    16f8:	8f 81       	ldd	r24, Y+7	; 0x07
    16fa:	98 85       	ldd	r25, Y+8	; 0x08
    16fc:	88 0f       	add	r24, r24
    16fe:	99 1f       	adc	r25, r25
    1700:	82 0f       	add	r24, r18
    1702:	93 1f       	adc	r25, r19
    1704:	fc 01       	movw	r30, r24
    1706:	11 82       	std	Z+1, r1	; 0x01
    1708:	10 82       	st	Z, r1
    170a:	8f 81       	ldd	r24, Y+7	; 0x07
    170c:	98 85       	ldd	r25, Y+8	; 0x08
    170e:	01 96       	adiw	r24, 0x01	; 1
    1710:	98 87       	std	Y+8, r25	; 0x08
    1712:	8f 83       	std	Y+7, r24	; 0x07
    1714:	80 91 00 14 	lds	r24, 0x1400	; 0x801400 <n>
    1718:	90 91 01 14 	lds	r25, 0x1401	; 0x801401 <n+0x1>
    171c:	2f 81       	ldd	r18, Y+7	; 0x07
    171e:	38 85       	ldd	r19, Y+8	; 0x08
    1720:	28 17       	cp	r18, r24
    1722:	39 07       	cpc	r19, r25
    1724:	0c f4       	brge	.+2      	; 0x1728 <dijkstra+0x116>
    1726:	af cf       	rjmp	.-162    	; 0x1686 <dijkstra+0x74>
    1728:	ce 01       	movw	r24, r28
    172a:	87 5c       	subi	r24, 0xC7	; 199
    172c:	9e 4f       	sbci	r25, 0xFE	; 254
    172e:	fc 01       	movw	r30, r24
    1730:	80 81       	ld	r24, Z
    1732:	91 81       	ldd	r25, Z+1	; 0x01
    1734:	88 0f       	add	r24, r24
    1736:	99 1f       	adc	r25, r25
    1738:	9e 01       	movw	r18, r28
    173a:	2f 5f       	subi	r18, 0xFF	; 255
    173c:	3f 4f       	sbci	r19, 0xFF	; 255
    173e:	82 0f       	add	r24, r18
    1740:	93 1f       	adc	r25, r19
    1742:	0c 96       	adiw	r24, 0x0c	; 12
    1744:	fc 01       	movw	r30, r24
    1746:	11 82       	std	Z+1, r1	; 0x01
    1748:	10 82       	st	Z, r1
    174a:	9e 01       	movw	r18, r28
    174c:	2b 52       	subi	r18, 0x2B	; 43
    174e:	3f 4f       	sbci	r19, 0xFF	; 255
    1750:	ce 01       	movw	r24, r28
    1752:	87 5c       	subi	r24, 0xC7	; 199
    1754:	9e 4f       	sbci	r25, 0xFE	; 254
    1756:	fc 01       	movw	r30, r24
    1758:	80 81       	ld	r24, Z
    175a:	91 81       	ldd	r25, Z+1	; 0x01
    175c:	88 0f       	add	r24, r24
    175e:	99 1f       	adc	r25, r25
    1760:	82 0f       	add	r24, r18
    1762:	93 1f       	adc	r25, r19
    1764:	21 e0       	ldi	r18, 0x01	; 1
    1766:	30 e0       	ldi	r19, 0x00	; 0
    1768:	fc 01       	movw	r30, r24
    176a:	31 83       	std	Z+1, r19	; 0x01
    176c:	20 83       	st	Z, r18
    176e:	81 e0       	ldi	r24, 0x01	; 1
    1770:	90 e0       	ldi	r25, 0x00	; 0
    1772:	9a 83       	std	Y+2, r25	; 0x02
    1774:	89 83       	std	Y+1, r24	; 0x01
    1776:	d6 c0       	rjmp	.+428    	; 0x1924 <dijkstra+0x312>
    1778:	8f e0       	ldi	r24, 0x0F	; 15
    177a:	97 e2       	ldi	r25, 0x27	; 39
    177c:	9c 83       	std	Y+4, r25	; 0x04
    177e:	8b 83       	std	Y+3, r24	; 0x03
    1780:	18 86       	std	Y+8, r1	; 0x08
    1782:	1f 82       	std	Y+7, r1	; 0x07
    1784:	38 c0       	rjmp	.+112    	; 0x17f6 <dijkstra+0x1e4>
    1786:	8f 81       	ldd	r24, Y+7	; 0x07
    1788:	98 85       	ldd	r25, Y+8	; 0x08
    178a:	88 0f       	add	r24, r24
    178c:	99 1f       	adc	r25, r25
    178e:	9e 01       	movw	r18, r28
    1790:	2f 5f       	subi	r18, 0xFF	; 255
    1792:	3f 4f       	sbci	r19, 0xFF	; 255
    1794:	82 0f       	add	r24, r18
    1796:	93 1f       	adc	r25, r19
    1798:	0c 96       	adiw	r24, 0x0c	; 12
    179a:	fc 01       	movw	r30, r24
    179c:	20 81       	ld	r18, Z
    179e:	31 81       	ldd	r19, Z+1	; 0x01
    17a0:	8b 81       	ldd	r24, Y+3	; 0x03
    17a2:	9c 81       	ldd	r25, Y+4	; 0x04
    17a4:	28 17       	cp	r18, r24
    17a6:	39 07       	cpc	r19, r25
    17a8:	0c f5       	brge	.+66     	; 0x17ec <dijkstra+0x1da>
    17aa:	9e 01       	movw	r18, r28
    17ac:	2b 52       	subi	r18, 0x2B	; 43
    17ae:	3f 4f       	sbci	r19, 0xFF	; 255
    17b0:	8f 81       	ldd	r24, Y+7	; 0x07
    17b2:	98 85       	ldd	r25, Y+8	; 0x08
    17b4:	88 0f       	add	r24, r24
    17b6:	99 1f       	adc	r25, r25
    17b8:	82 0f       	add	r24, r18
    17ba:	93 1f       	adc	r25, r19
    17bc:	fc 01       	movw	r30, r24
    17be:	80 81       	ld	r24, Z
    17c0:	91 81       	ldd	r25, Z+1	; 0x01
    17c2:	89 2b       	or	r24, r25
    17c4:	99 f4       	brne	.+38     	; 0x17ec <dijkstra+0x1da>
    17c6:	8f 81       	ldd	r24, Y+7	; 0x07
    17c8:	98 85       	ldd	r25, Y+8	; 0x08
    17ca:	88 0f       	add	r24, r24
    17cc:	99 1f       	adc	r25, r25
    17ce:	9e 01       	movw	r18, r28
    17d0:	2f 5f       	subi	r18, 0xFF	; 255
    17d2:	3f 4f       	sbci	r19, 0xFF	; 255
    17d4:	82 0f       	add	r24, r18
    17d6:	93 1f       	adc	r25, r19
    17d8:	0c 96       	adiw	r24, 0x0c	; 12
    17da:	fc 01       	movw	r30, r24
    17dc:	80 81       	ld	r24, Z
    17de:	91 81       	ldd	r25, Z+1	; 0x01
    17e0:	9c 83       	std	Y+4, r25	; 0x04
    17e2:	8b 83       	std	Y+3, r24	; 0x03
    17e4:	8f 81       	ldd	r24, Y+7	; 0x07
    17e6:	98 85       	ldd	r25, Y+8	; 0x08
    17e8:	9e 83       	std	Y+6, r25	; 0x06
    17ea:	8d 83       	std	Y+5, r24	; 0x05
    17ec:	8f 81       	ldd	r24, Y+7	; 0x07
    17ee:	98 85       	ldd	r25, Y+8	; 0x08
    17f0:	01 96       	adiw	r24, 0x01	; 1
    17f2:	98 87       	std	Y+8, r25	; 0x08
    17f4:	8f 83       	std	Y+7, r24	; 0x07
    17f6:	80 91 00 14 	lds	r24, 0x1400	; 0x801400 <n>
    17fa:	90 91 01 14 	lds	r25, 0x1401	; 0x801401 <n+0x1>
    17fe:	2f 81       	ldd	r18, Y+7	; 0x07
    1800:	38 85       	ldd	r19, Y+8	; 0x08
    1802:	28 17       	cp	r18, r24
    1804:	39 07       	cpc	r19, r25
    1806:	0c f4       	brge	.+2      	; 0x180a <dijkstra+0x1f8>
    1808:	be cf       	rjmp	.-132    	; 0x1786 <dijkstra+0x174>
    180a:	9e 01       	movw	r18, r28
    180c:	2b 52       	subi	r18, 0x2B	; 43
    180e:	3f 4f       	sbci	r19, 0xFF	; 255
    1810:	8d 81       	ldd	r24, Y+5	; 0x05
    1812:	9e 81       	ldd	r25, Y+6	; 0x06
    1814:	88 0f       	add	r24, r24
    1816:	99 1f       	adc	r25, r25
    1818:	82 0f       	add	r24, r18
    181a:	93 1f       	adc	r25, r19
    181c:	21 e0       	ldi	r18, 0x01	; 1
    181e:	30 e0       	ldi	r19, 0x00	; 0
    1820:	fc 01       	movw	r30, r24
    1822:	31 83       	std	Z+1, r19	; 0x01
    1824:	20 83       	st	Z, r18
    1826:	18 86       	std	Y+8, r1	; 0x08
    1828:	1f 82       	std	Y+7, r1	; 0x07
    182a:	6d c0       	rjmp	.+218    	; 0x1906 <dijkstra+0x2f4>
    182c:	9e 01       	movw	r18, r28
    182e:	2b 52       	subi	r18, 0x2B	; 43
    1830:	3f 4f       	sbci	r19, 0xFF	; 255
    1832:	8f 81       	ldd	r24, Y+7	; 0x07
    1834:	98 85       	ldd	r25, Y+8	; 0x08
    1836:	88 0f       	add	r24, r24
    1838:	99 1f       	adc	r25, r25
    183a:	82 0f       	add	r24, r18
    183c:	93 1f       	adc	r25, r19
    183e:	fc 01       	movw	r30, r24
    1840:	80 81       	ld	r24, Z
    1842:	91 81       	ldd	r25, Z+1	; 0x01
    1844:	89 2b       	or	r24, r25
    1846:	09 f0       	breq	.+2      	; 0x184a <dijkstra+0x238>
    1848:	59 c0       	rjmp	.+178    	; 0x18fc <dijkstra+0x2ea>
    184a:	8d 81       	ldd	r24, Y+5	; 0x05
    184c:	9e 81       	ldd	r25, Y+6	; 0x06
    184e:	40 e3       	ldi	r20, 0x30	; 48
    1850:	48 9f       	mul	r20, r24
    1852:	90 01       	movw	r18, r0
    1854:	49 9f       	mul	r20, r25
    1856:	30 0d       	add	r19, r0
    1858:	11 24       	eor	r1, r1
    185a:	8f 81       	ldd	r24, Y+7	; 0x07
    185c:	98 85       	ldd	r25, Y+8	; 0x08
    185e:	82 0f       	add	r24, r18
    1860:	93 1f       	adc	r25, r19
    1862:	88 0f       	add	r24, r24
    1864:	99 1f       	adc	r25, r25
    1866:	80 50       	subi	r24, 0x00	; 0
    1868:	9e 4f       	sbci	r25, 0xFE	; 254
    186a:	fc 01       	movw	r30, r24
    186c:	20 81       	ld	r18, Z
    186e:	31 81       	ldd	r19, Z+1	; 0x01
    1870:	8b 81       	ldd	r24, Y+3	; 0x03
    1872:	9c 81       	ldd	r25, Y+4	; 0x04
    1874:	28 0f       	add	r18, r24
    1876:	39 1f       	adc	r19, r25
    1878:	8f 81       	ldd	r24, Y+7	; 0x07
    187a:	98 85       	ldd	r25, Y+8	; 0x08
    187c:	88 0f       	add	r24, r24
    187e:	99 1f       	adc	r25, r25
    1880:	ae 01       	movw	r20, r28
    1882:	4f 5f       	subi	r20, 0xFF	; 255
    1884:	5f 4f       	sbci	r21, 0xFF	; 255
    1886:	84 0f       	add	r24, r20
    1888:	95 1f       	adc	r25, r21
    188a:	0c 96       	adiw	r24, 0x0c	; 12
    188c:	fc 01       	movw	r30, r24
    188e:	80 81       	ld	r24, Z
    1890:	91 81       	ldd	r25, Z+1	; 0x01
    1892:	28 17       	cp	r18, r24
    1894:	39 07       	cpc	r19, r25
    1896:	94 f5       	brge	.+100    	; 0x18fc <dijkstra+0x2ea>
    1898:	8d 81       	ldd	r24, Y+5	; 0x05
    189a:	9e 81       	ldd	r25, Y+6	; 0x06
    189c:	40 e3       	ldi	r20, 0x30	; 48
    189e:	48 9f       	mul	r20, r24
    18a0:	90 01       	movw	r18, r0
    18a2:	49 9f       	mul	r20, r25
    18a4:	30 0d       	add	r19, r0
    18a6:	11 24       	eor	r1, r1
    18a8:	8f 81       	ldd	r24, Y+7	; 0x07
    18aa:	98 85       	ldd	r25, Y+8	; 0x08
    18ac:	82 0f       	add	r24, r18
    18ae:	93 1f       	adc	r25, r19
    18b0:	88 0f       	add	r24, r24
    18b2:	99 1f       	adc	r25, r25
    18b4:	80 50       	subi	r24, 0x00	; 0
    18b6:	9e 4f       	sbci	r25, 0xFE	; 254
    18b8:	fc 01       	movw	r30, r24
    18ba:	20 81       	ld	r18, Z
    18bc:	31 81       	ldd	r19, Z+1	; 0x01
    18be:	8b 81       	ldd	r24, Y+3	; 0x03
    18c0:	9c 81       	ldd	r25, Y+4	; 0x04
    18c2:	28 0f       	add	r18, r24
    18c4:	39 1f       	adc	r19, r25
    18c6:	8f 81       	ldd	r24, Y+7	; 0x07
    18c8:	98 85       	ldd	r25, Y+8	; 0x08
    18ca:	88 0f       	add	r24, r24
    18cc:	99 1f       	adc	r25, r25
    18ce:	ae 01       	movw	r20, r28
    18d0:	4f 5f       	subi	r20, 0xFF	; 255
    18d2:	5f 4f       	sbci	r21, 0xFF	; 255
    18d4:	84 0f       	add	r24, r20
    18d6:	95 1f       	adc	r25, r21
    18d8:	0c 96       	adiw	r24, 0x0c	; 12
    18da:	fc 01       	movw	r30, r24
    18dc:	31 83       	std	Z+1, r19	; 0x01
    18de:	20 83       	st	Z, r18
    18e0:	9e 01       	movw	r18, r28
    18e2:	2f 58       	subi	r18, 0x8F	; 143
    18e4:	3f 4f       	sbci	r19, 0xFF	; 255
    18e6:	8f 81       	ldd	r24, Y+7	; 0x07
    18e8:	98 85       	ldd	r25, Y+8	; 0x08
    18ea:	88 0f       	add	r24, r24
    18ec:	99 1f       	adc	r25, r25
    18ee:	82 0f       	add	r24, r18
    18f0:	93 1f       	adc	r25, r19
    18f2:	2d 81       	ldd	r18, Y+5	; 0x05
    18f4:	3e 81       	ldd	r19, Y+6	; 0x06
    18f6:	fc 01       	movw	r30, r24
    18f8:	31 83       	std	Z+1, r19	; 0x01
    18fa:	20 83       	st	Z, r18
    18fc:	8f 81       	ldd	r24, Y+7	; 0x07
    18fe:	98 85       	ldd	r25, Y+8	; 0x08
    1900:	01 96       	adiw	r24, 0x01	; 1
    1902:	98 87       	std	Y+8, r25	; 0x08
    1904:	8f 83       	std	Y+7, r24	; 0x07
    1906:	80 91 00 14 	lds	r24, 0x1400	; 0x801400 <n>
    190a:	90 91 01 14 	lds	r25, 0x1401	; 0x801401 <n+0x1>
    190e:	2f 81       	ldd	r18, Y+7	; 0x07
    1910:	38 85       	ldd	r19, Y+8	; 0x08
    1912:	28 17       	cp	r18, r24
    1914:	39 07       	cpc	r19, r25
    1916:	0c f4       	brge	.+2      	; 0x191a <dijkstra+0x308>
    1918:	89 cf       	rjmp	.-238    	; 0x182c <dijkstra+0x21a>
    191a:	89 81       	ldd	r24, Y+1	; 0x01
    191c:	9a 81       	ldd	r25, Y+2	; 0x02
    191e:	01 96       	adiw	r24, 0x01	; 1
    1920:	9a 83       	std	Y+2, r25	; 0x02
    1922:	89 83       	std	Y+1, r24	; 0x01
    1924:	80 91 00 14 	lds	r24, 0x1400	; 0x801400 <n>
    1928:	90 91 01 14 	lds	r25, 0x1401	; 0x801401 <n+0x1>
    192c:	9c 01       	movw	r18, r24
    192e:	21 50       	subi	r18, 0x01	; 1
    1930:	31 09       	sbc	r19, r1
    1932:	89 81       	ldd	r24, Y+1	; 0x01
    1934:	9a 81       	ldd	r25, Y+2	; 0x02
    1936:	82 17       	cp	r24, r18
    1938:	93 07       	cpc	r25, r19
    193a:	0c f4       	brge	.+2      	; 0x193e <dijkstra+0x32c>
    193c:	1d cf       	rjmp	.-454    	; 0x1778 <dijkstra+0x166>
    193e:	18 86       	std	Y+8, r1	; 0x08
    1940:	1f 82       	std	Y+7, r1	; 0x07
    1942:	51 c0       	rjmp	.+162    	; 0x19e6 <dijkstra+0x3d4>
    1944:	ce 01       	movw	r24, r28
    1946:	85 5c       	subi	r24, 0xC5	; 197
    1948:	9e 4f       	sbci	r25, 0xFE	; 254
    194a:	2f 81       	ldd	r18, Y+7	; 0x07
    194c:	38 85       	ldd	r19, Y+8	; 0x08
    194e:	fc 01       	movw	r30, r24
    1950:	80 81       	ld	r24, Z
    1952:	91 81       	ldd	r25, Z+1	; 0x01
    1954:	28 17       	cp	r18, r24
    1956:	39 07       	cpc	r19, r25
    1958:	09 f0       	breq	.+2      	; 0x195c <dijkstra+0x34a>
    195a:	40 c0       	rjmp	.+128    	; 0x19dc <dijkstra+0x3ca>
    195c:	1c 86       	std	Y+12, r1	; 0x0c
    195e:	1b 86       	std	Y+11, r1	; 0x0b
    1960:	8f 81       	ldd	r24, Y+7	; 0x07
    1962:	98 85       	ldd	r25, Y+8	; 0x08
    1964:	9c 01       	movw	r18, r24
    1966:	2f 5f       	subi	r18, 0xFF	; 255
    1968:	3f 4f       	sbci	r19, 0xFF	; 255
    196a:	8b 85       	ldd	r24, Y+11	; 0x0b
    196c:	9c 85       	ldd	r25, Y+12	; 0x0c
    196e:	88 0f       	add	r24, r24
    1970:	99 1f       	adc	r25, r25
    1972:	8a 5b       	subi	r24, 0xBA	; 186
    1974:	9b 4e       	sbci	r25, 0xEB	; 235
    1976:	fc 01       	movw	r30, r24
    1978:	31 83       	std	Z+1, r19	; 0x01
    197a:	20 83       	st	Z, r18
    197c:	8f 81       	ldd	r24, Y+7	; 0x07
    197e:	98 85       	ldd	r25, Y+8	; 0x08
    1980:	9a 87       	std	Y+10, r25	; 0x0a
    1982:	89 87       	std	Y+9, r24	; 0x09
    1984:	9e 01       	movw	r18, r28
    1986:	2f 58       	subi	r18, 0x8F	; 143
    1988:	3f 4f       	sbci	r19, 0xFF	; 255
    198a:	89 85       	ldd	r24, Y+9	; 0x09
    198c:	9a 85       	ldd	r25, Y+10	; 0x0a
    198e:	88 0f       	add	r24, r24
    1990:	99 1f       	adc	r25, r25
    1992:	82 0f       	add	r24, r18
    1994:	93 1f       	adc	r25, r19
    1996:	fc 01       	movw	r30, r24
    1998:	80 81       	ld	r24, Z
    199a:	91 81       	ldd	r25, Z+1	; 0x01
    199c:	9a 87       	std	Y+10, r25	; 0x0a
    199e:	89 87       	std	Y+9, r24	; 0x09
    19a0:	8b 85       	ldd	r24, Y+11	; 0x0b
    19a2:	9c 85       	ldd	r25, Y+12	; 0x0c
    19a4:	01 96       	adiw	r24, 0x01	; 1
    19a6:	9c 87       	std	Y+12, r25	; 0x0c
    19a8:	8b 87       	std	Y+11, r24	; 0x0b
    19aa:	89 85       	ldd	r24, Y+9	; 0x09
    19ac:	9a 85       	ldd	r25, Y+10	; 0x0a
    19ae:	9c 01       	movw	r18, r24
    19b0:	2f 5f       	subi	r18, 0xFF	; 255
    19b2:	3f 4f       	sbci	r19, 0xFF	; 255
    19b4:	8b 85       	ldd	r24, Y+11	; 0x0b
    19b6:	9c 85       	ldd	r25, Y+12	; 0x0c
    19b8:	88 0f       	add	r24, r24
    19ba:	99 1f       	adc	r25, r25
    19bc:	8a 5b       	subi	r24, 0xBA	; 186
    19be:	9b 4e       	sbci	r25, 0xEB	; 235
    19c0:	fc 01       	movw	r30, r24
    19c2:	31 83       	std	Z+1, r19	; 0x01
    19c4:	20 83       	st	Z, r18
    19c6:	ce 01       	movw	r24, r28
    19c8:	87 5c       	subi	r24, 0xC7	; 199
    19ca:	9e 4f       	sbci	r25, 0xFE	; 254
    19cc:	29 85       	ldd	r18, Y+9	; 0x09
    19ce:	3a 85       	ldd	r19, Y+10	; 0x0a
    19d0:	fc 01       	movw	r30, r24
    19d2:	80 81       	ld	r24, Z
    19d4:	91 81       	ldd	r25, Z+1	; 0x01
    19d6:	28 17       	cp	r18, r24
    19d8:	39 07       	cpc	r19, r25
    19da:	a1 f6       	brne	.-88     	; 0x1984 <dijkstra+0x372>
    19dc:	8f 81       	ldd	r24, Y+7	; 0x07
    19de:	98 85       	ldd	r25, Y+8	; 0x08
    19e0:	01 96       	adiw	r24, 0x01	; 1
    19e2:	98 87       	std	Y+8, r25	; 0x08
    19e4:	8f 83       	std	Y+7, r24	; 0x07
    19e6:	80 91 00 14 	lds	r24, 0x1400	; 0x801400 <n>
    19ea:	90 91 01 14 	lds	r25, 0x1401	; 0x801401 <n+0x1>
    19ee:	2f 81       	ldd	r18, Y+7	; 0x07
    19f0:	38 85       	ldd	r19, Y+8	; 0x08
    19f2:	28 17       	cp	r18, r24
    19f4:	39 07       	cpc	r19, r25
    19f6:	0c f4       	brge	.+2      	; 0x19fa <dijkstra+0x3e8>
    19f8:	a5 cf       	rjmp	.-182    	; 0x1944 <dijkstra+0x332>
    19fa:	c4 5c       	subi	r28, 0xC4	; 196
    19fc:	de 4f       	sbci	r29, 0xFE	; 254
    19fe:	0f b6       	in	r0, 0x3f	; 63
    1a00:	f8 94       	cli
    1a02:	de bf       	out	0x3e, r29	; 62
    1a04:	0f be       	out	0x3f, r0	; 63
    1a06:	cd bf       	out	0x3d, r28	; 61
    1a08:	df 91       	pop	r29
    1a0a:	cf 91       	pop	r28
    1a0c:	08 95       	ret

00001a0e <lcd_port_config>:
    1a0e:	cf 93       	push	r28
    1a10:	df 93       	push	r29
    1a12:	cd b7       	in	r28, 0x3d	; 61
    1a14:	de b7       	in	r29, 0x3e	; 62
    1a16:	87 e2       	ldi	r24, 0x27	; 39
    1a18:	90 e0       	ldi	r25, 0x00	; 0
    1a1a:	27 e2       	ldi	r18, 0x27	; 39
    1a1c:	30 e0       	ldi	r19, 0x00	; 0
    1a1e:	f9 01       	movw	r30, r18
    1a20:	20 81       	ld	r18, Z
    1a22:	27 6f       	ori	r18, 0xF7	; 247
    1a24:	fc 01       	movw	r30, r24
    1a26:	20 83       	st	Z, r18
    1a28:	88 e2       	ldi	r24, 0x28	; 40
    1a2a:	90 e0       	ldi	r25, 0x00	; 0
    1a2c:	28 e2       	ldi	r18, 0x28	; 40
    1a2e:	30 e0       	ldi	r19, 0x00	; 0
    1a30:	f9 01       	movw	r30, r18
    1a32:	20 81       	ld	r18, Z
    1a34:	20 78       	andi	r18, 0x80	; 128
    1a36:	fc 01       	movw	r30, r24
    1a38:	20 83       	st	Z, r18
    1a3a:	df 91       	pop	r29
    1a3c:	cf 91       	pop	r28
    1a3e:	08 95       	ret

00001a40 <interrupt_switch_config>:
    1a40:	cf 93       	push	r28
    1a42:	df 93       	push	r29
    1a44:	cd b7       	in	r28, 0x3d	; 61
    1a46:	de b7       	in	r29, 0x3e	; 62
    1a48:	8d e2       	ldi	r24, 0x2D	; 45
    1a4a:	90 e0       	ldi	r25, 0x00	; 0
    1a4c:	2d e2       	ldi	r18, 0x2D	; 45
    1a4e:	30 e0       	ldi	r19, 0x00	; 0
    1a50:	f9 01       	movw	r30, r18
    1a52:	20 81       	ld	r18, Z
    1a54:	2f 77       	andi	r18, 0x7F	; 127
    1a56:	fc 01       	movw	r30, r24
    1a58:	20 83       	st	Z, r18
    1a5a:	8e e2       	ldi	r24, 0x2E	; 46
    1a5c:	90 e0       	ldi	r25, 0x00	; 0
    1a5e:	2e e2       	ldi	r18, 0x2E	; 46
    1a60:	30 e0       	ldi	r19, 0x00	; 0
    1a62:	f9 01       	movw	r30, r18
    1a64:	20 81       	ld	r18, Z
    1a66:	20 68       	ori	r18, 0x80	; 128
    1a68:	fc 01       	movw	r30, r24
    1a6a:	20 83       	st	Z, r18
    1a6c:	df 91       	pop	r29
    1a6e:	cf 91       	pop	r28
    1a70:	08 95       	ret

00001a72 <servo1_pin_config>:
    1a72:	cf 93       	push	r28
    1a74:	df 93       	push	r29
    1a76:	cd b7       	in	r28, 0x3d	; 61
    1a78:	de b7       	in	r29, 0x3e	; 62
    1a7a:	84 e2       	ldi	r24, 0x24	; 36
    1a7c:	90 e0       	ldi	r25, 0x00	; 0
    1a7e:	24 e2       	ldi	r18, 0x24	; 36
    1a80:	30 e0       	ldi	r19, 0x00	; 0
    1a82:	f9 01       	movw	r30, r18
    1a84:	20 81       	ld	r18, Z
    1a86:	20 62       	ori	r18, 0x20	; 32
    1a88:	fc 01       	movw	r30, r24
    1a8a:	20 83       	st	Z, r18
    1a8c:	85 e2       	ldi	r24, 0x25	; 37
    1a8e:	90 e0       	ldi	r25, 0x00	; 0
    1a90:	25 e2       	ldi	r18, 0x25	; 37
    1a92:	30 e0       	ldi	r19, 0x00	; 0
    1a94:	f9 01       	movw	r30, r18
    1a96:	20 81       	ld	r18, Z
    1a98:	20 62       	ori	r18, 0x20	; 32
    1a9a:	fc 01       	movw	r30, r24
    1a9c:	20 83       	st	Z, r18
    1a9e:	df 91       	pop	r29
    1aa0:	cf 91       	pop	r28
    1aa2:	08 95       	ret

00001aa4 <adc_pin_config>:
    1aa4:	cf 93       	push	r28
    1aa6:	df 93       	push	r29
    1aa8:	cd b7       	in	r28, 0x3d	; 61
    1aaa:	de b7       	in	r29, 0x3e	; 62
    1aac:	80 e3       	ldi	r24, 0x30	; 48
    1aae:	90 e0       	ldi	r25, 0x00	; 0
    1ab0:	fc 01       	movw	r30, r24
    1ab2:	10 82       	st	Z, r1
    1ab4:	81 e3       	ldi	r24, 0x31	; 49
    1ab6:	90 e0       	ldi	r25, 0x00	; 0
    1ab8:	fc 01       	movw	r30, r24
    1aba:	10 82       	st	Z, r1
    1abc:	87 e0       	ldi	r24, 0x07	; 7
    1abe:	91 e0       	ldi	r25, 0x01	; 1
    1ac0:	fc 01       	movw	r30, r24
    1ac2:	10 82       	st	Z, r1
    1ac4:	88 e0       	ldi	r24, 0x08	; 8
    1ac6:	91 e0       	ldi	r25, 0x01	; 1
    1ac8:	fc 01       	movw	r30, r24
    1aca:	10 82       	st	Z, r1
    1acc:	df 91       	pop	r29
    1ace:	cf 91       	pop	r28
    1ad0:	08 95       	ret

00001ad2 <motion_pin_config>:
    1ad2:	cf 93       	push	r28
    1ad4:	df 93       	push	r29
    1ad6:	cd b7       	in	r28, 0x3d	; 61
    1ad8:	de b7       	in	r29, 0x3e	; 62
    1ada:	81 e2       	ldi	r24, 0x21	; 33
    1adc:	90 e0       	ldi	r25, 0x00	; 0
    1ade:	21 e2       	ldi	r18, 0x21	; 33
    1ae0:	30 e0       	ldi	r19, 0x00	; 0
    1ae2:	f9 01       	movw	r30, r18
    1ae4:	20 81       	ld	r18, Z
    1ae6:	2f 60       	ori	r18, 0x0F	; 15
    1ae8:	fc 01       	movw	r30, r24
    1aea:	20 83       	st	Z, r18
    1aec:	82 e2       	ldi	r24, 0x22	; 34
    1aee:	90 e0       	ldi	r25, 0x00	; 0
    1af0:	22 e2       	ldi	r18, 0x22	; 34
    1af2:	30 e0       	ldi	r19, 0x00	; 0
    1af4:	f9 01       	movw	r30, r18
    1af6:	20 81       	ld	r18, Z
    1af8:	20 7f       	andi	r18, 0xF0	; 240
    1afa:	fc 01       	movw	r30, r24
    1afc:	20 83       	st	Z, r18
    1afe:	8a e0       	ldi	r24, 0x0A	; 10
    1b00:	91 e0       	ldi	r25, 0x01	; 1
    1b02:	2a e0       	ldi	r18, 0x0A	; 10
    1b04:	31 e0       	ldi	r19, 0x01	; 1
    1b06:	f9 01       	movw	r30, r18
    1b08:	20 81       	ld	r18, Z
    1b0a:	28 61       	ori	r18, 0x18	; 24
    1b0c:	fc 01       	movw	r30, r24
    1b0e:	20 83       	st	Z, r18
    1b10:	8b e0       	ldi	r24, 0x0B	; 11
    1b12:	91 e0       	ldi	r25, 0x01	; 1
    1b14:	2b e0       	ldi	r18, 0x0B	; 11
    1b16:	31 e0       	ldi	r19, 0x01	; 1
    1b18:	f9 01       	movw	r30, r18
    1b1a:	20 81       	ld	r18, Z
    1b1c:	28 61       	ori	r18, 0x18	; 24
    1b1e:	fc 01       	movw	r30, r24
    1b20:	20 83       	st	Z, r18
    1b22:	df 91       	pop	r29
    1b24:	cf 91       	pop	r28
    1b26:	08 95       	ret

00001b28 <left_encoder_pin_config>:
    1b28:	cf 93       	push	r28
    1b2a:	df 93       	push	r29
    1b2c:	cd b7       	in	r28, 0x3d	; 61
    1b2e:	de b7       	in	r29, 0x3e	; 62
    1b30:	8d e2       	ldi	r24, 0x2D	; 45
    1b32:	90 e0       	ldi	r25, 0x00	; 0
    1b34:	2d e2       	ldi	r18, 0x2D	; 45
    1b36:	30 e0       	ldi	r19, 0x00	; 0
    1b38:	f9 01       	movw	r30, r18
    1b3a:	20 81       	ld	r18, Z
    1b3c:	2f 7e       	andi	r18, 0xEF	; 239
    1b3e:	fc 01       	movw	r30, r24
    1b40:	20 83       	st	Z, r18
    1b42:	8e e2       	ldi	r24, 0x2E	; 46
    1b44:	90 e0       	ldi	r25, 0x00	; 0
    1b46:	2e e2       	ldi	r18, 0x2E	; 46
    1b48:	30 e0       	ldi	r19, 0x00	; 0
    1b4a:	f9 01       	movw	r30, r18
    1b4c:	20 81       	ld	r18, Z
    1b4e:	20 61       	ori	r18, 0x10	; 16
    1b50:	fc 01       	movw	r30, r24
    1b52:	20 83       	st	Z, r18
    1b54:	df 91       	pop	r29
    1b56:	cf 91       	pop	r28
    1b58:	08 95       	ret

00001b5a <right_encoder_pin_config>:
    1b5a:	cf 93       	push	r28
    1b5c:	df 93       	push	r29
    1b5e:	cd b7       	in	r28, 0x3d	; 61
    1b60:	de b7       	in	r29, 0x3e	; 62
    1b62:	8d e2       	ldi	r24, 0x2D	; 45
    1b64:	90 e0       	ldi	r25, 0x00	; 0
    1b66:	2d e2       	ldi	r18, 0x2D	; 45
    1b68:	30 e0       	ldi	r19, 0x00	; 0
    1b6a:	f9 01       	movw	r30, r18
    1b6c:	20 81       	ld	r18, Z
    1b6e:	2f 7d       	andi	r18, 0xDF	; 223
    1b70:	fc 01       	movw	r30, r24
    1b72:	20 83       	st	Z, r18
    1b74:	8e e2       	ldi	r24, 0x2E	; 46
    1b76:	90 e0       	ldi	r25, 0x00	; 0
    1b78:	2e e2       	ldi	r18, 0x2E	; 46
    1b7a:	30 e0       	ldi	r19, 0x00	; 0
    1b7c:	f9 01       	movw	r30, r18
    1b7e:	20 81       	ld	r18, Z
    1b80:	20 62       	ori	r18, 0x20	; 32
    1b82:	fc 01       	movw	r30, r24
    1b84:	20 83       	st	Z, r18
    1b86:	df 91       	pop	r29
    1b88:	cf 91       	pop	r28
    1b8a:	08 95       	ret

00001b8c <buzzer_pin_config>:
    1b8c:	cf 93       	push	r28
    1b8e:	df 93       	push	r29
    1b90:	cd b7       	in	r28, 0x3d	; 61
    1b92:	de b7       	in	r29, 0x3e	; 62
    1b94:	87 e2       	ldi	r24, 0x27	; 39
    1b96:	90 e0       	ldi	r25, 0x00	; 0
    1b98:	27 e2       	ldi	r18, 0x27	; 39
    1b9a:	30 e0       	ldi	r19, 0x00	; 0
    1b9c:	f9 01       	movw	r30, r18
    1b9e:	20 81       	ld	r18, Z
    1ba0:	28 60       	ori	r18, 0x08	; 8
    1ba2:	fc 01       	movw	r30, r24
    1ba4:	20 83       	st	Z, r18
    1ba6:	88 e2       	ldi	r24, 0x28	; 40
    1ba8:	90 e0       	ldi	r25, 0x00	; 0
    1baa:	28 e2       	ldi	r18, 0x28	; 40
    1bac:	30 e0       	ldi	r19, 0x00	; 0
    1bae:	f9 01       	movw	r30, r18
    1bb0:	20 81       	ld	r18, Z
    1bb2:	27 7f       	andi	r18, 0xF7	; 247
    1bb4:	fc 01       	movw	r30, r24
    1bb6:	20 83       	st	Z, r18
    1bb8:	df 91       	pop	r29
    1bba:	cf 91       	pop	r28
    1bbc:	08 95       	ret

00001bbe <port_init>:
    1bbe:	cf 93       	push	r28
    1bc0:	df 93       	push	r29
    1bc2:	cd b7       	in	r28, 0x3d	; 61
    1bc4:	de b7       	in	r29, 0x3e	; 62
    1bc6:	23 df       	rcall	.-442    	; 0x1a0e <lcd_port_config>
    1bc8:	6d df       	rcall	.-294    	; 0x1aa4 <adc_pin_config>
    1bca:	3a df       	rcall	.-396    	; 0x1a40 <interrupt_switch_config>
    1bcc:	52 df       	rcall	.-348    	; 0x1a72 <servo1_pin_config>
    1bce:	81 df       	rcall	.-254    	; 0x1ad2 <motion_pin_config>
    1bd0:	dd df       	rcall	.-70     	; 0x1b8c <buzzer_pin_config>
    1bd2:	aa df       	rcall	.-172    	; 0x1b28 <left_encoder_pin_config>
    1bd4:	c2 df       	rcall	.-124    	; 0x1b5a <right_encoder_pin_config>
    1bd6:	df 91       	pop	r29
    1bd8:	cf 91       	pop	r28
    1bda:	08 95       	ret

00001bdc <left_position_encoder_interrupt_init>:
    1bdc:	cf 93       	push	r28
    1bde:	df 93       	push	r29
    1be0:	cd b7       	in	r28, 0x3d	; 61
    1be2:	de b7       	in	r29, 0x3e	; 62
    1be4:	f8 94       	cli
    1be6:	8a e6       	ldi	r24, 0x6A	; 106
    1be8:	90 e0       	ldi	r25, 0x00	; 0
    1bea:	2a e6       	ldi	r18, 0x6A	; 106
    1bec:	30 e0       	ldi	r19, 0x00	; 0
    1bee:	f9 01       	movw	r30, r18
    1bf0:	20 81       	ld	r18, Z
    1bf2:	22 60       	ori	r18, 0x02	; 2
    1bf4:	fc 01       	movw	r30, r24
    1bf6:	20 83       	st	Z, r18
    1bf8:	8d e3       	ldi	r24, 0x3D	; 61
    1bfa:	90 e0       	ldi	r25, 0x00	; 0
    1bfc:	2d e3       	ldi	r18, 0x3D	; 61
    1bfe:	30 e0       	ldi	r19, 0x00	; 0
    1c00:	f9 01       	movw	r30, r18
    1c02:	20 81       	ld	r18, Z
    1c04:	20 61       	ori	r18, 0x10	; 16
    1c06:	fc 01       	movw	r30, r24
    1c08:	20 83       	st	Z, r18
    1c0a:	78 94       	sei
    1c0c:	df 91       	pop	r29
    1c0e:	cf 91       	pop	r28
    1c10:	08 95       	ret

00001c12 <right_position_encoder_interrupt_init>:
    1c12:	cf 93       	push	r28
    1c14:	df 93       	push	r29
    1c16:	cd b7       	in	r28, 0x3d	; 61
    1c18:	de b7       	in	r29, 0x3e	; 62
    1c1a:	f8 94       	cli
    1c1c:	8a e6       	ldi	r24, 0x6A	; 106
    1c1e:	90 e0       	ldi	r25, 0x00	; 0
    1c20:	2a e6       	ldi	r18, 0x6A	; 106
    1c22:	30 e0       	ldi	r19, 0x00	; 0
    1c24:	f9 01       	movw	r30, r18
    1c26:	20 81       	ld	r18, Z
    1c28:	28 60       	ori	r18, 0x08	; 8
    1c2a:	fc 01       	movw	r30, r24
    1c2c:	20 83       	st	Z, r18
    1c2e:	8d e3       	ldi	r24, 0x3D	; 61
    1c30:	90 e0       	ldi	r25, 0x00	; 0
    1c32:	2d e3       	ldi	r18, 0x3D	; 61
    1c34:	30 e0       	ldi	r19, 0x00	; 0
    1c36:	f9 01       	movw	r30, r18
    1c38:	20 81       	ld	r18, Z
    1c3a:	20 62       	ori	r18, 0x20	; 32
    1c3c:	fc 01       	movw	r30, r24
    1c3e:	20 83       	st	Z, r18
    1c40:	78 94       	sei
    1c42:	df 91       	pop	r29
    1c44:	cf 91       	pop	r28
    1c46:	08 95       	ret

00001c48 <__vector_6>:
    1c48:	1f 92       	push	r1
    1c4a:	0f 92       	push	r0
    1c4c:	00 90 5f 00 	lds	r0, 0x005F	; 0x80005f <__TEXT_REGION_LENGTH__+0x70005f>
    1c50:	0f 92       	push	r0
    1c52:	11 24       	eor	r1, r1
    1c54:	8f 93       	push	r24
    1c56:	9f 93       	push	r25
    1c58:	af 93       	push	r26
    1c5a:	bf 93       	push	r27
    1c5c:	cf 93       	push	r28
    1c5e:	df 93       	push	r29
    1c60:	cd b7       	in	r28, 0x3d	; 61
    1c62:	de b7       	in	r29, 0x3e	; 62
    1c64:	80 91 0c 14 	lds	r24, 0x140C	; 0x80140c <ShaftCountRight>
    1c68:	90 91 0d 14 	lds	r25, 0x140D	; 0x80140d <ShaftCountRight+0x1>
    1c6c:	a0 91 0e 14 	lds	r26, 0x140E	; 0x80140e <ShaftCountRight+0x2>
    1c70:	b0 91 0f 14 	lds	r27, 0x140F	; 0x80140f <ShaftCountRight+0x3>
    1c74:	01 96       	adiw	r24, 0x01	; 1
    1c76:	a1 1d       	adc	r26, r1
    1c78:	b1 1d       	adc	r27, r1
    1c7a:	80 93 0c 14 	sts	0x140C, r24	; 0x80140c <ShaftCountRight>
    1c7e:	90 93 0d 14 	sts	0x140D, r25	; 0x80140d <ShaftCountRight+0x1>
    1c82:	a0 93 0e 14 	sts	0x140E, r26	; 0x80140e <ShaftCountRight+0x2>
    1c86:	b0 93 0f 14 	sts	0x140F, r27	; 0x80140f <ShaftCountRight+0x3>
    1c8a:	df 91       	pop	r29
    1c8c:	cf 91       	pop	r28
    1c8e:	bf 91       	pop	r27
    1c90:	af 91       	pop	r26
    1c92:	9f 91       	pop	r25
    1c94:	8f 91       	pop	r24
    1c96:	0f 90       	pop	r0
    1c98:	00 92 5f 00 	sts	0x005F, r0	; 0x80005f <__TEXT_REGION_LENGTH__+0x70005f>
    1c9c:	0f 90       	pop	r0
    1c9e:	1f 90       	pop	r1
    1ca0:	18 95       	reti

00001ca2 <__vector_5>:
    1ca2:	1f 92       	push	r1
    1ca4:	0f 92       	push	r0
    1ca6:	00 90 5f 00 	lds	r0, 0x005F	; 0x80005f <__TEXT_REGION_LENGTH__+0x70005f>
    1caa:	0f 92       	push	r0
    1cac:	11 24       	eor	r1, r1
    1cae:	8f 93       	push	r24
    1cb0:	9f 93       	push	r25
    1cb2:	af 93       	push	r26
    1cb4:	bf 93       	push	r27
    1cb6:	cf 93       	push	r28
    1cb8:	df 93       	push	r29
    1cba:	cd b7       	in	r28, 0x3d	; 61
    1cbc:	de b7       	in	r29, 0x3e	; 62
    1cbe:	80 91 08 14 	lds	r24, 0x1408	; 0x801408 <__data_end>
    1cc2:	90 91 09 14 	lds	r25, 0x1409	; 0x801409 <__data_end+0x1>
    1cc6:	a0 91 0a 14 	lds	r26, 0x140A	; 0x80140a <__data_end+0x2>
    1cca:	b0 91 0b 14 	lds	r27, 0x140B	; 0x80140b <__data_end+0x3>
    1cce:	01 96       	adiw	r24, 0x01	; 1
    1cd0:	a1 1d       	adc	r26, r1
    1cd2:	b1 1d       	adc	r27, r1
    1cd4:	80 93 08 14 	sts	0x1408, r24	; 0x801408 <__data_end>
    1cd8:	90 93 09 14 	sts	0x1409, r25	; 0x801409 <__data_end+0x1>
    1cdc:	a0 93 0a 14 	sts	0x140A, r26	; 0x80140a <__data_end+0x2>
    1ce0:	b0 93 0b 14 	sts	0x140B, r27	; 0x80140b <__data_end+0x3>
    1ce4:	df 91       	pop	r29
    1ce6:	cf 91       	pop	r28
    1ce8:	bf 91       	pop	r27
    1cea:	af 91       	pop	r26
    1cec:	9f 91       	pop	r25
    1cee:	8f 91       	pop	r24
    1cf0:	0f 90       	pop	r0
    1cf2:	00 92 5f 00 	sts	0x005F, r0	; 0x80005f <__TEXT_REGION_LENGTH__+0x70005f>
    1cf6:	0f 90       	pop	r0
    1cf8:	1f 90       	pop	r1
    1cfa:	18 95       	reti

00001cfc <angle_rotate>:
    1cfc:	cf 93       	push	r28
    1cfe:	df 93       	push	r29
    1d00:	cd b7       	in	r28, 0x3d	; 61
    1d02:	de b7       	in	r29, 0x3e	; 62
    1d04:	2a 97       	sbiw	r28, 0x0a	; 10
    1d06:	0f b6       	in	r0, 0x3f	; 63
    1d08:	f8 94       	cli
    1d0a:	de bf       	out	0x3e, r29	; 62
    1d0c:	0f be       	out	0x3f, r0	; 63
    1d0e:	cd bf       	out	0x3d, r28	; 61
    1d10:	9a 87       	std	Y+10, r25	; 0x0a
    1d12:	89 87       	std	Y+9, r24	; 0x09
    1d14:	19 82       	std	Y+1, r1	; 0x01
    1d16:	1a 82       	std	Y+2, r1	; 0x02
    1d18:	1b 82       	std	Y+3, r1	; 0x03
    1d1a:	1c 82       	std	Y+4, r1	; 0x04
    1d1c:	1d 82       	std	Y+5, r1	; 0x05
    1d1e:	1e 82       	std	Y+6, r1	; 0x06
    1d20:	1f 82       	std	Y+7, r1	; 0x07
    1d22:	18 86       	std	Y+8, r1	; 0x08
    1d24:	89 85       	ldd	r24, Y+9	; 0x09
    1d26:	9a 85       	ldd	r25, Y+10	; 0x0a
    1d28:	cc 01       	movw	r24, r24
    1d2a:	a0 e0       	ldi	r26, 0x00	; 0
    1d2c:	b0 e0       	ldi	r27, 0x00	; 0
    1d2e:	bc 01       	movw	r22, r24
    1d30:	cd 01       	movw	r24, r26
    1d32:	0e 94 0c 28 	call	0x5018	; 0x5018 <__floatunsisf>
    1d36:	dc 01       	movw	r26, r24
    1d38:	cb 01       	movw	r24, r22
    1d3a:	28 e4       	ldi	r18, 0x48	; 72
    1d3c:	31 ee       	ldi	r19, 0xE1	; 225
    1d3e:	42 e8       	ldi	r20, 0x82	; 130
    1d40:	50 e4       	ldi	r21, 0x40	; 64
    1d42:	bc 01       	movw	r22, r24
    1d44:	cd 01       	movw	r24, r26
    1d46:	0e 94 78 27 	call	0x4ef0	; 0x4ef0 <__divsf3>
    1d4a:	dc 01       	movw	r26, r24
    1d4c:	cb 01       	movw	r24, r22
    1d4e:	89 83       	std	Y+1, r24	; 0x01
    1d50:	9a 83       	std	Y+2, r25	; 0x02
    1d52:	ab 83       	std	Y+3, r26	; 0x03
    1d54:	bc 83       	std	Y+4, r27	; 0x04
    1d56:	69 81       	ldd	r22, Y+1	; 0x01
    1d58:	7a 81       	ldd	r23, Y+2	; 0x02
    1d5a:	8b 81       	ldd	r24, Y+3	; 0x03
    1d5c:	9c 81       	ldd	r25, Y+4	; 0x04
    1d5e:	0e 94 e0 27 	call	0x4fc0	; 0x4fc0 <__fixunssfsi>
    1d62:	dc 01       	movw	r26, r24
    1d64:	cb 01       	movw	r24, r22
    1d66:	cc 01       	movw	r24, r24
    1d68:	a0 e0       	ldi	r26, 0x00	; 0
    1d6a:	b0 e0       	ldi	r27, 0x00	; 0
    1d6c:	8d 83       	std	Y+5, r24	; 0x05
    1d6e:	9e 83       	std	Y+6, r25	; 0x06
    1d70:	af 83       	std	Y+7, r26	; 0x07
    1d72:	b8 87       	std	Y+8, r27	; 0x08
    1d74:	10 92 0c 14 	sts	0x140C, r1	; 0x80140c <ShaftCountRight>
    1d78:	10 92 0d 14 	sts	0x140D, r1	; 0x80140d <ShaftCountRight+0x1>
    1d7c:	10 92 0e 14 	sts	0x140E, r1	; 0x80140e <ShaftCountRight+0x2>
    1d80:	10 92 0f 14 	sts	0x140F, r1	; 0x80140f <ShaftCountRight+0x3>
    1d84:	10 92 08 14 	sts	0x1408, r1	; 0x801408 <__data_end>
    1d88:	10 92 09 14 	sts	0x1409, r1	; 0x801409 <__data_end+0x1>
    1d8c:	10 92 0a 14 	sts	0x140A, r1	; 0x80140a <__data_end+0x2>
    1d90:	10 92 0b 14 	sts	0x140B, r1	; 0x80140b <__data_end+0x3>
    1d94:	20 91 0c 14 	lds	r18, 0x140C	; 0x80140c <ShaftCountRight>
    1d98:	30 91 0d 14 	lds	r19, 0x140D	; 0x80140d <ShaftCountRight+0x1>
    1d9c:	40 91 0e 14 	lds	r20, 0x140E	; 0x80140e <ShaftCountRight+0x2>
    1da0:	50 91 0f 14 	lds	r21, 0x140F	; 0x80140f <ShaftCountRight+0x3>
    1da4:	71 e0       	ldi	r23, 0x01	; 1
    1da6:	8d 81       	ldd	r24, Y+5	; 0x05
    1da8:	9e 81       	ldd	r25, Y+6	; 0x06
    1daa:	af 81       	ldd	r26, Y+7	; 0x07
    1dac:	b8 85       	ldd	r27, Y+8	; 0x08
    1dae:	28 17       	cp	r18, r24
    1db0:	39 07       	cpc	r19, r25
    1db2:	4a 07       	cpc	r20, r26
    1db4:	5b 07       	cpc	r21, r27
    1db6:	08 f4       	brcc	.+2      	; 0x1dba <angle_rotate+0xbe>
    1db8:	70 e0       	ldi	r23, 0x00	; 0
    1dba:	20 91 08 14 	lds	r18, 0x1408	; 0x801408 <__data_end>
    1dbe:	30 91 09 14 	lds	r19, 0x1409	; 0x801409 <__data_end+0x1>
    1dc2:	40 91 0a 14 	lds	r20, 0x140A	; 0x80140a <__data_end+0x2>
    1dc6:	50 91 0b 14 	lds	r21, 0x140B	; 0x80140b <__data_end+0x3>
    1dca:	61 e0       	ldi	r22, 0x01	; 1
    1dcc:	8d 81       	ldd	r24, Y+5	; 0x05
    1dce:	9e 81       	ldd	r25, Y+6	; 0x06
    1dd0:	af 81       	ldd	r26, Y+7	; 0x07
    1dd2:	b8 85       	ldd	r27, Y+8	; 0x08
    1dd4:	28 17       	cp	r18, r24
    1dd6:	39 07       	cpc	r19, r25
    1dd8:	4a 07       	cpc	r20, r26
    1dda:	5b 07       	cpc	r21, r27
    1ddc:	08 f4       	brcc	.+2      	; 0x1de0 <angle_rotate+0xe4>
    1dde:	60 e0       	ldi	r22, 0x00	; 0
    1de0:	87 2f       	mov	r24, r23
    1de2:	86 2b       	or	r24, r22
    1de4:	88 23       	and	r24, r24
    1de6:	09 f0       	breq	.+2      	; 0x1dea <angle_rotate+0xee>
    1de8:	01 c0       	rjmp	.+2      	; 0x1dec <angle_rotate+0xf0>
    1dea:	d4 cf       	rjmp	.-88     	; 0x1d94 <angle_rotate+0x98>
    1dec:	ef d2       	rcall	.+1502   	; 0x23cc <stop>
    1dee:	2a 96       	adiw	r28, 0x0a	; 10
    1df0:	0f b6       	in	r0, 0x3f	; 63
    1df2:	f8 94       	cli
    1df4:	de bf       	out	0x3e, r29	; 62
    1df6:	0f be       	out	0x3f, r0	; 63
    1df8:	cd bf       	out	0x3d, r28	; 61
    1dfa:	df 91       	pop	r29
    1dfc:	cf 91       	pop	r28
    1dfe:	08 95       	ret

00001e00 <linear_distance_mm>:
    1e00:	cf 93       	push	r28
    1e02:	df 93       	push	r29
    1e04:	cd b7       	in	r28, 0x3d	; 61
    1e06:	de b7       	in	r29, 0x3e	; 62
    1e08:	2a 97       	sbiw	r28, 0x0a	; 10
    1e0a:	0f b6       	in	r0, 0x3f	; 63
    1e0c:	f8 94       	cli
    1e0e:	de bf       	out	0x3e, r29	; 62
    1e10:	0f be       	out	0x3f, r0	; 63
    1e12:	cd bf       	out	0x3d, r28	; 61
    1e14:	9a 87       	std	Y+10, r25	; 0x0a
    1e16:	89 87       	std	Y+9, r24	; 0x09
    1e18:	19 82       	std	Y+1, r1	; 0x01
    1e1a:	1a 82       	std	Y+2, r1	; 0x02
    1e1c:	1b 82       	std	Y+3, r1	; 0x03
    1e1e:	1c 82       	std	Y+4, r1	; 0x04
    1e20:	1d 82       	std	Y+5, r1	; 0x05
    1e22:	1e 82       	std	Y+6, r1	; 0x06
    1e24:	1f 82       	std	Y+7, r1	; 0x07
    1e26:	18 86       	std	Y+8, r1	; 0x08
    1e28:	89 85       	ldd	r24, Y+9	; 0x09
    1e2a:	9a 85       	ldd	r25, Y+10	; 0x0a
    1e2c:	cc 01       	movw	r24, r24
    1e2e:	a0 e0       	ldi	r26, 0x00	; 0
    1e30:	b0 e0       	ldi	r27, 0x00	; 0
    1e32:	bc 01       	movw	r22, r24
    1e34:	cd 01       	movw	r24, r26
    1e36:	0e 94 0c 28 	call	0x5018	; 0x5018 <__floatunsisf>
    1e3a:	dc 01       	movw	r26, r24
    1e3c:	cb 01       	movw	r24, r22
    1e3e:	25 ee       	ldi	r18, 0xE5	; 229
    1e40:	30 ed       	ldi	r19, 0xD0	; 208
    1e42:	4a ea       	ldi	r20, 0xAA	; 170
    1e44:	50 e4       	ldi	r21, 0x40	; 64
    1e46:	bc 01       	movw	r22, r24
    1e48:	cd 01       	movw	r24, r26
    1e4a:	0e 94 78 27 	call	0x4ef0	; 0x4ef0 <__divsf3>
    1e4e:	dc 01       	movw	r26, r24
    1e50:	cb 01       	movw	r24, r22
    1e52:	89 83       	std	Y+1, r24	; 0x01
    1e54:	9a 83       	std	Y+2, r25	; 0x02
    1e56:	ab 83       	std	Y+3, r26	; 0x03
    1e58:	bc 83       	std	Y+4, r27	; 0x04
    1e5a:	69 81       	ldd	r22, Y+1	; 0x01
    1e5c:	7a 81       	ldd	r23, Y+2	; 0x02
    1e5e:	8b 81       	ldd	r24, Y+3	; 0x03
    1e60:	9c 81       	ldd	r25, Y+4	; 0x04
    1e62:	0e 94 e0 27 	call	0x4fc0	; 0x4fc0 <__fixunssfsi>
    1e66:	dc 01       	movw	r26, r24
    1e68:	cb 01       	movw	r24, r22
    1e6a:	8d 83       	std	Y+5, r24	; 0x05
    1e6c:	9e 83       	std	Y+6, r25	; 0x06
    1e6e:	af 83       	std	Y+7, r26	; 0x07
    1e70:	b8 87       	std	Y+8, r27	; 0x08
    1e72:	10 92 0c 14 	sts	0x140C, r1	; 0x80140c <ShaftCountRight>
    1e76:	10 92 0d 14 	sts	0x140D, r1	; 0x80140d <ShaftCountRight+0x1>
    1e7a:	10 92 0e 14 	sts	0x140E, r1	; 0x80140e <ShaftCountRight+0x2>
    1e7e:	10 92 0f 14 	sts	0x140F, r1	; 0x80140f <ShaftCountRight+0x3>
    1e82:	20 91 0c 14 	lds	r18, 0x140C	; 0x80140c <ShaftCountRight>
    1e86:	30 91 0d 14 	lds	r19, 0x140D	; 0x80140d <ShaftCountRight+0x1>
    1e8a:	40 91 0e 14 	lds	r20, 0x140E	; 0x80140e <ShaftCountRight+0x2>
    1e8e:	50 91 0f 14 	lds	r21, 0x140F	; 0x80140f <ShaftCountRight+0x3>
    1e92:	8d 81       	ldd	r24, Y+5	; 0x05
    1e94:	9e 81       	ldd	r25, Y+6	; 0x06
    1e96:	af 81       	ldd	r26, Y+7	; 0x07
    1e98:	b8 85       	ldd	r27, Y+8	; 0x08
    1e9a:	82 17       	cp	r24, r18
    1e9c:	93 07       	cpc	r25, r19
    1e9e:	a4 07       	cpc	r26, r20
    1ea0:	b5 07       	cpc	r27, r21
    1ea2:	08 f4       	brcc	.+2      	; 0x1ea6 <linear_distance_mm+0xa6>
    1ea4:	01 c0       	rjmp	.+2      	; 0x1ea8 <linear_distance_mm+0xa8>
    1ea6:	ed cf       	rjmp	.-38     	; 0x1e82 <linear_distance_mm+0x82>
    1ea8:	91 d2       	rcall	.+1314   	; 0x23cc <stop>
    1eaa:	2a 96       	adiw	r28, 0x0a	; 10
    1eac:	0f b6       	in	r0, 0x3f	; 63
    1eae:	f8 94       	cli
    1eb0:	de bf       	out	0x3e, r29	; 62
    1eb2:	0f be       	out	0x3f, r0	; 63
    1eb4:	cd bf       	out	0x3d, r28	; 61
    1eb6:	df 91       	pop	r29
    1eb8:	cf 91       	pop	r28
    1eba:	08 95       	ret

00001ebc <forward_mm>:
    1ebc:	cf 93       	push	r28
    1ebe:	df 93       	push	r29
    1ec0:	1f 92       	push	r1
    1ec2:	1f 92       	push	r1
    1ec4:	cd b7       	in	r28, 0x3d	; 61
    1ec6:	de b7       	in	r29, 0x3e	; 62
    1ec8:	9a 83       	std	Y+2, r25	; 0x02
    1eca:	89 83       	std	Y+1, r24	; 0x01
    1ecc:	5b d2       	rcall	.+1206   	; 0x2384 <forward>
    1ece:	89 81       	ldd	r24, Y+1	; 0x01
    1ed0:	9a 81       	ldd	r25, Y+2	; 0x02
    1ed2:	96 df       	rcall	.-212    	; 0x1e00 <linear_distance_mm>
    1ed4:	0f 90       	pop	r0
    1ed6:	0f 90       	pop	r0
    1ed8:	df 91       	pop	r29
    1eda:	cf 91       	pop	r28
    1edc:	08 95       	ret

00001ede <backward_mm>:
    1ede:	cf 93       	push	r28
    1ee0:	df 93       	push	r29
    1ee2:	1f 92       	push	r1
    1ee4:	1f 92       	push	r1
    1ee6:	cd b7       	in	r28, 0x3d	; 61
    1ee8:	de b7       	in	r29, 0x3e	; 62
    1eea:	9a 83       	std	Y+2, r25	; 0x02
    1eec:	89 83       	std	Y+1, r24	; 0x01
    1eee:	53 d2       	rcall	.+1190   	; 0x2396 <back>
    1ef0:	89 81       	ldd	r24, Y+1	; 0x01
    1ef2:	9a 81       	ldd	r25, Y+2	; 0x02
    1ef4:	85 df       	rcall	.-246    	; 0x1e00 <linear_distance_mm>
    1ef6:	0f 90       	pop	r0
    1ef8:	0f 90       	pop	r0
    1efa:	df 91       	pop	r29
    1efc:	cf 91       	pop	r28
    1efe:	08 95       	ret

00001f00 <left_degrees>:
    1f00:	cf 93       	push	r28
    1f02:	df 93       	push	r29
    1f04:	cd b7       	in	r28, 0x3d	; 61
    1f06:	de b7       	in	r29, 0x3e	; 62
    1f08:	60 97       	sbiw	r28, 0x10	; 16
    1f0a:	0f b6       	in	r0, 0x3f	; 63
    1f0c:	f8 94       	cli
    1f0e:	de bf       	out	0x3e, r29	; 62
    1f10:	0f be       	out	0x3f, r0	; 63
    1f12:	cd bf       	out	0x3d, r28	; 61
    1f14:	98 8b       	std	Y+16, r25	; 0x10
    1f16:	8f 87       	std	Y+15, r24	; 0x0f
    1f18:	8c e3       	ldi	r24, 0x3C	; 60
    1f1a:	90 e0       	ldi	r25, 0x00	; 0
    1f1c:	cf df       	rcall	.-98     	; 0x1ebc <forward_mm>
    1f1e:	56 d2       	rcall	.+1196   	; 0x23cc <stop>
    1f20:	80 e0       	ldi	r24, 0x00	; 0
    1f22:	90 e0       	ldi	r25, 0x00	; 0
    1f24:	a8 ec       	ldi	r26, 0xC8	; 200
    1f26:	b2 e4       	ldi	r27, 0x42	; 66
    1f28:	89 83       	std	Y+1, r24	; 0x01
    1f2a:	9a 83       	std	Y+2, r25	; 0x02
    1f2c:	ab 83       	std	Y+3, r26	; 0x03
    1f2e:	bc 83       	std	Y+4, r27	; 0x04
    1f30:	26 e6       	ldi	r18, 0x66	; 102
    1f32:	36 e6       	ldi	r19, 0x66	; 102
    1f34:	46 e6       	ldi	r20, 0x66	; 102
    1f36:	55 e4       	ldi	r21, 0x45	; 69
    1f38:	69 81       	ldd	r22, Y+1	; 0x01
    1f3a:	7a 81       	ldd	r23, Y+2	; 0x02
    1f3c:	8b 81       	ldd	r24, Y+3	; 0x03
    1f3e:	9c 81       	ldd	r25, Y+4	; 0x04
    1f40:	0e 94 c2 28 	call	0x5184	; 0x5184 <__mulsf3>
    1f44:	dc 01       	movw	r26, r24
    1f46:	cb 01       	movw	r24, r22
    1f48:	8d 83       	std	Y+5, r24	; 0x05
    1f4a:	9e 83       	std	Y+6, r25	; 0x06
    1f4c:	af 83       	std	Y+7, r26	; 0x07
    1f4e:	b8 87       	std	Y+8, r27	; 0x08
    1f50:	20 e0       	ldi	r18, 0x00	; 0
    1f52:	30 e0       	ldi	r19, 0x00	; 0
    1f54:	40 e8       	ldi	r20, 0x80	; 128
    1f56:	5f e3       	ldi	r21, 0x3F	; 63
    1f58:	6d 81       	ldd	r22, Y+5	; 0x05
    1f5a:	7e 81       	ldd	r23, Y+6	; 0x06
    1f5c:	8f 81       	ldd	r24, Y+7	; 0x07
    1f5e:	98 85       	ldd	r25, Y+8	; 0x08
    1f60:	0e 94 74 27 	call	0x4ee8	; 0x4ee8 <__cmpsf2>
    1f64:	88 23       	and	r24, r24
    1f66:	2c f4       	brge	.+10     	; 0x1f72 <left_degrees+0x72>
    1f68:	81 e0       	ldi	r24, 0x01	; 1
    1f6a:	90 e0       	ldi	r25, 0x00	; 0
    1f6c:	9a 87       	std	Y+10, r25	; 0x0a
    1f6e:	89 87       	std	Y+9, r24	; 0x09
    1f70:	3f c0       	rjmp	.+126    	; 0x1ff0 <left_degrees+0xf0>
    1f72:	20 e0       	ldi	r18, 0x00	; 0
    1f74:	3f ef       	ldi	r19, 0xFF	; 255
    1f76:	4f e7       	ldi	r20, 0x7F	; 127
    1f78:	57 e4       	ldi	r21, 0x47	; 71
    1f7a:	6d 81       	ldd	r22, Y+5	; 0x05
    1f7c:	7e 81       	ldd	r23, Y+6	; 0x06
    1f7e:	8f 81       	ldd	r24, Y+7	; 0x07
    1f80:	98 85       	ldd	r25, Y+8	; 0x08
    1f82:	0e 94 be 28 	call	0x517c	; 0x517c <__gesf2>
    1f86:	18 16       	cp	r1, r24
    1f88:	4c f5       	brge	.+82     	; 0x1fdc <left_degrees+0xdc>
    1f8a:	20 e0       	ldi	r18, 0x00	; 0
    1f8c:	30 e0       	ldi	r19, 0x00	; 0
    1f8e:	40 e2       	ldi	r20, 0x20	; 32
    1f90:	51 e4       	ldi	r21, 0x41	; 65
    1f92:	69 81       	ldd	r22, Y+1	; 0x01
    1f94:	7a 81       	ldd	r23, Y+2	; 0x02
    1f96:	8b 81       	ldd	r24, Y+3	; 0x03
    1f98:	9c 81       	ldd	r25, Y+4	; 0x04
    1f9a:	0e 94 c2 28 	call	0x5184	; 0x5184 <__mulsf3>
    1f9e:	dc 01       	movw	r26, r24
    1fa0:	cb 01       	movw	r24, r22
    1fa2:	bc 01       	movw	r22, r24
    1fa4:	cd 01       	movw	r24, r26
    1fa6:	0e 94 e0 27 	call	0x4fc0	; 0x4fc0 <__fixunssfsi>
    1faa:	dc 01       	movw	r26, r24
    1fac:	cb 01       	movw	r24, r22
    1fae:	9a 87       	std	Y+10, r25	; 0x0a
    1fb0:	89 87       	std	Y+9, r24	; 0x09
    1fb2:	0f c0       	rjmp	.+30     	; 0x1fd2 <left_degrees+0xd2>
    1fb4:	80 e7       	ldi	r24, 0x70	; 112
    1fb6:	91 e0       	ldi	r25, 0x01	; 1
    1fb8:	9c 87       	std	Y+12, r25	; 0x0c
    1fba:	8b 87       	std	Y+11, r24	; 0x0b
    1fbc:	8b 85       	ldd	r24, Y+11	; 0x0b
    1fbe:	9c 85       	ldd	r25, Y+12	; 0x0c
    1fc0:	01 97       	sbiw	r24, 0x01	; 1
    1fc2:	f1 f7       	brne	.-4      	; 0x1fc0 <left_degrees+0xc0>
    1fc4:	9c 87       	std	Y+12, r25	; 0x0c
    1fc6:	8b 87       	std	Y+11, r24	; 0x0b
    1fc8:	89 85       	ldd	r24, Y+9	; 0x09
    1fca:	9a 85       	ldd	r25, Y+10	; 0x0a
    1fcc:	01 97       	sbiw	r24, 0x01	; 1
    1fce:	9a 87       	std	Y+10, r25	; 0x0a
    1fd0:	89 87       	std	Y+9, r24	; 0x09
    1fd2:	89 85       	ldd	r24, Y+9	; 0x09
    1fd4:	9a 85       	ldd	r25, Y+10	; 0x0a
    1fd6:	89 2b       	or	r24, r25
    1fd8:	69 f7       	brne	.-38     	; 0x1fb4 <left_degrees+0xb4>
    1fda:	14 c0       	rjmp	.+40     	; 0x2004 <left_degrees+0x104>
    1fdc:	6d 81       	ldd	r22, Y+5	; 0x05
    1fde:	7e 81       	ldd	r23, Y+6	; 0x06
    1fe0:	8f 81       	ldd	r24, Y+7	; 0x07
    1fe2:	98 85       	ldd	r25, Y+8	; 0x08
    1fe4:	0e 94 e0 27 	call	0x4fc0	; 0x4fc0 <__fixunssfsi>
    1fe8:	dc 01       	movw	r26, r24
    1fea:	cb 01       	movw	r24, r22
    1fec:	9a 87       	std	Y+10, r25	; 0x0a
    1fee:	89 87       	std	Y+9, r24	; 0x09
    1ff0:	89 85       	ldd	r24, Y+9	; 0x09
    1ff2:	9a 85       	ldd	r25, Y+10	; 0x0a
    1ff4:	9e 87       	std	Y+14, r25	; 0x0e
    1ff6:	8d 87       	std	Y+13, r24	; 0x0d
    1ff8:	8d 85       	ldd	r24, Y+13	; 0x0d
    1ffa:	9e 85       	ldd	r25, Y+14	; 0x0e
    1ffc:	01 97       	sbiw	r24, 0x01	; 1
    1ffe:	f1 f7       	brne	.-4      	; 0x1ffc <left_degrees+0xfc>
    2000:	9e 87       	std	Y+14, r25	; 0x0e
    2002:	8d 87       	std	Y+13, r24	; 0x0d
    2004:	da d1       	rcall	.+948    	; 0x23ba <left>
    2006:	8f 85       	ldd	r24, Y+15	; 0x0f
    2008:	98 89       	ldd	r25, Y+16	; 0x10
    200a:	78 de       	rcall	.-784    	; 0x1cfc <angle_rotate>
    200c:	60 96       	adiw	r28, 0x10	; 16
    200e:	0f b6       	in	r0, 0x3f	; 63
    2010:	f8 94       	cli
    2012:	de bf       	out	0x3e, r29	; 62
    2014:	0f be       	out	0x3f, r0	; 63
    2016:	cd bf       	out	0x3d, r28	; 61
    2018:	df 91       	pop	r29
    201a:	cf 91       	pop	r28
    201c:	08 95       	ret

0000201e <right_degrees>:
    201e:	cf 93       	push	r28
    2020:	df 93       	push	r29
    2022:	cd b7       	in	r28, 0x3d	; 61
    2024:	de b7       	in	r29, 0x3e	; 62
    2026:	60 97       	sbiw	r28, 0x10	; 16
    2028:	0f b6       	in	r0, 0x3f	; 63
    202a:	f8 94       	cli
    202c:	de bf       	out	0x3e, r29	; 62
    202e:	0f be       	out	0x3f, r0	; 63
    2030:	cd bf       	out	0x3d, r28	; 61
    2032:	98 8b       	std	Y+16, r25	; 0x10
    2034:	8f 87       	std	Y+15, r24	; 0x0f
    2036:	8c e3       	ldi	r24, 0x3C	; 60
    2038:	90 e0       	ldi	r25, 0x00	; 0
    203a:	40 df       	rcall	.-384    	; 0x1ebc <forward_mm>
    203c:	c7 d1       	rcall	.+910    	; 0x23cc <stop>
    203e:	80 e0       	ldi	r24, 0x00	; 0
    2040:	90 e0       	ldi	r25, 0x00	; 0
    2042:	a8 ec       	ldi	r26, 0xC8	; 200
    2044:	b2 e4       	ldi	r27, 0x42	; 66
    2046:	89 83       	std	Y+1, r24	; 0x01
    2048:	9a 83       	std	Y+2, r25	; 0x02
    204a:	ab 83       	std	Y+3, r26	; 0x03
    204c:	bc 83       	std	Y+4, r27	; 0x04
    204e:	26 e6       	ldi	r18, 0x66	; 102
    2050:	36 e6       	ldi	r19, 0x66	; 102
    2052:	46 e6       	ldi	r20, 0x66	; 102
    2054:	55 e4       	ldi	r21, 0x45	; 69
    2056:	69 81       	ldd	r22, Y+1	; 0x01
    2058:	7a 81       	ldd	r23, Y+2	; 0x02
    205a:	8b 81       	ldd	r24, Y+3	; 0x03
    205c:	9c 81       	ldd	r25, Y+4	; 0x04
    205e:	0e 94 c2 28 	call	0x5184	; 0x5184 <__mulsf3>
    2062:	dc 01       	movw	r26, r24
    2064:	cb 01       	movw	r24, r22
    2066:	8d 83       	std	Y+5, r24	; 0x05
    2068:	9e 83       	std	Y+6, r25	; 0x06
    206a:	af 83       	std	Y+7, r26	; 0x07
    206c:	b8 87       	std	Y+8, r27	; 0x08
    206e:	20 e0       	ldi	r18, 0x00	; 0
    2070:	30 e0       	ldi	r19, 0x00	; 0
    2072:	40 e8       	ldi	r20, 0x80	; 128
    2074:	5f e3       	ldi	r21, 0x3F	; 63
    2076:	6d 81       	ldd	r22, Y+5	; 0x05
    2078:	7e 81       	ldd	r23, Y+6	; 0x06
    207a:	8f 81       	ldd	r24, Y+7	; 0x07
    207c:	98 85       	ldd	r25, Y+8	; 0x08
    207e:	0e 94 74 27 	call	0x4ee8	; 0x4ee8 <__cmpsf2>
    2082:	88 23       	and	r24, r24
    2084:	2c f4       	brge	.+10     	; 0x2090 <right_degrees+0x72>
    2086:	81 e0       	ldi	r24, 0x01	; 1
    2088:	90 e0       	ldi	r25, 0x00	; 0
    208a:	9a 87       	std	Y+10, r25	; 0x0a
    208c:	89 87       	std	Y+9, r24	; 0x09
    208e:	3f c0       	rjmp	.+126    	; 0x210e <right_degrees+0xf0>
    2090:	20 e0       	ldi	r18, 0x00	; 0
    2092:	3f ef       	ldi	r19, 0xFF	; 255
    2094:	4f e7       	ldi	r20, 0x7F	; 127
    2096:	57 e4       	ldi	r21, 0x47	; 71
    2098:	6d 81       	ldd	r22, Y+5	; 0x05
    209a:	7e 81       	ldd	r23, Y+6	; 0x06
    209c:	8f 81       	ldd	r24, Y+7	; 0x07
    209e:	98 85       	ldd	r25, Y+8	; 0x08
    20a0:	0e 94 be 28 	call	0x517c	; 0x517c <__gesf2>
    20a4:	18 16       	cp	r1, r24
    20a6:	4c f5       	brge	.+82     	; 0x20fa <right_degrees+0xdc>
    20a8:	20 e0       	ldi	r18, 0x00	; 0
    20aa:	30 e0       	ldi	r19, 0x00	; 0
    20ac:	40 e2       	ldi	r20, 0x20	; 32
    20ae:	51 e4       	ldi	r21, 0x41	; 65
    20b0:	69 81       	ldd	r22, Y+1	; 0x01
    20b2:	7a 81       	ldd	r23, Y+2	; 0x02
    20b4:	8b 81       	ldd	r24, Y+3	; 0x03
    20b6:	9c 81       	ldd	r25, Y+4	; 0x04
    20b8:	0e 94 c2 28 	call	0x5184	; 0x5184 <__mulsf3>
    20bc:	dc 01       	movw	r26, r24
    20be:	cb 01       	movw	r24, r22
    20c0:	bc 01       	movw	r22, r24
    20c2:	cd 01       	movw	r24, r26
    20c4:	0e 94 e0 27 	call	0x4fc0	; 0x4fc0 <__fixunssfsi>
    20c8:	dc 01       	movw	r26, r24
    20ca:	cb 01       	movw	r24, r22
    20cc:	9a 87       	std	Y+10, r25	; 0x0a
    20ce:	89 87       	std	Y+9, r24	; 0x09
    20d0:	0f c0       	rjmp	.+30     	; 0x20f0 <right_degrees+0xd2>
    20d2:	80 e7       	ldi	r24, 0x70	; 112
    20d4:	91 e0       	ldi	r25, 0x01	; 1
    20d6:	9c 87       	std	Y+12, r25	; 0x0c
    20d8:	8b 87       	std	Y+11, r24	; 0x0b
    20da:	8b 85       	ldd	r24, Y+11	; 0x0b
    20dc:	9c 85       	ldd	r25, Y+12	; 0x0c
    20de:	01 97       	sbiw	r24, 0x01	; 1
    20e0:	f1 f7       	brne	.-4      	; 0x20de <right_degrees+0xc0>
    20e2:	9c 87       	std	Y+12, r25	; 0x0c
    20e4:	8b 87       	std	Y+11, r24	; 0x0b
    20e6:	89 85       	ldd	r24, Y+9	; 0x09
    20e8:	9a 85       	ldd	r25, Y+10	; 0x0a
    20ea:	01 97       	sbiw	r24, 0x01	; 1
    20ec:	9a 87       	std	Y+10, r25	; 0x0a
    20ee:	89 87       	std	Y+9, r24	; 0x09
    20f0:	89 85       	ldd	r24, Y+9	; 0x09
    20f2:	9a 85       	ldd	r25, Y+10	; 0x0a
    20f4:	89 2b       	or	r24, r25
    20f6:	69 f7       	brne	.-38     	; 0x20d2 <right_degrees+0xb4>
    20f8:	14 c0       	rjmp	.+40     	; 0x2122 <right_degrees+0x104>
    20fa:	6d 81       	ldd	r22, Y+5	; 0x05
    20fc:	7e 81       	ldd	r23, Y+6	; 0x06
    20fe:	8f 81       	ldd	r24, Y+7	; 0x07
    2100:	98 85       	ldd	r25, Y+8	; 0x08
    2102:	0e 94 e0 27 	call	0x4fc0	; 0x4fc0 <__fixunssfsi>
    2106:	dc 01       	movw	r26, r24
    2108:	cb 01       	movw	r24, r22
    210a:	9a 87       	std	Y+10, r25	; 0x0a
    210c:	89 87       	std	Y+9, r24	; 0x09
    210e:	89 85       	ldd	r24, Y+9	; 0x09
    2110:	9a 85       	ldd	r25, Y+10	; 0x0a
    2112:	9e 87       	std	Y+14, r25	; 0x0e
    2114:	8d 87       	std	Y+13, r24	; 0x0d
    2116:	8d 85       	ldd	r24, Y+13	; 0x0d
    2118:	9e 85       	ldd	r25, Y+14	; 0x0e
    211a:	01 97       	sbiw	r24, 0x01	; 1
    211c:	f1 f7       	brne	.-4      	; 0x211a <right_degrees+0xfc>
    211e:	9e 87       	std	Y+14, r25	; 0x0e
    2120:	8d 87       	std	Y+13, r24	; 0x0d
    2122:	42 d1       	rcall	.+644    	; 0x23a8 <right>
    2124:	8f 85       	ldd	r24, Y+15	; 0x0f
    2126:	98 89       	ldd	r25, Y+16	; 0x10
    2128:	e9 dd       	rcall	.-1070   	; 0x1cfc <angle_rotate>
    212a:	60 96       	adiw	r28, 0x10	; 16
    212c:	0f b6       	in	r0, 0x3f	; 63
    212e:	f8 94       	cli
    2130:	de bf       	out	0x3e, r29	; 62
    2132:	0f be       	out	0x3f, r0	; 63
    2134:	cd bf       	out	0x3d, r28	; 61
    2136:	df 91       	pop	r29
    2138:	cf 91       	pop	r28
    213a:	08 95       	ret

0000213c <buzzer_on>:
    213c:	cf 93       	push	r28
    213e:	df 93       	push	r29
    2140:	1f 92       	push	r1
    2142:	cd b7       	in	r28, 0x3d	; 61
    2144:	de b7       	in	r29, 0x3e	; 62
    2146:	19 82       	std	Y+1, r1	; 0x01
    2148:	86 e2       	ldi	r24, 0x26	; 38
    214a:	90 e0       	ldi	r25, 0x00	; 0
    214c:	fc 01       	movw	r30, r24
    214e:	80 81       	ld	r24, Z
    2150:	89 83       	std	Y+1, r24	; 0x01
    2152:	89 81       	ldd	r24, Y+1	; 0x01
    2154:	88 60       	ori	r24, 0x08	; 8
    2156:	89 83       	std	Y+1, r24	; 0x01
    2158:	88 e2       	ldi	r24, 0x28	; 40
    215a:	90 e0       	ldi	r25, 0x00	; 0
    215c:	29 81       	ldd	r18, Y+1	; 0x01
    215e:	fc 01       	movw	r30, r24
    2160:	20 83       	st	Z, r18
    2162:	0f 90       	pop	r0
    2164:	df 91       	pop	r29
    2166:	cf 91       	pop	r28
    2168:	08 95       	ret

0000216a <buzzer_off>:
    216a:	cf 93       	push	r28
    216c:	df 93       	push	r29
    216e:	1f 92       	push	r1
    2170:	cd b7       	in	r28, 0x3d	; 61
    2172:	de b7       	in	r29, 0x3e	; 62
    2174:	19 82       	std	Y+1, r1	; 0x01
    2176:	86 e2       	ldi	r24, 0x26	; 38
    2178:	90 e0       	ldi	r25, 0x00	; 0
    217a:	fc 01       	movw	r30, r24
    217c:	80 81       	ld	r24, Z
    217e:	89 83       	std	Y+1, r24	; 0x01
    2180:	89 81       	ldd	r24, Y+1	; 0x01
    2182:	87 7f       	andi	r24, 0xF7	; 247
    2184:	89 83       	std	Y+1, r24	; 0x01
    2186:	88 e2       	ldi	r24, 0x28	; 40
    2188:	90 e0       	ldi	r25, 0x00	; 0
    218a:	29 81       	ldd	r18, Y+1	; 0x01
    218c:	fc 01       	movw	r30, r24
    218e:	20 83       	st	Z, r18
    2190:	0f 90       	pop	r0
    2192:	df 91       	pop	r29
    2194:	cf 91       	pop	r28
    2196:	08 95       	ret

00002198 <uart0_init>:
    2198:	cf 93       	push	r28
    219a:	df 93       	push	r29
    219c:	cd b7       	in	r28, 0x3d	; 61
    219e:	de b7       	in	r29, 0x3e	; 62
    21a0:	81 ec       	ldi	r24, 0xC1	; 193
    21a2:	90 e0       	ldi	r25, 0x00	; 0
    21a4:	fc 01       	movw	r30, r24
    21a6:	10 82       	st	Z, r1
    21a8:	80 ec       	ldi	r24, 0xC0	; 192
    21aa:	90 e0       	ldi	r25, 0x00	; 0
    21ac:	fc 01       	movw	r30, r24
    21ae:	10 82       	st	Z, r1
    21b0:	82 ec       	ldi	r24, 0xC2	; 194
    21b2:	90 e0       	ldi	r25, 0x00	; 0
    21b4:	26 e0       	ldi	r18, 0x06	; 6
    21b6:	fc 01       	movw	r30, r24
    21b8:	20 83       	st	Z, r18
    21ba:	84 ec       	ldi	r24, 0xC4	; 196
    21bc:	90 e0       	ldi	r25, 0x00	; 0
    21be:	2f e5       	ldi	r18, 0x5F	; 95
    21c0:	fc 01       	movw	r30, r24
    21c2:	20 83       	st	Z, r18
    21c4:	85 ec       	ldi	r24, 0xC5	; 197
    21c6:	90 e0       	ldi	r25, 0x00	; 0
    21c8:	fc 01       	movw	r30, r24
    21ca:	10 82       	st	Z, r1
    21cc:	81 ec       	ldi	r24, 0xC1	; 193
    21ce:	90 e0       	ldi	r25, 0x00	; 0
    21d0:	28 e9       	ldi	r18, 0x98	; 152
    21d2:	fc 01       	movw	r30, r24
    21d4:	20 83       	st	Z, r18
    21d6:	df 91       	pop	r29
    21d8:	cf 91       	pop	r28
    21da:	08 95       	ret

000021dc <timer5_init>:
    21dc:	cf 93       	push	r28
    21de:	df 93       	push	r29
    21e0:	cd b7       	in	r28, 0x3d	; 61
    21e2:	de b7       	in	r29, 0x3e	; 62
    21e4:	81 e2       	ldi	r24, 0x21	; 33
    21e6:	91 e0       	ldi	r25, 0x01	; 1
    21e8:	fc 01       	movw	r30, r24
    21ea:	10 82       	st	Z, r1
    21ec:	85 e2       	ldi	r24, 0x25	; 37
    21ee:	91 e0       	ldi	r25, 0x01	; 1
    21f0:	2f ef       	ldi	r18, 0xFF	; 255
    21f2:	fc 01       	movw	r30, r24
    21f4:	20 83       	st	Z, r18
    21f6:	84 e2       	ldi	r24, 0x24	; 36
    21f8:	91 e0       	ldi	r25, 0x01	; 1
    21fa:	21 e0       	ldi	r18, 0x01	; 1
    21fc:	fc 01       	movw	r30, r24
    21fe:	20 83       	st	Z, r18
    2200:	89 e2       	ldi	r24, 0x29	; 41
    2202:	91 e0       	ldi	r25, 0x01	; 1
    2204:	fc 01       	movw	r30, r24
    2206:	10 82       	st	Z, r1
    2208:	88 e2       	ldi	r24, 0x28	; 40
    220a:	91 e0       	ldi	r25, 0x01	; 1
    220c:	2f ef       	ldi	r18, 0xFF	; 255
    220e:	fc 01       	movw	r30, r24
    2210:	20 83       	st	Z, r18
    2212:	8b e2       	ldi	r24, 0x2B	; 43
    2214:	91 e0       	ldi	r25, 0x01	; 1
    2216:	fc 01       	movw	r30, r24
    2218:	10 82       	st	Z, r1
    221a:	8a e2       	ldi	r24, 0x2A	; 42
    221c:	91 e0       	ldi	r25, 0x01	; 1
    221e:	2f ef       	ldi	r18, 0xFF	; 255
    2220:	fc 01       	movw	r30, r24
    2222:	20 83       	st	Z, r18
    2224:	8d e2       	ldi	r24, 0x2D	; 45
    2226:	91 e0       	ldi	r25, 0x01	; 1
    2228:	fc 01       	movw	r30, r24
    222a:	10 82       	st	Z, r1
    222c:	8c e2       	ldi	r24, 0x2C	; 44
    222e:	91 e0       	ldi	r25, 0x01	; 1
    2230:	2f ef       	ldi	r18, 0xFF	; 255
    2232:	fc 01       	movw	r30, r24
    2234:	20 83       	st	Z, r18
    2236:	80 e2       	ldi	r24, 0x20	; 32
    2238:	91 e0       	ldi	r25, 0x01	; 1
    223a:	29 ea       	ldi	r18, 0xA9	; 169
    223c:	fc 01       	movw	r30, r24
    223e:	20 83       	st	Z, r18
    2240:	81 e2       	ldi	r24, 0x21	; 33
    2242:	91 e0       	ldi	r25, 0x01	; 1
    2244:	2b e0       	ldi	r18, 0x0B	; 11
    2246:	fc 01       	movw	r30, r24
    2248:	20 83       	st	Z, r18
    224a:	df 91       	pop	r29
    224c:	cf 91       	pop	r28
    224e:	08 95       	ret

00002250 <adc_init>:
    2250:	cf 93       	push	r28
    2252:	df 93       	push	r29
    2254:	cd b7       	in	r28, 0x3d	; 61
    2256:	de b7       	in	r29, 0x3e	; 62
    2258:	8a e7       	ldi	r24, 0x7A	; 122
    225a:	90 e0       	ldi	r25, 0x00	; 0
    225c:	fc 01       	movw	r30, r24
    225e:	10 82       	st	Z, r1
    2260:	8b e7       	ldi	r24, 0x7B	; 123
    2262:	90 e0       	ldi	r25, 0x00	; 0
    2264:	fc 01       	movw	r30, r24
    2266:	10 82       	st	Z, r1
    2268:	8c e7       	ldi	r24, 0x7C	; 124
    226a:	90 e0       	ldi	r25, 0x00	; 0
    226c:	20 e2       	ldi	r18, 0x20	; 32
    226e:	fc 01       	movw	r30, r24
    2270:	20 83       	st	Z, r18
    2272:	80 e5       	ldi	r24, 0x50	; 80
    2274:	90 e0       	ldi	r25, 0x00	; 0
    2276:	20 e8       	ldi	r18, 0x80	; 128
    2278:	fc 01       	movw	r30, r24
    227a:	20 83       	st	Z, r18
    227c:	8a e7       	ldi	r24, 0x7A	; 122
    227e:	90 e0       	ldi	r25, 0x00	; 0
    2280:	26 e8       	ldi	r18, 0x86	; 134
    2282:	fc 01       	movw	r30, r24
    2284:	20 83       	st	Z, r18
    2286:	df 91       	pop	r29
    2288:	cf 91       	pop	r28
    228a:	08 95       	ret

0000228c <ADC_Conversion>:
    228c:	cf 93       	push	r28
    228e:	df 93       	push	r29
    2290:	1f 92       	push	r1
    2292:	1f 92       	push	r1
    2294:	cd b7       	in	r28, 0x3d	; 61
    2296:	de b7       	in	r29, 0x3e	; 62
    2298:	8a 83       	std	Y+2, r24	; 0x02
    229a:	8a 81       	ldd	r24, Y+2	; 0x02
    229c:	88 30       	cpi	r24, 0x08	; 8
    229e:	28 f0       	brcs	.+10     	; 0x22aa <ADC_Conversion+0x1e>
    22a0:	8b e7       	ldi	r24, 0x7B	; 123
    22a2:	90 e0       	ldi	r25, 0x00	; 0
    22a4:	28 e0       	ldi	r18, 0x08	; 8
    22a6:	fc 01       	movw	r30, r24
    22a8:	20 83       	st	Z, r18
    22aa:	8a 81       	ldd	r24, Y+2	; 0x02
    22ac:	87 70       	andi	r24, 0x07	; 7
    22ae:	8a 83       	std	Y+2, r24	; 0x02
    22b0:	8c e7       	ldi	r24, 0x7C	; 124
    22b2:	90 e0       	ldi	r25, 0x00	; 0
    22b4:	2a 81       	ldd	r18, Y+2	; 0x02
    22b6:	20 62       	ori	r18, 0x20	; 32
    22b8:	fc 01       	movw	r30, r24
    22ba:	20 83       	st	Z, r18
    22bc:	8a e7       	ldi	r24, 0x7A	; 122
    22be:	90 e0       	ldi	r25, 0x00	; 0
    22c0:	2a e7       	ldi	r18, 0x7A	; 122
    22c2:	30 e0       	ldi	r19, 0x00	; 0
    22c4:	f9 01       	movw	r30, r18
    22c6:	20 81       	ld	r18, Z
    22c8:	20 64       	ori	r18, 0x40	; 64
    22ca:	fc 01       	movw	r30, r24
    22cc:	20 83       	st	Z, r18
    22ce:	00 00       	nop
    22d0:	8a e7       	ldi	r24, 0x7A	; 122
    22d2:	90 e0       	ldi	r25, 0x00	; 0
    22d4:	fc 01       	movw	r30, r24
    22d6:	80 81       	ld	r24, Z
    22d8:	88 2f       	mov	r24, r24
    22da:	90 e0       	ldi	r25, 0x00	; 0
    22dc:	80 71       	andi	r24, 0x10	; 16
    22de:	99 27       	eor	r25, r25
    22e0:	89 2b       	or	r24, r25
    22e2:	b1 f3       	breq	.-20     	; 0x22d0 <ADC_Conversion+0x44>
    22e4:	89 e7       	ldi	r24, 0x79	; 121
    22e6:	90 e0       	ldi	r25, 0x00	; 0
    22e8:	fc 01       	movw	r30, r24
    22ea:	80 81       	ld	r24, Z
    22ec:	89 83       	std	Y+1, r24	; 0x01
    22ee:	8a e7       	ldi	r24, 0x7A	; 122
    22f0:	90 e0       	ldi	r25, 0x00	; 0
    22f2:	2a e7       	ldi	r18, 0x7A	; 122
    22f4:	30 e0       	ldi	r19, 0x00	; 0
    22f6:	f9 01       	movw	r30, r18
    22f8:	20 81       	ld	r18, Z
    22fa:	20 61       	ori	r18, 0x10	; 16
    22fc:	fc 01       	movw	r30, r24
    22fe:	20 83       	st	Z, r18
    2300:	8b e7       	ldi	r24, 0x7B	; 123
    2302:	90 e0       	ldi	r25, 0x00	; 0
    2304:	fc 01       	movw	r30, r24
    2306:	10 82       	st	Z, r1
    2308:	89 81       	ldd	r24, Y+1	; 0x01
    230a:	0f 90       	pop	r0
    230c:	0f 90       	pop	r0
    230e:	df 91       	pop	r29
    2310:	cf 91       	pop	r28
    2312:	08 95       	ret

00002314 <velocity>:
    2314:	cf 93       	push	r28
    2316:	df 93       	push	r29
    2318:	1f 92       	push	r1
    231a:	1f 92       	push	r1
    231c:	cd b7       	in	r28, 0x3d	; 61
    231e:	de b7       	in	r29, 0x3e	; 62
    2320:	89 83       	std	Y+1, r24	; 0x01
    2322:	6a 83       	std	Y+2, r22	; 0x02
    2324:	88 e2       	ldi	r24, 0x28	; 40
    2326:	91 e0       	ldi	r25, 0x01	; 1
    2328:	29 81       	ldd	r18, Y+1	; 0x01
    232a:	fc 01       	movw	r30, r24
    232c:	20 83       	st	Z, r18
    232e:	8a e2       	ldi	r24, 0x2A	; 42
    2330:	91 e0       	ldi	r25, 0x01	; 1
    2332:	2a 81       	ldd	r18, Y+2	; 0x02
    2334:	fc 01       	movw	r30, r24
    2336:	20 83       	st	Z, r18
    2338:	0f 90       	pop	r0
    233a:	0f 90       	pop	r0
    233c:	df 91       	pop	r29
    233e:	cf 91       	pop	r28
    2340:	08 95       	ret

00002342 <motion_set>:
    2342:	cf 93       	push	r28
    2344:	df 93       	push	r29
    2346:	1f 92       	push	r1
    2348:	1f 92       	push	r1
    234a:	cd b7       	in	r28, 0x3d	; 61
    234c:	de b7       	in	r29, 0x3e	; 62
    234e:	8a 83       	std	Y+2, r24	; 0x02
    2350:	19 82       	std	Y+1, r1	; 0x01
    2352:	8a 81       	ldd	r24, Y+2	; 0x02
    2354:	8f 70       	andi	r24, 0x0F	; 15
    2356:	8a 83       	std	Y+2, r24	; 0x02
    2358:	82 e2       	ldi	r24, 0x22	; 34
    235a:	90 e0       	ldi	r25, 0x00	; 0
    235c:	fc 01       	movw	r30, r24
    235e:	80 81       	ld	r24, Z
    2360:	89 83       	std	Y+1, r24	; 0x01
    2362:	89 81       	ldd	r24, Y+1	; 0x01
    2364:	80 7f       	andi	r24, 0xF0	; 240
    2366:	89 83       	std	Y+1, r24	; 0x01
    2368:	99 81       	ldd	r25, Y+1	; 0x01
    236a:	8a 81       	ldd	r24, Y+2	; 0x02
    236c:	89 2b       	or	r24, r25
    236e:	89 83       	std	Y+1, r24	; 0x01
    2370:	82 e2       	ldi	r24, 0x22	; 34
    2372:	90 e0       	ldi	r25, 0x00	; 0
    2374:	29 81       	ldd	r18, Y+1	; 0x01
    2376:	fc 01       	movw	r30, r24
    2378:	20 83       	st	Z, r18
    237a:	0f 90       	pop	r0
    237c:	0f 90       	pop	r0
    237e:	df 91       	pop	r29
    2380:	cf 91       	pop	r28
    2382:	08 95       	ret

00002384 <forward>:
    2384:	cf 93       	push	r28
    2386:	df 93       	push	r29
    2388:	cd b7       	in	r28, 0x3d	; 61
    238a:	de b7       	in	r29, 0x3e	; 62
    238c:	86 e0       	ldi	r24, 0x06	; 6
    238e:	d9 df       	rcall	.-78     	; 0x2342 <motion_set>
    2390:	df 91       	pop	r29
    2392:	cf 91       	pop	r28
    2394:	08 95       	ret

00002396 <back>:
    2396:	cf 93       	push	r28
    2398:	df 93       	push	r29
    239a:	cd b7       	in	r28, 0x3d	; 61
    239c:	de b7       	in	r29, 0x3e	; 62
    239e:	89 e0       	ldi	r24, 0x09	; 9
    23a0:	d0 df       	rcall	.-96     	; 0x2342 <motion_set>
    23a2:	df 91       	pop	r29
    23a4:	cf 91       	pop	r28
    23a6:	08 95       	ret

000023a8 <right>:
    23a8:	cf 93       	push	r28
    23aa:	df 93       	push	r29
    23ac:	cd b7       	in	r28, 0x3d	; 61
    23ae:	de b7       	in	r29, 0x3e	; 62
    23b0:	8a e0       	ldi	r24, 0x0A	; 10
    23b2:	c7 df       	rcall	.-114    	; 0x2342 <motion_set>
    23b4:	df 91       	pop	r29
    23b6:	cf 91       	pop	r28
    23b8:	08 95       	ret

000023ba <left>:
    23ba:	cf 93       	push	r28
    23bc:	df 93       	push	r29
    23be:	cd b7       	in	r28, 0x3d	; 61
    23c0:	de b7       	in	r29, 0x3e	; 62
    23c2:	85 e0       	ldi	r24, 0x05	; 5
    23c4:	be df       	rcall	.-132    	; 0x2342 <motion_set>
    23c6:	df 91       	pop	r29
    23c8:	cf 91       	pop	r28
    23ca:	08 95       	ret

000023cc <stop>:
    23cc:	cf 93       	push	r28
    23ce:	df 93       	push	r29
    23d0:	cd b7       	in	r28, 0x3d	; 61
    23d2:	de b7       	in	r29, 0x3e	; 62
    23d4:	80 e0       	ldi	r24, 0x00	; 0
    23d6:	b5 df       	rcall	.-150    	; 0x2342 <motion_set>
    23d8:	df 91       	pop	r29
    23da:	cf 91       	pop	r28
    23dc:	08 95       	ret

000023de <soft_left>:
    23de:	cf 93       	push	r28
    23e0:	df 93       	push	r29
    23e2:	cd b7       	in	r28, 0x3d	; 61
    23e4:	de b7       	in	r29, 0x3e	; 62
    23e6:	84 e0       	ldi	r24, 0x04	; 4
    23e8:	ac df       	rcall	.-168    	; 0x2342 <motion_set>
    23ea:	df 91       	pop	r29
    23ec:	cf 91       	pop	r28
    23ee:	08 95       	ret

000023f0 <soft_right>:
    23f0:	cf 93       	push	r28
    23f2:	df 93       	push	r29
    23f4:	cd b7       	in	r28, 0x3d	; 61
    23f6:	de b7       	in	r29, 0x3e	; 62
    23f8:	82 e0       	ldi	r24, 0x02	; 2
    23fa:	a3 df       	rcall	.-186    	; 0x2342 <motion_set>
    23fc:	df 91       	pop	r29
    23fe:	cf 91       	pop	r28
    2400:	08 95       	ret

00002402 <timer1_init>:
    2402:	cf 93       	push	r28
    2404:	df 93       	push	r29
    2406:	cd b7       	in	r28, 0x3d	; 61
    2408:	de b7       	in	r29, 0x3e	; 62
    240a:	81 e8       	ldi	r24, 0x81	; 129
    240c:	90 e0       	ldi	r25, 0x00	; 0
    240e:	fc 01       	movw	r30, r24
    2410:	10 82       	st	Z, r1
    2412:	85 e8       	ldi	r24, 0x85	; 133
    2414:	90 e0       	ldi	r25, 0x00	; 0
    2416:	2c ef       	ldi	r18, 0xFC	; 252
    2418:	fc 01       	movw	r30, r24
    241a:	20 83       	st	Z, r18
    241c:	84 e8       	ldi	r24, 0x84	; 132
    241e:	90 e0       	ldi	r25, 0x00	; 0
    2420:	21 e0       	ldi	r18, 0x01	; 1
    2422:	fc 01       	movw	r30, r24
    2424:	20 83       	st	Z, r18
    2426:	89 e8       	ldi	r24, 0x89	; 137
    2428:	90 e0       	ldi	r25, 0x00	; 0
    242a:	23 e0       	ldi	r18, 0x03	; 3
    242c:	fc 01       	movw	r30, r24
    242e:	20 83       	st	Z, r18
    2430:	88 e8       	ldi	r24, 0x88	; 136
    2432:	90 e0       	ldi	r25, 0x00	; 0
    2434:	2f ef       	ldi	r18, 0xFF	; 255
    2436:	fc 01       	movw	r30, r24
    2438:	20 83       	st	Z, r18
    243a:	8b e8       	ldi	r24, 0x8B	; 139
    243c:	90 e0       	ldi	r25, 0x00	; 0
    243e:	23 e0       	ldi	r18, 0x03	; 3
    2440:	fc 01       	movw	r30, r24
    2442:	20 83       	st	Z, r18
    2444:	8a e8       	ldi	r24, 0x8A	; 138
    2446:	90 e0       	ldi	r25, 0x00	; 0
    2448:	2f ef       	ldi	r18, 0xFF	; 255
    244a:	fc 01       	movw	r30, r24
    244c:	20 83       	st	Z, r18
    244e:	8d e8       	ldi	r24, 0x8D	; 141
    2450:	90 e0       	ldi	r25, 0x00	; 0
    2452:	23 e0       	ldi	r18, 0x03	; 3
    2454:	fc 01       	movw	r30, r24
    2456:	20 83       	st	Z, r18
    2458:	8c e8       	ldi	r24, 0x8C	; 140
    245a:	90 e0       	ldi	r25, 0x00	; 0
    245c:	2f ef       	ldi	r18, 0xFF	; 255
    245e:	fc 01       	movw	r30, r24
    2460:	20 83       	st	Z, r18
    2462:	87 e8       	ldi	r24, 0x87	; 135
    2464:	90 e0       	ldi	r25, 0x00	; 0
    2466:	23 e0       	ldi	r18, 0x03	; 3
    2468:	fc 01       	movw	r30, r24
    246a:	20 83       	st	Z, r18
    246c:	86 e8       	ldi	r24, 0x86	; 134
    246e:	90 e0       	ldi	r25, 0x00	; 0
    2470:	2f ef       	ldi	r18, 0xFF	; 255
    2472:	fc 01       	movw	r30, r24
    2474:	20 83       	st	Z, r18
    2476:	80 e8       	ldi	r24, 0x80	; 128
    2478:	90 e0       	ldi	r25, 0x00	; 0
    247a:	2b ea       	ldi	r18, 0xAB	; 171
    247c:	fc 01       	movw	r30, r24
    247e:	20 83       	st	Z, r18
    2480:	82 e8       	ldi	r24, 0x82	; 130
    2482:	90 e0       	ldi	r25, 0x00	; 0
    2484:	fc 01       	movw	r30, r24
    2486:	10 82       	st	Z, r1
    2488:	81 e8       	ldi	r24, 0x81	; 129
    248a:	90 e0       	ldi	r25, 0x00	; 0
    248c:	2c e0       	ldi	r18, 0x0C	; 12
    248e:	fc 01       	movw	r30, r24
    2490:	20 83       	st	Z, r18
    2492:	df 91       	pop	r29
    2494:	cf 91       	pop	r28
    2496:	08 95       	ret

00002498 <init_devices>:
    2498:	cf 93       	push	r28
    249a:	df 93       	push	r29
    249c:	cd b7       	in	r28, 0x3d	; 61
    249e:	de b7       	in	r29, 0x3e	; 62
    24a0:	f8 94       	cli
    24a2:	8d db       	rcall	.-2278   	; 0x1bbe <port_init>
    24a4:	d5 de       	rcall	.-598    	; 0x2250 <adc_init>
    24a6:	9a de       	rcall	.-716    	; 0x21dc <timer5_init>
    24a8:	77 de       	rcall	.-786    	; 0x2198 <uart0_init>
    24aa:	ab df       	rcall	.-170    	; 0x2402 <timer1_init>
    24ac:	97 db       	rcall	.-2258   	; 0x1bdc <left_position_encoder_interrupt_init>
    24ae:	b1 db       	rcall	.-2206   	; 0x1c12 <right_position_encoder_interrupt_init>
    24b0:	78 94       	sei
    24b2:	df 91       	pop	r29
    24b4:	cf 91       	pop	r28
    24b6:	08 95       	ret

000024b8 <servo_1>:
    24b8:	0f 93       	push	r16
    24ba:	1f 93       	push	r17
    24bc:	cf 93       	push	r28
    24be:	df 93       	push	r29
    24c0:	00 d0       	rcall	.+0      	; 0x24c2 <servo_1+0xa>
    24c2:	1f 92       	push	r1
    24c4:	1f 92       	push	r1
    24c6:	cd b7       	in	r28, 0x3d	; 61
    24c8:	de b7       	in	r29, 0x3e	; 62
    24ca:	8d 83       	std	Y+5, r24	; 0x05
    24cc:	19 82       	std	Y+1, r1	; 0x01
    24ce:	1a 82       	std	Y+2, r1	; 0x02
    24d0:	1b 82       	std	Y+3, r1	; 0x03
    24d2:	1c 82       	std	Y+4, r1	; 0x04
    24d4:	8d 81       	ldd	r24, Y+5	; 0x05
    24d6:	88 2f       	mov	r24, r24
    24d8:	90 e0       	ldi	r25, 0x00	; 0
    24da:	a0 e0       	ldi	r26, 0x00	; 0
    24dc:	b0 e0       	ldi	r27, 0x00	; 0
    24de:	bc 01       	movw	r22, r24
    24e0:	cd 01       	movw	r24, r26
    24e2:	0e 94 0c 28 	call	0x5018	; 0x5018 <__floatunsisf>
    24e6:	dc 01       	movw	r26, r24
    24e8:	cb 01       	movw	r24, r22
    24ea:	2b e7       	ldi	r18, 0x7B	; 123
    24ec:	34 e1       	ldi	r19, 0x14	; 20
    24ee:	4e ee       	ldi	r20, 0xEE	; 238
    24f0:	5f e3       	ldi	r21, 0x3F	; 63
    24f2:	bc 01       	movw	r22, r24
    24f4:	cd 01       	movw	r24, r26
    24f6:	0e 94 78 27 	call	0x4ef0	; 0x4ef0 <__divsf3>
    24fa:	dc 01       	movw	r26, r24
    24fc:	cb 01       	movw	r24, r22
    24fe:	20 e0       	ldi	r18, 0x00	; 0
    2500:	30 e0       	ldi	r19, 0x00	; 0
    2502:	4c e0       	ldi	r20, 0x0C	; 12
    2504:	52 e4       	ldi	r21, 0x42	; 66
    2506:	bc 01       	movw	r22, r24
    2508:	cd 01       	movw	r24, r26
    250a:	0e 94 10 27 	call	0x4e20	; 0x4e20 <__addsf3>
    250e:	dc 01       	movw	r26, r24
    2510:	cb 01       	movw	r24, r22
    2512:	89 83       	std	Y+1, r24	; 0x01
    2514:	9a 83       	std	Y+2, r25	; 0x02
    2516:	ab 83       	std	Y+3, r26	; 0x03
    2518:	bc 83       	std	Y+4, r27	; 0x04
    251a:	89 e8       	ldi	r24, 0x89	; 137
    251c:	90 e0       	ldi	r25, 0x00	; 0
    251e:	fc 01       	movw	r30, r24
    2520:	10 82       	st	Z, r1
    2522:	08 e8       	ldi	r16, 0x88	; 136
    2524:	10 e0       	ldi	r17, 0x00	; 0
    2526:	69 81       	ldd	r22, Y+1	; 0x01
    2528:	7a 81       	ldd	r23, Y+2	; 0x02
    252a:	8b 81       	ldd	r24, Y+3	; 0x03
    252c:	9c 81       	ldd	r25, Y+4	; 0x04
    252e:	0e 94 e0 27 	call	0x4fc0	; 0x4fc0 <__fixunssfsi>
    2532:	dc 01       	movw	r26, r24
    2534:	cb 01       	movw	r24, r22
    2536:	f8 01       	movw	r30, r16
    2538:	80 83       	st	Z, r24
    253a:	0f 90       	pop	r0
    253c:	0f 90       	pop	r0
    253e:	0f 90       	pop	r0
    2540:	0f 90       	pop	r0
    2542:	0f 90       	pop	r0
    2544:	df 91       	pop	r29
    2546:	cf 91       	pop	r28
    2548:	1f 91       	pop	r17
    254a:	0f 91       	pop	r16
    254c:	08 95       	ret

0000254e <horizontal>:
void horizontal()
{
    254e:	cf 93       	push	r28
    2550:	df 93       	push	r29
    2552:	cd b7       	in	r28, 0x3d	; 61
    2554:	de b7       	in	r29, 0x3e	; 62
	servo_1(84);
    2556:	84 e5       	ldi	r24, 0x54	; 84
    2558:	af df       	rcall	.-162    	; 0x24b8 <servo_1>
}
    255a:	df 91       	pop	r29
    255c:	cf 91       	pop	r28
    255e:	08 95       	ret

00002560 <__vector_25>:
SIGNAL(USART0_RX_vect) 		// ISR for receive complete interrupt
{
    2560:	1f 92       	push	r1
    2562:	0f 92       	push	r0
    2564:	00 90 5f 00 	lds	r0, 0x005F	; 0x80005f <__TEXT_REGION_LENGTH__+0x70005f>
    2568:	0f 92       	push	r0
    256a:	11 24       	eor	r1, r1
    256c:	00 90 5b 00 	lds	r0, 0x005B	; 0x80005b <__TEXT_REGION_LENGTH__+0x70005b>
    2570:	0f 92       	push	r0
    2572:	2f 93       	push	r18
    2574:	3f 93       	push	r19
    2576:	8f 93       	push	r24
    2578:	9f 93       	push	r25
    257a:	ef 93       	push	r30
    257c:	ff 93       	push	r31
    257e:	cf 93       	push	r28
    2580:	df 93       	push	r29
    2582:	cd b7       	in	r28, 0x3d	; 61
    2584:	de b7       	in	r29, 0x3e	; 62
	
	data = UDR0; 				//making copy of data from UDR0 in 'data' variable
    2586:	86 ec       	ldi	r24, 0xC6	; 198
    2588:	90 e0       	ldi	r25, 0x00	; 0
    258a:	fc 01       	movw	r30, r24
    258c:	80 81       	ld	r24, Z
    258e:	88 2f       	mov	r24, r24
    2590:	90 e0       	ldi	r25, 0x00	; 0
    2592:	90 93 11 14 	sts	0x1411, r25	; 0x801411 <data+0x1>
    2596:	80 93 10 14 	sts	0x1410, r24	; 0x801410 <data>
	if(data==255)
    259a:	80 91 10 14 	lds	r24, 0x1410	; 0x801410 <data>
    259e:	90 91 11 14 	lds	r25, 0x1411	; 0x801411 <data+0x1>
    25a2:	8f 3f       	cpi	r24, 0xFF	; 255
    25a4:	91 05       	cpc	r25, r1
    25a6:	51 f4       	brne	.+20     	; 0x25bc <__vector_25+0x5c>
	{
		played++;			//for synchronization
    25a8:	80 91 04 14 	lds	r24, 0x1404	; 0x801404 <played>
    25ac:	90 91 05 14 	lds	r25, 0x1405	; 0x801405 <played+0x1>
    25b0:	01 96       	adiw	r24, 0x01	; 1
    25b2:	90 93 05 14 	sts	0x1405, r25	; 0x801405 <played+0x1>
    25b6:	80 93 04 14 	sts	0x1404, r24	; 0x801404 <played>
    25ba:	25 c0       	rjmp	.+74     	; 0x2606 <__vector_25+0xa6>
	}	
	else if(data>200 && data<=250)
	{
		nxt2=(data-200);			//nxt location of other robot in case of obstacle
	}*/
	else if((data >0) && (data<=50))
    25bc:	80 91 10 14 	lds	r24, 0x1410	; 0x801410 <data>
    25c0:	90 91 11 14 	lds	r25, 0x1411	; 0x801411 <data+0x1>
    25c4:	18 16       	cp	r1, r24
    25c6:	19 06       	cpc	r1, r25
    25c8:	f4 f4       	brge	.+60     	; 0x2606 <__vector_25+0xa6>
    25ca:	80 91 10 14 	lds	r24, 0x1410	; 0x801410 <data>
    25ce:	90 91 11 14 	lds	r25, 0x1411	; 0x801411 <data+0x1>
    25d2:	c3 97       	sbiw	r24, 0x33	; 51
    25d4:	c4 f4       	brge	.+48     	; 0x2606 <__vector_25+0xa6>
	{
		nodes[h]=data;		//full nodes array
    25d6:	80 91 12 14 	lds	r24, 0x1412	; 0x801412 <h>
    25da:	90 91 13 14 	lds	r25, 0x1413	; 0x801413 <h+0x1>
    25de:	20 91 10 14 	lds	r18, 0x1410	; 0x801410 <data>
    25e2:	30 91 11 14 	lds	r19, 0x1411	; 0x801411 <data+0x1>
    25e6:	88 0f       	add	r24, r24
    25e8:	99 1f       	adc	r25, r25
    25ea:	85 57       	subi	r24, 0x75	; 117
    25ec:	9b 4e       	sbci	r25, 0xEB	; 235
    25ee:	fc 01       	movw	r30, r24
    25f0:	31 83       	std	Z+1, r19	; 0x01
    25f2:	20 83       	st	Z, r18
		h++;
    25f4:	80 91 12 14 	lds	r24, 0x1412	; 0x801412 <h>
    25f8:	90 91 13 14 	lds	r25, 0x1413	; 0x801413 <h+0x1>
    25fc:	01 96       	adiw	r24, 0x01	; 1
    25fe:	90 93 13 14 	sts	0x1413, r25	; 0x801413 <h+0x1>
    2602:	80 93 12 14 	sts	0x1412, r24	; 0x801412 <h>
	}
	
	
}
    2606:	df 91       	pop	r29
    2608:	cf 91       	pop	r28
    260a:	ff 91       	pop	r31
    260c:	ef 91       	pop	r30
    260e:	9f 91       	pop	r25
    2610:	8f 91       	pop	r24
    2612:	3f 91       	pop	r19
    2614:	2f 91       	pop	r18
    2616:	0f 90       	pop	r0
    2618:	00 92 5b 00 	sts	0x005B, r0	; 0x80005b <__TEXT_REGION_LENGTH__+0x70005b>
    261c:	0f 90       	pop	r0
    261e:	00 92 5f 00 	sts	0x005F, r0	; 0x80005f <__TEXT_REGION_LENGTH__+0x70005f>
    2622:	0f 90       	pop	r0
    2624:	1f 90       	pop	r1
    2626:	18 95       	reti

00002628 <decision>:

void decision(int prev,int prsnt,int nxt)
{
    2628:	cf 93       	push	r28
    262a:	df 93       	push	r29
    262c:	00 d0       	rcall	.+0      	; 0x262e <decision+0x6>
    262e:	00 d0       	rcall	.+0      	; 0x2630 <decision+0x8>
    2630:	cd b7       	in	r28, 0x3d	; 61
    2632:	de b7       	in	r29, 0x3e	; 62
    2634:	9a 83       	std	Y+2, r25	; 0x02
    2636:	89 83       	std	Y+1, r24	; 0x01
    2638:	7c 83       	std	Y+4, r23	; 0x04
    263a:	6b 83       	std	Y+3, r22	; 0x03
    263c:	5e 83       	std	Y+6, r21	; 0x06
    263e:	4d 83       	std	Y+5, r20	; 0x05
	if(prev==2 && prsnt==3 && nxt==35)
    2640:	89 81       	ldd	r24, Y+1	; 0x01
    2642:	9a 81       	ldd	r25, Y+2	; 0x02
    2644:	02 97       	sbiw	r24, 0x02	; 2
    2646:	59 f4       	brne	.+22     	; 0x265e <decision+0x36>
    2648:	8b 81       	ldd	r24, Y+3	; 0x03
    264a:	9c 81       	ldd	r25, Y+4	; 0x04
    264c:	03 97       	sbiw	r24, 0x03	; 3
    264e:	39 f4       	brne	.+14     	; 0x265e <decision+0x36>
    2650:	8d 81       	ldd	r24, Y+5	; 0x05
    2652:	9e 81       	ldd	r25, Y+6	; 0x06
    2654:	83 97       	sbiw	r24, 0x23	; 35
    2656:	19 f4       	brne	.+6      	; 0x265e <decision+0x36>
	{
		right_degrees(63);
    2658:	8f e3       	ldi	r24, 0x3F	; 63
    265a:	90 e0       	ldi	r25, 0x00	; 0
    265c:	e0 dc       	rcall	.-1600   	; 0x201e <right_degrees>
	}
	if(prev==35 && prsnt==3 && nxt==2)
    265e:	89 81       	ldd	r24, Y+1	; 0x01
    2660:	9a 81       	ldd	r25, Y+2	; 0x02
    2662:	83 97       	sbiw	r24, 0x23	; 35
    2664:	59 f4       	brne	.+22     	; 0x267c <decision+0x54>
    2666:	8b 81       	ldd	r24, Y+3	; 0x03
    2668:	9c 81       	ldd	r25, Y+4	; 0x04
    266a:	03 97       	sbiw	r24, 0x03	; 3
    266c:	39 f4       	brne	.+14     	; 0x267c <decision+0x54>
    266e:	8d 81       	ldd	r24, Y+5	; 0x05
    2670:	9e 81       	ldd	r25, Y+6	; 0x06
    2672:	02 97       	sbiw	r24, 0x02	; 2
    2674:	19 f4       	brne	.+6      	; 0x267c <decision+0x54>
	{
		left_degrees(63);
    2676:	8f e3       	ldi	r24, 0x3F	; 63
    2678:	90 e0       	ldi	r25, 0x00	; 0
    267a:	42 dc       	rcall	.-1916   	; 0x1f00 <left_degrees>
	}
	if(prev==2 && prsnt==3 && nxt==36)
    267c:	89 81       	ldd	r24, Y+1	; 0x01
    267e:	9a 81       	ldd	r25, Y+2	; 0x02
    2680:	02 97       	sbiw	r24, 0x02	; 2
    2682:	59 f4       	brne	.+22     	; 0x269a <decision+0x72>
    2684:	8b 81       	ldd	r24, Y+3	; 0x03
    2686:	9c 81       	ldd	r25, Y+4	; 0x04
    2688:	03 97       	sbiw	r24, 0x03	; 3
    268a:	39 f4       	brne	.+14     	; 0x269a <decision+0x72>
    268c:	8d 81       	ldd	r24, Y+5	; 0x05
    268e:	9e 81       	ldd	r25, Y+6	; 0x06
    2690:	84 97       	sbiw	r24, 0x24	; 36
    2692:	19 f4       	brne	.+6      	; 0x269a <decision+0x72>
	{
		right_degrees(123);
    2694:	8b e7       	ldi	r24, 0x7B	; 123
    2696:	90 e0       	ldi	r25, 0x00	; 0
    2698:	c2 dc       	rcall	.-1660   	; 0x201e <right_degrees>
	}
	if(prev==36 && prsnt==3 && nxt==2)
    269a:	89 81       	ldd	r24, Y+1	; 0x01
    269c:	9a 81       	ldd	r25, Y+2	; 0x02
    269e:	84 97       	sbiw	r24, 0x24	; 36
    26a0:	59 f4       	brne	.+22     	; 0x26b8 <decision+0x90>
    26a2:	8b 81       	ldd	r24, Y+3	; 0x03
    26a4:	9c 81       	ldd	r25, Y+4	; 0x04
    26a6:	03 97       	sbiw	r24, 0x03	; 3
    26a8:	39 f4       	brne	.+14     	; 0x26b8 <decision+0x90>
    26aa:	8d 81       	ldd	r24, Y+5	; 0x05
    26ac:	9e 81       	ldd	r25, Y+6	; 0x06
    26ae:	02 97       	sbiw	r24, 0x02	; 2
    26b0:	19 f4       	brne	.+6      	; 0x26b8 <decision+0x90>
	{
		left_degrees(125);
    26b2:	8d e7       	ldi	r24, 0x7D	; 125
    26b4:	90 e0       	ldi	r25, 0x00	; 0
    26b6:	24 dc       	rcall	.-1976   	; 0x1f00 <left_degrees>
	}
	if(prev==4 && prsnt==3 && nxt==35)
    26b8:	89 81       	ldd	r24, Y+1	; 0x01
    26ba:	9a 81       	ldd	r25, Y+2	; 0x02
    26bc:	04 97       	sbiw	r24, 0x04	; 4
    26be:	59 f4       	brne	.+22     	; 0x26d6 <decision+0xae>
    26c0:	8b 81       	ldd	r24, Y+3	; 0x03
    26c2:	9c 81       	ldd	r25, Y+4	; 0x04
    26c4:	03 97       	sbiw	r24, 0x03	; 3
    26c6:	39 f4       	brne	.+14     	; 0x26d6 <decision+0xae>
    26c8:	8d 81       	ldd	r24, Y+5	; 0x05
    26ca:	9e 81       	ldd	r25, Y+6	; 0x06
    26cc:	83 97       	sbiw	r24, 0x23	; 35
    26ce:	19 f4       	brne	.+6      	; 0x26d6 <decision+0xae>
	{
		left_degrees(123);
    26d0:	8b e7       	ldi	r24, 0x7B	; 123
    26d2:	90 e0       	ldi	r25, 0x00	; 0
    26d4:	15 dc       	rcall	.-2006   	; 0x1f00 <left_degrees>
	}
	if(prev==35 && prsnt==3 && nxt==4)
    26d6:	89 81       	ldd	r24, Y+1	; 0x01
    26d8:	9a 81       	ldd	r25, Y+2	; 0x02
    26da:	83 97       	sbiw	r24, 0x23	; 35
    26dc:	59 f4       	brne	.+22     	; 0x26f4 <decision+0xcc>
    26de:	8b 81       	ldd	r24, Y+3	; 0x03
    26e0:	9c 81       	ldd	r25, Y+4	; 0x04
    26e2:	03 97       	sbiw	r24, 0x03	; 3
    26e4:	39 f4       	brne	.+14     	; 0x26f4 <decision+0xcc>
    26e6:	8d 81       	ldd	r24, Y+5	; 0x05
    26e8:	9e 81       	ldd	r25, Y+6	; 0x06
    26ea:	04 97       	sbiw	r24, 0x04	; 4
    26ec:	19 f4       	brne	.+6      	; 0x26f4 <decision+0xcc>
	{
		right_degrees(125);
    26ee:	8d e7       	ldi	r24, 0x7D	; 125
    26f0:	90 e0       	ldi	r25, 0x00	; 0
    26f2:	95 dc       	rcall	.-1750   	; 0x201e <right_degrees>
	}
	if(prev==4 && prsnt==3 && nxt==36)
    26f4:	89 81       	ldd	r24, Y+1	; 0x01
    26f6:	9a 81       	ldd	r25, Y+2	; 0x02
    26f8:	04 97       	sbiw	r24, 0x04	; 4
    26fa:	59 f4       	brne	.+22     	; 0x2712 <decision+0xea>
    26fc:	8b 81       	ldd	r24, Y+3	; 0x03
    26fe:	9c 81       	ldd	r25, Y+4	; 0x04
    2700:	03 97       	sbiw	r24, 0x03	; 3
    2702:	39 f4       	brne	.+14     	; 0x2712 <decision+0xea>
    2704:	8d 81       	ldd	r24, Y+5	; 0x05
    2706:	9e 81       	ldd	r25, Y+6	; 0x06
    2708:	84 97       	sbiw	r24, 0x24	; 36
    270a:	19 f4       	brne	.+6      	; 0x2712 <decision+0xea>
	{
		left_degrees(63);
    270c:	8f e3       	ldi	r24, 0x3F	; 63
    270e:	90 e0       	ldi	r25, 0x00	; 0
    2710:	f7 db       	rcall	.-2066   	; 0x1f00 <left_degrees>
	}
	if(prev==36 && prsnt==3 && nxt==4)
    2712:	89 81       	ldd	r24, Y+1	; 0x01
    2714:	9a 81       	ldd	r25, Y+2	; 0x02
    2716:	84 97       	sbiw	r24, 0x24	; 36
    2718:	59 f4       	brne	.+22     	; 0x2730 <decision+0x108>
    271a:	8b 81       	ldd	r24, Y+3	; 0x03
    271c:	9c 81       	ldd	r25, Y+4	; 0x04
    271e:	03 97       	sbiw	r24, 0x03	; 3
    2720:	39 f4       	brne	.+14     	; 0x2730 <decision+0x108>
    2722:	8d 81       	ldd	r24, Y+5	; 0x05
    2724:	9e 81       	ldd	r25, Y+6	; 0x06
    2726:	04 97       	sbiw	r24, 0x04	; 4
    2728:	19 f4       	brne	.+6      	; 0x2730 <decision+0x108>
	{
		right_degrees(63);
    272a:	8f e3       	ldi	r24, 0x3F	; 63
    272c:	90 e0       	ldi	r25, 0x00	; 0
    272e:	77 dc       	rcall	.-1810   	; 0x201e <right_degrees>
	}
	if(prev==36 && prsnt==3 && nxt==35)
    2730:	89 81       	ldd	r24, Y+1	; 0x01
    2732:	9a 81       	ldd	r25, Y+2	; 0x02
    2734:	84 97       	sbiw	r24, 0x24	; 36
    2736:	59 f4       	brne	.+22     	; 0x274e <decision+0x126>
    2738:	8b 81       	ldd	r24, Y+3	; 0x03
    273a:	9c 81       	ldd	r25, Y+4	; 0x04
    273c:	03 97       	sbiw	r24, 0x03	; 3
    273e:	39 f4       	brne	.+14     	; 0x274e <decision+0x126>
    2740:	8d 81       	ldd	r24, Y+5	; 0x05
    2742:	9e 81       	ldd	r25, Y+6	; 0x06
    2744:	83 97       	sbiw	r24, 0x23	; 35
    2746:	19 f4       	brne	.+6      	; 0x274e <decision+0x126>
	{
		right_degrees(123);
    2748:	8b e7       	ldi	r24, 0x7B	; 123
    274a:	90 e0       	ldi	r25, 0x00	; 0
    274c:	68 dc       	rcall	.-1840   	; 0x201e <right_degrees>
	}
	if(prev==35 && prsnt==3 && nxt==36)
    274e:	89 81       	ldd	r24, Y+1	; 0x01
    2750:	9a 81       	ldd	r25, Y+2	; 0x02
    2752:	83 97       	sbiw	r24, 0x23	; 35
    2754:	59 f4       	brne	.+22     	; 0x276c <decision+0x144>
    2756:	8b 81       	ldd	r24, Y+3	; 0x03
    2758:	9c 81       	ldd	r25, Y+4	; 0x04
    275a:	03 97       	sbiw	r24, 0x03	; 3
    275c:	39 f4       	brne	.+14     	; 0x276c <decision+0x144>
    275e:	8d 81       	ldd	r24, Y+5	; 0x05
    2760:	9e 81       	ldd	r25, Y+6	; 0x06
    2762:	84 97       	sbiw	r24, 0x24	; 36
    2764:	19 f4       	brne	.+6      	; 0x276c <decision+0x144>
	{
		left_degrees(123);
    2766:	8b e7       	ldi	r24, 0x7B	; 123
    2768:	90 e0       	ldi	r25, 0x00	; 0
    276a:	ca db       	rcall	.-2156   	; 0x1f00 <left_degrees>
	}
	if(prev==3 && prsnt==35 && nxt==36)
    276c:	89 81       	ldd	r24, Y+1	; 0x01
    276e:	9a 81       	ldd	r25, Y+2	; 0x02
    2770:	03 97       	sbiw	r24, 0x03	; 3
    2772:	59 f4       	brne	.+22     	; 0x278a <decision+0x162>
    2774:	8b 81       	ldd	r24, Y+3	; 0x03
    2776:	9c 81       	ldd	r25, Y+4	; 0x04
    2778:	83 97       	sbiw	r24, 0x23	; 35
    277a:	39 f4       	brne	.+14     	; 0x278a <decision+0x162>
    277c:	8d 81       	ldd	r24, Y+5	; 0x05
    277e:	9e 81       	ldd	r25, Y+6	; 0x06
    2780:	84 97       	sbiw	r24, 0x24	; 36
    2782:	19 f4       	brne	.+6      	; 0x278a <decision+0x162>
	{
		right_degrees(123);
    2784:	8b e7       	ldi	r24, 0x7B	; 123
    2786:	90 e0       	ldi	r25, 0x00	; 0
    2788:	4a dc       	rcall	.-1900   	; 0x201e <right_degrees>
	}
	if(prev==36 && prsnt==35 && nxt==3)
    278a:	89 81       	ldd	r24, Y+1	; 0x01
    278c:	9a 81       	ldd	r25, Y+2	; 0x02
    278e:	84 97       	sbiw	r24, 0x24	; 36
    2790:	59 f4       	brne	.+22     	; 0x27a8 <decision+0x180>
    2792:	8b 81       	ldd	r24, Y+3	; 0x03
    2794:	9c 81       	ldd	r25, Y+4	; 0x04
    2796:	83 97       	sbiw	r24, 0x23	; 35
    2798:	39 f4       	brne	.+14     	; 0x27a8 <decision+0x180>
    279a:	8d 81       	ldd	r24, Y+5	; 0x05
    279c:	9e 81       	ldd	r25, Y+6	; 0x06
    279e:	03 97       	sbiw	r24, 0x03	; 3
    27a0:	19 f4       	brne	.+6      	; 0x27a8 <decision+0x180>
	{
		left_degrees(123);
    27a2:	8b e7       	ldi	r24, 0x7B	; 123
    27a4:	90 e0       	ldi	r25, 0x00	; 0
    27a6:	ac db       	rcall	.-2216   	; 0x1f00 <left_degrees>
	}
	if(prev==40 && prsnt==35 && nxt==36)
    27a8:	89 81       	ldd	r24, Y+1	; 0x01
    27aa:	9a 81       	ldd	r25, Y+2	; 0x02
    27ac:	88 97       	sbiw	r24, 0x28	; 40
    27ae:	59 f4       	brne	.+22     	; 0x27c6 <decision+0x19e>
    27b0:	8b 81       	ldd	r24, Y+3	; 0x03
    27b2:	9c 81       	ldd	r25, Y+4	; 0x04
    27b4:	83 97       	sbiw	r24, 0x23	; 35
    27b6:	39 f4       	brne	.+14     	; 0x27c6 <decision+0x19e>
    27b8:	8d 81       	ldd	r24, Y+5	; 0x05
    27ba:	9e 81       	ldd	r25, Y+6	; 0x06
    27bc:	84 97       	sbiw	r24, 0x24	; 36
    27be:	19 f4       	brne	.+6      	; 0x27c6 <decision+0x19e>
	{
		left_degrees(63);
    27c0:	8f e3       	ldi	r24, 0x3F	; 63
    27c2:	90 e0       	ldi	r25, 0x00	; 0
    27c4:	9d db       	rcall	.-2246   	; 0x1f00 <left_degrees>
	}
	if(prev==36 && prsnt==35 && nxt==40)
    27c6:	89 81       	ldd	r24, Y+1	; 0x01
    27c8:	9a 81       	ldd	r25, Y+2	; 0x02
    27ca:	84 97       	sbiw	r24, 0x24	; 36
    27cc:	59 f4       	brne	.+22     	; 0x27e4 <decision+0x1bc>
    27ce:	8b 81       	ldd	r24, Y+3	; 0x03
    27d0:	9c 81       	ldd	r25, Y+4	; 0x04
    27d2:	83 97       	sbiw	r24, 0x23	; 35
    27d4:	39 f4       	brne	.+14     	; 0x27e4 <decision+0x1bc>
    27d6:	8d 81       	ldd	r24, Y+5	; 0x05
    27d8:	9e 81       	ldd	r25, Y+6	; 0x06
    27da:	88 97       	sbiw	r24, 0x28	; 40
    27dc:	19 f4       	brne	.+6      	; 0x27e4 <decision+0x1bc>
	{
		right_degrees(63);
    27de:	8f e3       	ldi	r24, 0x3F	; 63
    27e0:	90 e0       	ldi	r25, 0x00	; 0
    27e2:	1d dc       	rcall	.-1990   	; 0x201e <right_degrees>
	}
	if(prev==35 && prsnt==40 && nxt==39)
    27e4:	89 81       	ldd	r24, Y+1	; 0x01
    27e6:	9a 81       	ldd	r25, Y+2	; 0x02
    27e8:	83 97       	sbiw	r24, 0x23	; 35
    27ea:	59 f4       	brne	.+22     	; 0x2802 <decision+0x1da>
    27ec:	8b 81       	ldd	r24, Y+3	; 0x03
    27ee:	9c 81       	ldd	r25, Y+4	; 0x04
    27f0:	88 97       	sbiw	r24, 0x28	; 40
    27f2:	39 f4       	brne	.+14     	; 0x2802 <decision+0x1da>
    27f4:	8d 81       	ldd	r24, Y+5	; 0x05
    27f6:	9e 81       	ldd	r25, Y+6	; 0x06
    27f8:	87 97       	sbiw	r24, 0x27	; 39
    27fa:	19 f4       	brne	.+6      	; 0x2802 <decision+0x1da>
	{
		right_degrees(63);
    27fc:	8f e3       	ldi	r24, 0x3F	; 63
    27fe:	90 e0       	ldi	r25, 0x00	; 0
    2800:	0e dc       	rcall	.-2020   	; 0x201e <right_degrees>
	}
	if(prev==39 && prsnt==40 && nxt==35)
    2802:	89 81       	ldd	r24, Y+1	; 0x01
    2804:	9a 81       	ldd	r25, Y+2	; 0x02
    2806:	87 97       	sbiw	r24, 0x27	; 39
    2808:	59 f4       	brne	.+22     	; 0x2820 <decision+0x1f8>
    280a:	8b 81       	ldd	r24, Y+3	; 0x03
    280c:	9c 81       	ldd	r25, Y+4	; 0x04
    280e:	88 97       	sbiw	r24, 0x28	; 40
    2810:	39 f4       	brne	.+14     	; 0x2820 <decision+0x1f8>
    2812:	8d 81       	ldd	r24, Y+5	; 0x05
    2814:	9e 81       	ldd	r25, Y+6	; 0x06
    2816:	83 97       	sbiw	r24, 0x23	; 35
    2818:	19 f4       	brne	.+6      	; 0x2820 <decision+0x1f8>
	{
		left_degrees(63);
    281a:	8f e3       	ldi	r24, 0x3F	; 63
    281c:	90 e0       	ldi	r25, 0x00	; 0
    281e:	70 db       	rcall	.-2336   	; 0x1f00 <left_degrees>
	}
	if(prev==35 && prsnt==40 && nxt==34)
    2820:	89 81       	ldd	r24, Y+1	; 0x01
    2822:	9a 81       	ldd	r25, Y+2	; 0x02
    2824:	83 97       	sbiw	r24, 0x23	; 35
    2826:	59 f4       	brne	.+22     	; 0x283e <decision+0x216>
    2828:	8b 81       	ldd	r24, Y+3	; 0x03
    282a:	9c 81       	ldd	r25, Y+4	; 0x04
    282c:	88 97       	sbiw	r24, 0x28	; 40
    282e:	39 f4       	brne	.+14     	; 0x283e <decision+0x216>
    2830:	8d 81       	ldd	r24, Y+5	; 0x05
    2832:	9e 81       	ldd	r25, Y+6	; 0x06
    2834:	82 97       	sbiw	r24, 0x22	; 34
    2836:	19 f4       	brne	.+6      	; 0x283e <decision+0x216>
	{
		left_degrees(63);
    2838:	8f e3       	ldi	r24, 0x3F	; 63
    283a:	90 e0       	ldi	r25, 0x00	; 0
    283c:	61 db       	rcall	.-2366   	; 0x1f00 <left_degrees>
	}
	if(prev==34 && prsnt==40 && nxt==35)
    283e:	89 81       	ldd	r24, Y+1	; 0x01
    2840:	9a 81       	ldd	r25, Y+2	; 0x02
    2842:	82 97       	sbiw	r24, 0x22	; 34
    2844:	59 f4       	brne	.+22     	; 0x285c <decision+0x234>
    2846:	8b 81       	ldd	r24, Y+3	; 0x03
    2848:	9c 81       	ldd	r25, Y+4	; 0x04
    284a:	88 97       	sbiw	r24, 0x28	; 40
    284c:	39 f4       	brne	.+14     	; 0x285c <decision+0x234>
    284e:	8d 81       	ldd	r24, Y+5	; 0x05
    2850:	9e 81       	ldd	r25, Y+6	; 0x06
    2852:	83 97       	sbiw	r24, 0x23	; 35
    2854:	19 f4       	brne	.+6      	; 0x285c <decision+0x234>
	{
		right_degrees(63);
    2856:	8f e3       	ldi	r24, 0x3F	; 63
    2858:	90 e0       	ldi	r25, 0x00	; 0
    285a:	e1 db       	rcall	.-2110   	; 0x201e <right_degrees>
	}
	if(prev==34 && prsnt==40 && nxt==39)
    285c:	89 81       	ldd	r24, Y+1	; 0x01
    285e:	9a 81       	ldd	r25, Y+2	; 0x02
    2860:	82 97       	sbiw	r24, 0x22	; 34
    2862:	59 f4       	brne	.+22     	; 0x287a <decision+0x252>
    2864:	8b 81       	ldd	r24, Y+3	; 0x03
    2866:	9c 81       	ldd	r25, Y+4	; 0x04
    2868:	88 97       	sbiw	r24, 0x28	; 40
    286a:	39 f4       	brne	.+14     	; 0x287a <decision+0x252>
    286c:	8d 81       	ldd	r24, Y+5	; 0x05
    286e:	9e 81       	ldd	r25, Y+6	; 0x06
    2870:	87 97       	sbiw	r24, 0x27	; 39
    2872:	19 f4       	brne	.+6      	; 0x287a <decision+0x252>
	{
		left_degrees(63);
    2874:	8f e3       	ldi	r24, 0x3F	; 63
    2876:	90 e0       	ldi	r25, 0x00	; 0
    2878:	43 db       	rcall	.-2426   	; 0x1f00 <left_degrees>
	}
	if(prev==39 && prsnt==40 && nxt==34)
    287a:	89 81       	ldd	r24, Y+1	; 0x01
    287c:	9a 81       	ldd	r25, Y+2	; 0x02
    287e:	87 97       	sbiw	r24, 0x27	; 39
    2880:	59 f4       	brne	.+22     	; 0x2898 <decision+0x270>
    2882:	8b 81       	ldd	r24, Y+3	; 0x03
    2884:	9c 81       	ldd	r25, Y+4	; 0x04
    2886:	88 97       	sbiw	r24, 0x28	; 40
    2888:	39 f4       	brne	.+14     	; 0x2898 <decision+0x270>
    288a:	8d 81       	ldd	r24, Y+5	; 0x05
    288c:	9e 81       	ldd	r25, Y+6	; 0x06
    288e:	82 97       	sbiw	r24, 0x22	; 34
    2890:	19 f4       	brne	.+6      	; 0x2898 <decision+0x270>
	{
		right_degrees(63);
    2892:	8f e3       	ldi	r24, 0x3F	; 63
    2894:	90 e0       	ldi	r25, 0x00	; 0
    2896:	c3 db       	rcall	.-2170   	; 0x201e <right_degrees>
	}
	if(prev==39 && prsnt==40 && nxt==41)
    2898:	89 81       	ldd	r24, Y+1	; 0x01
    289a:	9a 81       	ldd	r25, Y+2	; 0x02
    289c:	87 97       	sbiw	r24, 0x27	; 39
    289e:	59 f4       	brne	.+22     	; 0x28b6 <decision+0x28e>
    28a0:	8b 81       	ldd	r24, Y+3	; 0x03
    28a2:	9c 81       	ldd	r25, Y+4	; 0x04
    28a4:	88 97       	sbiw	r24, 0x28	; 40
    28a6:	39 f4       	brne	.+14     	; 0x28b6 <decision+0x28e>
    28a8:	8d 81       	ldd	r24, Y+5	; 0x05
    28aa:	9e 81       	ldd	r25, Y+6	; 0x06
    28ac:	89 97       	sbiw	r24, 0x29	; 41
    28ae:	19 f4       	brne	.+6      	; 0x28b6 <decision+0x28e>
	{
		right_degrees(123);
    28b0:	8b e7       	ldi	r24, 0x7B	; 123
    28b2:	90 e0       	ldi	r25, 0x00	; 0
    28b4:	b4 db       	rcall	.-2200   	; 0x201e <right_degrees>
	}
	if(prev==41 && prsnt==40 && nxt==39)
    28b6:	89 81       	ldd	r24, Y+1	; 0x01
    28b8:	9a 81       	ldd	r25, Y+2	; 0x02
    28ba:	89 97       	sbiw	r24, 0x29	; 41
    28bc:	59 f4       	brne	.+22     	; 0x28d4 <decision+0x2ac>
    28be:	8b 81       	ldd	r24, Y+3	; 0x03
    28c0:	9c 81       	ldd	r25, Y+4	; 0x04
    28c2:	88 97       	sbiw	r24, 0x28	; 40
    28c4:	39 f4       	brne	.+14     	; 0x28d4 <decision+0x2ac>
    28c6:	8d 81       	ldd	r24, Y+5	; 0x05
    28c8:	9e 81       	ldd	r25, Y+6	; 0x06
    28ca:	87 97       	sbiw	r24, 0x27	; 39
    28cc:	19 f4       	brne	.+6      	; 0x28d4 <decision+0x2ac>
	{
		left_degrees(123);
    28ce:	8b e7       	ldi	r24, 0x7B	; 123
    28d0:	90 e0       	ldi	r25, 0x00	; 0
    28d2:	16 db       	rcall	.-2516   	; 0x1f00 <left_degrees>
	}
	if(prev==34 && prsnt==40 && nxt==41)
    28d4:	89 81       	ldd	r24, Y+1	; 0x01
    28d6:	9a 81       	ldd	r25, Y+2	; 0x02
    28d8:	82 97       	sbiw	r24, 0x22	; 34
    28da:	59 f4       	brne	.+22     	; 0x28f2 <decision+0x2ca>
    28dc:	8b 81       	ldd	r24, Y+3	; 0x03
    28de:	9c 81       	ldd	r25, Y+4	; 0x04
    28e0:	88 97       	sbiw	r24, 0x28	; 40
    28e2:	39 f4       	brne	.+14     	; 0x28f2 <decision+0x2ca>
    28e4:	8d 81       	ldd	r24, Y+5	; 0x05
    28e6:	9e 81       	ldd	r25, Y+6	; 0x06
    28e8:	89 97       	sbiw	r24, 0x29	; 41
    28ea:	19 f4       	brne	.+6      	; 0x28f2 <decision+0x2ca>
	{
		left_degrees(123);
    28ec:	8b e7       	ldi	r24, 0x7B	; 123
    28ee:	90 e0       	ldi	r25, 0x00	; 0
    28f0:	07 db       	rcall	.-2546   	; 0x1f00 <left_degrees>
	}
	if(prev==41 && prsnt==40 && nxt==34)
    28f2:	89 81       	ldd	r24, Y+1	; 0x01
    28f4:	9a 81       	ldd	r25, Y+2	; 0x02
    28f6:	89 97       	sbiw	r24, 0x29	; 41
    28f8:	59 f4       	brne	.+22     	; 0x2910 <decision+0x2e8>
    28fa:	8b 81       	ldd	r24, Y+3	; 0x03
    28fc:	9c 81       	ldd	r25, Y+4	; 0x04
    28fe:	88 97       	sbiw	r24, 0x28	; 40
    2900:	39 f4       	brne	.+14     	; 0x2910 <decision+0x2e8>
    2902:	8d 81       	ldd	r24, Y+5	; 0x05
    2904:	9e 81       	ldd	r25, Y+6	; 0x06
    2906:	82 97       	sbiw	r24, 0x22	; 34
    2908:	19 f4       	brne	.+6      	; 0x2910 <decision+0x2e8>
	{
		right_degrees(123);
    290a:	8b e7       	ldi	r24, 0x7B	; 123
    290c:	90 e0       	ldi	r25, 0x00	; 0
    290e:	87 db       	rcall	.-2290   	; 0x201e <right_degrees>
	}
	if(prev==35 && prsnt==36 && nxt==37)
    2910:	89 81       	ldd	r24, Y+1	; 0x01
    2912:	9a 81       	ldd	r25, Y+2	; 0x02
    2914:	83 97       	sbiw	r24, 0x23	; 35
    2916:	59 f4       	brne	.+22     	; 0x292e <decision+0x306>
    2918:	8b 81       	ldd	r24, Y+3	; 0x03
    291a:	9c 81       	ldd	r25, Y+4	; 0x04
    291c:	84 97       	sbiw	r24, 0x24	; 36
    291e:	39 f4       	brne	.+14     	; 0x292e <decision+0x306>
    2920:	8d 81       	ldd	r24, Y+5	; 0x05
    2922:	9e 81       	ldd	r25, Y+6	; 0x06
    2924:	85 97       	sbiw	r24, 0x25	; 37
    2926:	19 f4       	brne	.+6      	; 0x292e <decision+0x306>
	{
		left_degrees(63);
    2928:	8f e3       	ldi	r24, 0x3F	; 63
    292a:	90 e0       	ldi	r25, 0x00	; 0
    292c:	e9 da       	rcall	.-2606   	; 0x1f00 <left_degrees>
	}
	if(prev==37 && prsnt==36 && nxt==35)
    292e:	89 81       	ldd	r24, Y+1	; 0x01
    2930:	9a 81       	ldd	r25, Y+2	; 0x02
    2932:	85 97       	sbiw	r24, 0x25	; 37
    2934:	59 f4       	brne	.+22     	; 0x294c <decision+0x324>
    2936:	8b 81       	ldd	r24, Y+3	; 0x03
    2938:	9c 81       	ldd	r25, Y+4	; 0x04
    293a:	84 97       	sbiw	r24, 0x24	; 36
    293c:	39 f4       	brne	.+14     	; 0x294c <decision+0x324>
    293e:	8d 81       	ldd	r24, Y+5	; 0x05
    2940:	9e 81       	ldd	r25, Y+6	; 0x06
    2942:	83 97       	sbiw	r24, 0x23	; 35
    2944:	19 f4       	brne	.+6      	; 0x294c <decision+0x324>
	{
		right_degrees(63);
    2946:	8f e3       	ldi	r24, 0x3F	; 63
    2948:	90 e0       	ldi	r25, 0x00	; 0
    294a:	69 db       	rcall	.-2350   	; 0x201e <right_degrees>
	}
	if(prev==3 && prsnt==36 && nxt==35)
    294c:	89 81       	ldd	r24, Y+1	; 0x01
    294e:	9a 81       	ldd	r25, Y+2	; 0x02
    2950:	03 97       	sbiw	r24, 0x03	; 3
    2952:	59 f4       	brne	.+22     	; 0x296a <decision+0x342>
    2954:	8b 81       	ldd	r24, Y+3	; 0x03
    2956:	9c 81       	ldd	r25, Y+4	; 0x04
    2958:	84 97       	sbiw	r24, 0x24	; 36
    295a:	39 f4       	brne	.+14     	; 0x296a <decision+0x342>
    295c:	8d 81       	ldd	r24, Y+5	; 0x05
    295e:	9e 81       	ldd	r25, Y+6	; 0x06
    2960:	83 97       	sbiw	r24, 0x23	; 35
    2962:	19 f4       	brne	.+6      	; 0x296a <decision+0x342>
	{
		left_degrees(123);
    2964:	8b e7       	ldi	r24, 0x7B	; 123
    2966:	90 e0       	ldi	r25, 0x00	; 0
    2968:	cb da       	rcall	.-2666   	; 0x1f00 <left_degrees>
	}
	if(prev==35 && prsnt==36 && nxt==3)
    296a:	89 81       	ldd	r24, Y+1	; 0x01
    296c:	9a 81       	ldd	r25, Y+2	; 0x02
    296e:	83 97       	sbiw	r24, 0x23	; 35
    2970:	59 f4       	brne	.+22     	; 0x2988 <decision+0x360>
    2972:	8b 81       	ldd	r24, Y+3	; 0x03
    2974:	9c 81       	ldd	r25, Y+4	; 0x04
    2976:	84 97       	sbiw	r24, 0x24	; 36
    2978:	39 f4       	brne	.+14     	; 0x2988 <decision+0x360>
    297a:	8d 81       	ldd	r24, Y+5	; 0x05
    297c:	9e 81       	ldd	r25, Y+6	; 0x06
    297e:	03 97       	sbiw	r24, 0x03	; 3
    2980:	19 f4       	brne	.+6      	; 0x2988 <decision+0x360>
	{
		left_degrees(123);
    2982:	8b e7       	ldi	r24, 0x7B	; 123
    2984:	90 e0       	ldi	r25, 0x00	; 0
    2986:	bc da       	rcall	.-2696   	; 0x1f00 <left_degrees>
	}
	if(prev==36 && prsnt==37 && nxt==38)
    2988:	89 81       	ldd	r24, Y+1	; 0x01
    298a:	9a 81       	ldd	r25, Y+2	; 0x02
    298c:	84 97       	sbiw	r24, 0x24	; 36
    298e:	59 f4       	brne	.+22     	; 0x29a6 <decision+0x37e>
    2990:	8b 81       	ldd	r24, Y+3	; 0x03
    2992:	9c 81       	ldd	r25, Y+4	; 0x04
    2994:	85 97       	sbiw	r24, 0x25	; 37
    2996:	39 f4       	brne	.+14     	; 0x29a6 <decision+0x37e>
    2998:	8d 81       	ldd	r24, Y+5	; 0x05
    299a:	9e 81       	ldd	r25, Y+6	; 0x06
    299c:	86 97       	sbiw	r24, 0x26	; 38
    299e:	19 f4       	brne	.+6      	; 0x29a6 <decision+0x37e>
	{
		left_degrees(63);
    29a0:	8f e3       	ldi	r24, 0x3F	; 63
    29a2:	90 e0       	ldi	r25, 0x00	; 0
    29a4:	ad da       	rcall	.-2726   	; 0x1f00 <left_degrees>
	}
	if(prev==38 && prsnt==37 && nxt==36)
    29a6:	89 81       	ldd	r24, Y+1	; 0x01
    29a8:	9a 81       	ldd	r25, Y+2	; 0x02
    29aa:	86 97       	sbiw	r24, 0x26	; 38
    29ac:	59 f4       	brne	.+22     	; 0x29c4 <decision+0x39c>
    29ae:	8b 81       	ldd	r24, Y+3	; 0x03
    29b0:	9c 81       	ldd	r25, Y+4	; 0x04
    29b2:	85 97       	sbiw	r24, 0x25	; 37
    29b4:	39 f4       	brne	.+14     	; 0x29c4 <decision+0x39c>
    29b6:	8d 81       	ldd	r24, Y+5	; 0x05
    29b8:	9e 81       	ldd	r25, Y+6	; 0x06
    29ba:	84 97       	sbiw	r24, 0x24	; 36
    29bc:	19 f4       	brne	.+6      	; 0x29c4 <decision+0x39c>
	{
		right_degrees(63);
    29be:	8f e3       	ldi	r24, 0x3F	; 63
    29c0:	90 e0       	ldi	r25, 0x00	; 0
    29c2:	2d db       	rcall	.-2470   	; 0x201e <right_degrees>
	}
	if(prev==25 && prsnt==37 && nxt==48)
    29c4:	89 81       	ldd	r24, Y+1	; 0x01
    29c6:	9a 81       	ldd	r25, Y+2	; 0x02
    29c8:	49 97       	sbiw	r24, 0x19	; 25
    29ca:	59 f4       	brne	.+22     	; 0x29e2 <decision+0x3ba>
    29cc:	8b 81       	ldd	r24, Y+3	; 0x03
    29ce:	9c 81       	ldd	r25, Y+4	; 0x04
    29d0:	85 97       	sbiw	r24, 0x25	; 37
    29d2:	39 f4       	brne	.+14     	; 0x29e2 <decision+0x3ba>
    29d4:	8d 81       	ldd	r24, Y+5	; 0x05
    29d6:	9e 81       	ldd	r25, Y+6	; 0x06
    29d8:	c0 97       	sbiw	r24, 0x30	; 48
    29da:	19 f4       	brne	.+6      	; 0x29e2 <decision+0x3ba>
	{
		right_degrees(123);
    29dc:	8b e7       	ldi	r24, 0x7B	; 123
    29de:	90 e0       	ldi	r25, 0x00	; 0
    29e0:	1e db       	rcall	.-2500   	; 0x201e <right_degrees>
	}
	if(prev==48 && prsnt==37 && nxt==25)
    29e2:	89 81       	ldd	r24, Y+1	; 0x01
    29e4:	9a 81       	ldd	r25, Y+2	; 0x02
    29e6:	c0 97       	sbiw	r24, 0x30	; 48
    29e8:	59 f4       	brne	.+22     	; 0x2a00 <decision+0x3d8>
    29ea:	8b 81       	ldd	r24, Y+3	; 0x03
    29ec:	9c 81       	ldd	r25, Y+4	; 0x04
    29ee:	85 97       	sbiw	r24, 0x25	; 37
    29f0:	39 f4       	brne	.+14     	; 0x2a00 <decision+0x3d8>
    29f2:	8d 81       	ldd	r24, Y+5	; 0x05
    29f4:	9e 81       	ldd	r25, Y+6	; 0x06
    29f6:	49 97       	sbiw	r24, 0x19	; 25
    29f8:	19 f4       	brne	.+6      	; 0x2a00 <decision+0x3d8>
	{
		left_degrees(123);
    29fa:	8b e7       	ldi	r24, 0x7B	; 123
    29fc:	90 e0       	ldi	r25, 0x00	; 0
    29fe:	80 da       	rcall	.-2816   	; 0x1f00 <left_degrees>
	}
	if(prev==36 && prsnt==37 && nxt==25)
    2a00:	89 81       	ldd	r24, Y+1	; 0x01
    2a02:	9a 81       	ldd	r25, Y+2	; 0x02
    2a04:	84 97       	sbiw	r24, 0x24	; 36
    2a06:	59 f4       	brne	.+22     	; 0x2a1e <decision+0x3f6>
    2a08:	8b 81       	ldd	r24, Y+3	; 0x03
    2a0a:	9c 81       	ldd	r25, Y+4	; 0x04
    2a0c:	85 97       	sbiw	r24, 0x25	; 37
    2a0e:	39 f4       	brne	.+14     	; 0x2a1e <decision+0x3f6>
    2a10:	8d 81       	ldd	r24, Y+5	; 0x05
    2a12:	9e 81       	ldd	r25, Y+6	; 0x06
    2a14:	49 97       	sbiw	r24, 0x19	; 25
    2a16:	19 f4       	brne	.+6      	; 0x2a1e <decision+0x3f6>
	{
		right_degrees(63);
    2a18:	8f e3       	ldi	r24, 0x3F	; 63
    2a1a:	90 e0       	ldi	r25, 0x00	; 0
    2a1c:	00 db       	rcall	.-2560   	; 0x201e <right_degrees>
	}
	if(prev==25 && prsnt==37 && nxt==36)
    2a1e:	89 81       	ldd	r24, Y+1	; 0x01
    2a20:	9a 81       	ldd	r25, Y+2	; 0x02
    2a22:	49 97       	sbiw	r24, 0x19	; 25
    2a24:	59 f4       	brne	.+22     	; 0x2a3c <decision+0x414>
    2a26:	8b 81       	ldd	r24, Y+3	; 0x03
    2a28:	9c 81       	ldd	r25, Y+4	; 0x04
    2a2a:	85 97       	sbiw	r24, 0x25	; 37
    2a2c:	39 f4       	brne	.+14     	; 0x2a3c <decision+0x414>
    2a2e:	8d 81       	ldd	r24, Y+5	; 0x05
    2a30:	9e 81       	ldd	r25, Y+6	; 0x06
    2a32:	84 97       	sbiw	r24, 0x24	; 36
    2a34:	19 f4       	brne	.+6      	; 0x2a3c <decision+0x414>
	{
		left_degrees(63);
    2a36:	8f e3       	ldi	r24, 0x3F	; 63
    2a38:	90 e0       	ldi	r25, 0x00	; 0
    2a3a:	62 da       	rcall	.-2876   	; 0x1f00 <left_degrees>
	}
	if(prev==38 && prsnt==37 && nxt==48)
    2a3c:	89 81       	ldd	r24, Y+1	; 0x01
    2a3e:	9a 81       	ldd	r25, Y+2	; 0x02
    2a40:	86 97       	sbiw	r24, 0x26	; 38
    2a42:	59 f4       	brne	.+22     	; 0x2a5a <decision+0x432>
    2a44:	8b 81       	ldd	r24, Y+3	; 0x03
    2a46:	9c 81       	ldd	r25, Y+4	; 0x04
    2a48:	85 97       	sbiw	r24, 0x25	; 37
    2a4a:	39 f4       	brne	.+14     	; 0x2a5a <decision+0x432>
    2a4c:	8d 81       	ldd	r24, Y+5	; 0x05
    2a4e:	9e 81       	ldd	r25, Y+6	; 0x06
    2a50:	c0 97       	sbiw	r24, 0x30	; 48
    2a52:	19 f4       	brne	.+6      	; 0x2a5a <decision+0x432>
	{
		left_degrees(123);
    2a54:	8b e7       	ldi	r24, 0x7B	; 123
    2a56:	90 e0       	ldi	r25, 0x00	; 0
    2a58:	53 da       	rcall	.-2906   	; 0x1f00 <left_degrees>
	}
	if(prev==48 && prsnt==37 && nxt==38)
    2a5a:	89 81       	ldd	r24, Y+1	; 0x01
    2a5c:	9a 81       	ldd	r25, Y+2	; 0x02
    2a5e:	c0 97       	sbiw	r24, 0x30	; 48
    2a60:	59 f4       	brne	.+22     	; 0x2a78 <decision+0x450>
    2a62:	8b 81       	ldd	r24, Y+3	; 0x03
    2a64:	9c 81       	ldd	r25, Y+4	; 0x04
    2a66:	85 97       	sbiw	r24, 0x25	; 37
    2a68:	39 f4       	brne	.+14     	; 0x2a78 <decision+0x450>
    2a6a:	8d 81       	ldd	r24, Y+5	; 0x05
    2a6c:	9e 81       	ldd	r25, Y+6	; 0x06
    2a6e:	86 97       	sbiw	r24, 0x26	; 38
    2a70:	19 f4       	brne	.+6      	; 0x2a78 <decision+0x450>
	{
		left_degrees(123);
    2a72:	8b e7       	ldi	r24, 0x7B	; 123
    2a74:	90 e0       	ldi	r25, 0x00	; 0
    2a76:	44 da       	rcall	.-2936   	; 0x1f00 <left_degrees>
	}
	if(prev==25 && prsnt==37 && nxt==38)
    2a78:	89 81       	ldd	r24, Y+1	; 0x01
    2a7a:	9a 81       	ldd	r25, Y+2	; 0x02
    2a7c:	49 97       	sbiw	r24, 0x19	; 25
    2a7e:	59 f4       	brne	.+22     	; 0x2a96 <decision+0x46e>
    2a80:	8b 81       	ldd	r24, Y+3	; 0x03
    2a82:	9c 81       	ldd	r25, Y+4	; 0x04
    2a84:	85 97       	sbiw	r24, 0x25	; 37
    2a86:	39 f4       	brne	.+14     	; 0x2a96 <decision+0x46e>
    2a88:	8d 81       	ldd	r24, Y+5	; 0x05
    2a8a:	9e 81       	ldd	r25, Y+6	; 0x06
    2a8c:	86 97       	sbiw	r24, 0x26	; 38
    2a8e:	19 f4       	brne	.+6      	; 0x2a96 <decision+0x46e>
	{
		right_degrees(63);
    2a90:	8f e3       	ldi	r24, 0x3F	; 63
    2a92:	90 e0       	ldi	r25, 0x00	; 0
    2a94:	c4 da       	rcall	.-2680   	; 0x201e <right_degrees>
	}
	if(prev==38 && prsnt==37 && nxt==25)
    2a96:	89 81       	ldd	r24, Y+1	; 0x01
    2a98:	9a 81       	ldd	r25, Y+2	; 0x02
    2a9a:	86 97       	sbiw	r24, 0x26	; 38
    2a9c:	59 f4       	brne	.+22     	; 0x2ab4 <decision+0x48c>
    2a9e:	8b 81       	ldd	r24, Y+3	; 0x03
    2aa0:	9c 81       	ldd	r25, Y+4	; 0x04
    2aa2:	85 97       	sbiw	r24, 0x25	; 37
    2aa4:	39 f4       	brne	.+14     	; 0x2ab4 <decision+0x48c>
    2aa6:	8d 81       	ldd	r24, Y+5	; 0x05
    2aa8:	9e 81       	ldd	r25, Y+6	; 0x06
    2aaa:	49 97       	sbiw	r24, 0x19	; 25
    2aac:	19 f4       	brne	.+6      	; 0x2ab4 <decision+0x48c>
	{
		left_degrees(63);
    2aae:	8f e3       	ldi	r24, 0x3F	; 63
    2ab0:	90 e0       	ldi	r25, 0x00	; 0
    2ab2:	26 da       	rcall	.-2996   	; 0x1f00 <left_degrees>
	}
	if(prev==24 && prsnt==23 && nxt==25)
    2ab4:	89 81       	ldd	r24, Y+1	; 0x01
    2ab6:	9a 81       	ldd	r25, Y+2	; 0x02
    2ab8:	48 97       	sbiw	r24, 0x18	; 24
    2aba:	59 f4       	brne	.+22     	; 0x2ad2 <decision+0x4aa>
    2abc:	8b 81       	ldd	r24, Y+3	; 0x03
    2abe:	9c 81       	ldd	r25, Y+4	; 0x04
    2ac0:	47 97       	sbiw	r24, 0x17	; 23
    2ac2:	39 f4       	brne	.+14     	; 0x2ad2 <decision+0x4aa>
    2ac4:	8d 81       	ldd	r24, Y+5	; 0x05
    2ac6:	9e 81       	ldd	r25, Y+6	; 0x06
    2ac8:	49 97       	sbiw	r24, 0x19	; 25
    2aca:	19 f4       	brne	.+6      	; 0x2ad2 <decision+0x4aa>
	{
		left_degrees(123);
    2acc:	8b e7       	ldi	r24, 0x7B	; 123
    2ace:	90 e0       	ldi	r25, 0x00	; 0
    2ad0:	17 da       	rcall	.-3026   	; 0x1f00 <left_degrees>
	}
	if(prev==25 && prsnt==23 && nxt==24)
    2ad2:	89 81       	ldd	r24, Y+1	; 0x01
    2ad4:	9a 81       	ldd	r25, Y+2	; 0x02
    2ad6:	49 97       	sbiw	r24, 0x19	; 25
    2ad8:	59 f4       	brne	.+22     	; 0x2af0 <decision+0x4c8>
    2ada:	8b 81       	ldd	r24, Y+3	; 0x03
    2adc:	9c 81       	ldd	r25, Y+4	; 0x04
    2ade:	47 97       	sbiw	r24, 0x17	; 23
    2ae0:	39 f4       	brne	.+14     	; 0x2af0 <decision+0x4c8>
    2ae2:	8d 81       	ldd	r24, Y+5	; 0x05
    2ae4:	9e 81       	ldd	r25, Y+6	; 0x06
    2ae6:	48 97       	sbiw	r24, 0x18	; 24
    2ae8:	19 f4       	brne	.+6      	; 0x2af0 <decision+0x4c8>
	{
		right_degrees(125);
    2aea:	8d e7       	ldi	r24, 0x7D	; 125
    2aec:	90 e0       	ldi	r25, 0x00	; 0
    2aee:	97 da       	rcall	.-2770   	; 0x201e <right_degrees>
	}
	if(prev==24 && prsnt==23 && nxt==26)
    2af0:	89 81       	ldd	r24, Y+1	; 0x01
    2af2:	9a 81       	ldd	r25, Y+2	; 0x02
    2af4:	48 97       	sbiw	r24, 0x18	; 24
    2af6:	59 f4       	brne	.+22     	; 0x2b0e <decision+0x4e6>
    2af8:	8b 81       	ldd	r24, Y+3	; 0x03
    2afa:	9c 81       	ldd	r25, Y+4	; 0x04
    2afc:	47 97       	sbiw	r24, 0x17	; 23
    2afe:	39 f4       	brne	.+14     	; 0x2b0e <decision+0x4e6>
    2b00:	8d 81       	ldd	r24, Y+5	; 0x05
    2b02:	9e 81       	ldd	r25, Y+6	; 0x06
    2b04:	4a 97       	sbiw	r24, 0x1a	; 26
    2b06:	19 f4       	brne	.+6      	; 0x2b0e <decision+0x4e6>
	{
		left_degrees(63);
    2b08:	8f e3       	ldi	r24, 0x3F	; 63
    2b0a:	90 e0       	ldi	r25, 0x00	; 0
    2b0c:	f9 d9       	rcall	.-3086   	; 0x1f00 <left_degrees>
	}
	if(prev==26 && prsnt==23 && nxt==24)
    2b0e:	89 81       	ldd	r24, Y+1	; 0x01
    2b10:	9a 81       	ldd	r25, Y+2	; 0x02
    2b12:	4a 97       	sbiw	r24, 0x1a	; 26
    2b14:	59 f4       	brne	.+22     	; 0x2b2c <decision+0x504>
    2b16:	8b 81       	ldd	r24, Y+3	; 0x03
    2b18:	9c 81       	ldd	r25, Y+4	; 0x04
    2b1a:	47 97       	sbiw	r24, 0x17	; 23
    2b1c:	39 f4       	brne	.+14     	; 0x2b2c <decision+0x504>
    2b1e:	8d 81       	ldd	r24, Y+5	; 0x05
    2b20:	9e 81       	ldd	r25, Y+6	; 0x06
    2b22:	48 97       	sbiw	r24, 0x18	; 24
    2b24:	19 f4       	brne	.+6      	; 0x2b2c <decision+0x504>
	{
		right_degrees(63);
    2b26:	8f e3       	ldi	r24, 0x3F	; 63
    2b28:	90 e0       	ldi	r25, 0x00	; 0
    2b2a:	79 da       	rcall	.-2830   	; 0x201e <right_degrees>
	}
	if(prev==22 && prsnt==23 && nxt==26)
    2b2c:	89 81       	ldd	r24, Y+1	; 0x01
    2b2e:	9a 81       	ldd	r25, Y+2	; 0x02
    2b30:	46 97       	sbiw	r24, 0x16	; 22
    2b32:	59 f4       	brne	.+22     	; 0x2b4a <decision+0x522>
    2b34:	8b 81       	ldd	r24, Y+3	; 0x03
    2b36:	9c 81       	ldd	r25, Y+4	; 0x04
    2b38:	47 97       	sbiw	r24, 0x17	; 23
    2b3a:	39 f4       	brne	.+14     	; 0x2b4a <decision+0x522>
    2b3c:	8d 81       	ldd	r24, Y+5	; 0x05
    2b3e:	9e 81       	ldd	r25, Y+6	; 0x06
    2b40:	4a 97       	sbiw	r24, 0x1a	; 26
    2b42:	19 f4       	brne	.+6      	; 0x2b4a <decision+0x522>
	{
		right_degrees(123);
    2b44:	8b e7       	ldi	r24, 0x7B	; 123
    2b46:	90 e0       	ldi	r25, 0x00	; 0
    2b48:	6a da       	rcall	.-2860   	; 0x201e <right_degrees>
	}
	if(prev==26 && prsnt==23 && nxt==22)
    2b4a:	89 81       	ldd	r24, Y+1	; 0x01
    2b4c:	9a 81       	ldd	r25, Y+2	; 0x02
    2b4e:	4a 97       	sbiw	r24, 0x1a	; 26
    2b50:	59 f4       	brne	.+22     	; 0x2b68 <decision+0x540>
    2b52:	8b 81       	ldd	r24, Y+3	; 0x03
    2b54:	9c 81       	ldd	r25, Y+4	; 0x04
    2b56:	47 97       	sbiw	r24, 0x17	; 23
    2b58:	39 f4       	brne	.+14     	; 0x2b68 <decision+0x540>
    2b5a:	8d 81       	ldd	r24, Y+5	; 0x05
    2b5c:	9e 81       	ldd	r25, Y+6	; 0x06
    2b5e:	46 97       	sbiw	r24, 0x16	; 22
    2b60:	19 f4       	brne	.+6      	; 0x2b68 <decision+0x540>
	{
		left_degrees(125);
    2b62:	8d e7       	ldi	r24, 0x7D	; 125
    2b64:	90 e0       	ldi	r25, 0x00	; 0
    2b66:	cc d9       	rcall	.-3176   	; 0x1f00 <left_degrees>
	}
	if(prev==22 && prsnt==23 && nxt==25)
    2b68:	89 81       	ldd	r24, Y+1	; 0x01
    2b6a:	9a 81       	ldd	r25, Y+2	; 0x02
    2b6c:	46 97       	sbiw	r24, 0x16	; 22
    2b6e:	59 f4       	brne	.+22     	; 0x2b86 <decision+0x55e>
    2b70:	8b 81       	ldd	r24, Y+3	; 0x03
    2b72:	9c 81       	ldd	r25, Y+4	; 0x04
    2b74:	47 97       	sbiw	r24, 0x17	; 23
    2b76:	39 f4       	brne	.+14     	; 0x2b86 <decision+0x55e>
    2b78:	8d 81       	ldd	r24, Y+5	; 0x05
    2b7a:	9e 81       	ldd	r25, Y+6	; 0x06
    2b7c:	49 97       	sbiw	r24, 0x19	; 25
    2b7e:	19 f4       	brne	.+6      	; 0x2b86 <decision+0x55e>
	{
		right_degrees(63);
    2b80:	8f e3       	ldi	r24, 0x3F	; 63
    2b82:	90 e0       	ldi	r25, 0x00	; 0
    2b84:	4c da       	rcall	.-2920   	; 0x201e <right_degrees>
	}
	if(prev==25 && prsnt==23 && nxt==22)
    2b86:	89 81       	ldd	r24, Y+1	; 0x01
    2b88:	9a 81       	ldd	r25, Y+2	; 0x02
    2b8a:	49 97       	sbiw	r24, 0x19	; 25
    2b8c:	59 f4       	brne	.+22     	; 0x2ba4 <decision+0x57c>
    2b8e:	8b 81       	ldd	r24, Y+3	; 0x03
    2b90:	9c 81       	ldd	r25, Y+4	; 0x04
    2b92:	47 97       	sbiw	r24, 0x17	; 23
    2b94:	39 f4       	brne	.+14     	; 0x2ba4 <decision+0x57c>
    2b96:	8d 81       	ldd	r24, Y+5	; 0x05
    2b98:	9e 81       	ldd	r25, Y+6	; 0x06
    2b9a:	46 97       	sbiw	r24, 0x16	; 22
    2b9c:	19 f4       	brne	.+6      	; 0x2ba4 <decision+0x57c>
	{
		left_degrees(63);
    2b9e:	8f e3       	ldi	r24, 0x3F	; 63
    2ba0:	90 e0       	ldi	r25, 0x00	; 0
    2ba2:	ae d9       	rcall	.-3236   	; 0x1f00 <left_degrees>
	}
	if(prev==25 && prsnt==23 && nxt==26)
    2ba4:	89 81       	ldd	r24, Y+1	; 0x01
    2ba6:	9a 81       	ldd	r25, Y+2	; 0x02
    2ba8:	49 97       	sbiw	r24, 0x19	; 25
    2baa:	59 f4       	brne	.+22     	; 0x2bc2 <decision+0x59a>
    2bac:	8b 81       	ldd	r24, Y+3	; 0x03
    2bae:	9c 81       	ldd	r25, Y+4	; 0x04
    2bb0:	47 97       	sbiw	r24, 0x17	; 23
    2bb2:	39 f4       	brne	.+14     	; 0x2bc2 <decision+0x59a>
    2bb4:	8d 81       	ldd	r24, Y+5	; 0x05
    2bb6:	9e 81       	ldd	r25, Y+6	; 0x06
    2bb8:	4a 97       	sbiw	r24, 0x1a	; 26
    2bba:	19 f4       	brne	.+6      	; 0x2bc2 <decision+0x59a>
	{
		left_degrees(123);
    2bbc:	8b e7       	ldi	r24, 0x7B	; 123
    2bbe:	90 e0       	ldi	r25, 0x00	; 0
    2bc0:	9f d9       	rcall	.-3266   	; 0x1f00 <left_degrees>
	}
	if(prev==26 && prsnt==23 && nxt==25)
    2bc2:	89 81       	ldd	r24, Y+1	; 0x01
    2bc4:	9a 81       	ldd	r25, Y+2	; 0x02
    2bc6:	4a 97       	sbiw	r24, 0x1a	; 26
    2bc8:	59 f4       	brne	.+22     	; 0x2be0 <decision+0x5b8>
    2bca:	8b 81       	ldd	r24, Y+3	; 0x03
    2bcc:	9c 81       	ldd	r25, Y+4	; 0x04
    2bce:	47 97       	sbiw	r24, 0x17	; 23
    2bd0:	39 f4       	brne	.+14     	; 0x2be0 <decision+0x5b8>
    2bd2:	8d 81       	ldd	r24, Y+5	; 0x05
    2bd4:	9e 81       	ldd	r25, Y+6	; 0x06
    2bd6:	49 97       	sbiw	r24, 0x19	; 25
    2bd8:	19 f4       	brne	.+6      	; 0x2be0 <decision+0x5b8>
	{
		right_degrees(123);
    2bda:	8b e7       	ldi	r24, 0x7B	; 123
    2bdc:	90 e0       	ldi	r25, 0x00	; 0
    2bde:	1f da       	rcall	.-3010   	; 0x201e <right_degrees>
	}
	if(prev==26 && prsnt==48 && nxt==47)
    2be0:	89 81       	ldd	r24, Y+1	; 0x01
    2be2:	9a 81       	ldd	r25, Y+2	; 0x02
    2be4:	4a 97       	sbiw	r24, 0x1a	; 26
    2be6:	59 f4       	brne	.+22     	; 0x2bfe <decision+0x5d6>
    2be8:	8b 81       	ldd	r24, Y+3	; 0x03
    2bea:	9c 81       	ldd	r25, Y+4	; 0x04
    2bec:	c0 97       	sbiw	r24, 0x30	; 48
    2bee:	39 f4       	brne	.+14     	; 0x2bfe <decision+0x5d6>
    2bf0:	8d 81       	ldd	r24, Y+5	; 0x05
    2bf2:	9e 81       	ldd	r25, Y+6	; 0x06
    2bf4:	8f 97       	sbiw	r24, 0x2f	; 47
    2bf6:	19 f4       	brne	.+6      	; 0x2bfe <decision+0x5d6>
	{
		left_degrees(63);
    2bf8:	8f e3       	ldi	r24, 0x3F	; 63
    2bfa:	90 e0       	ldi	r25, 0x00	; 0
    2bfc:	81 d9       	rcall	.-3326   	; 0x1f00 <left_degrees>
	}
	if(prev==47 && prsnt==48 && nxt==26)
    2bfe:	89 81       	ldd	r24, Y+1	; 0x01
    2c00:	9a 81       	ldd	r25, Y+2	; 0x02
    2c02:	8f 97       	sbiw	r24, 0x2f	; 47
    2c04:	59 f4       	brne	.+22     	; 0x2c1c <decision+0x5f4>
    2c06:	8b 81       	ldd	r24, Y+3	; 0x03
    2c08:	9c 81       	ldd	r25, Y+4	; 0x04
    2c0a:	c0 97       	sbiw	r24, 0x30	; 48
    2c0c:	39 f4       	brne	.+14     	; 0x2c1c <decision+0x5f4>
    2c0e:	8d 81       	ldd	r24, Y+5	; 0x05
    2c10:	9e 81       	ldd	r25, Y+6	; 0x06
    2c12:	4a 97       	sbiw	r24, 0x1a	; 26
    2c14:	19 f4       	brne	.+6      	; 0x2c1c <decision+0x5f4>
	{
		right_degrees(63);
    2c16:	8f e3       	ldi	r24, 0x3F	; 63
    2c18:	90 e0       	ldi	r25, 0x00	; 0
    2c1a:	01 da       	rcall	.-3070   	; 0x201e <right_degrees>
	}
	if(prev==26 && prsnt==48 && nxt==37)
    2c1c:	89 81       	ldd	r24, Y+1	; 0x01
    2c1e:	9a 81       	ldd	r25, Y+2	; 0x02
    2c20:	4a 97       	sbiw	r24, 0x1a	; 26
    2c22:	59 f4       	brne	.+22     	; 0x2c3a <decision+0x612>
    2c24:	8b 81       	ldd	r24, Y+3	; 0x03
    2c26:	9c 81       	ldd	r25, Y+4	; 0x04
    2c28:	c0 97       	sbiw	r24, 0x30	; 48
    2c2a:	39 f4       	brne	.+14     	; 0x2c3a <decision+0x612>
    2c2c:	8d 81       	ldd	r24, Y+5	; 0x05
    2c2e:	9e 81       	ldd	r25, Y+6	; 0x06
    2c30:	85 97       	sbiw	r24, 0x25	; 37
    2c32:	19 f4       	brne	.+6      	; 0x2c3a <decision+0x612>
	{
		left_degrees(123);
    2c34:	8b e7       	ldi	r24, 0x7B	; 123
    2c36:	90 e0       	ldi	r25, 0x00	; 0
    2c38:	63 d9       	rcall	.-3386   	; 0x1f00 <left_degrees>
	}
	if(prev==37 && prsnt==48 && nxt==26)
    2c3a:	89 81       	ldd	r24, Y+1	; 0x01
    2c3c:	9a 81       	ldd	r25, Y+2	; 0x02
    2c3e:	85 97       	sbiw	r24, 0x25	; 37
    2c40:	59 f4       	brne	.+22     	; 0x2c58 <decision+0x630>
    2c42:	8b 81       	ldd	r24, Y+3	; 0x03
    2c44:	9c 81       	ldd	r25, Y+4	; 0x04
    2c46:	c0 97       	sbiw	r24, 0x30	; 48
    2c48:	39 f4       	brne	.+14     	; 0x2c58 <decision+0x630>
    2c4a:	8d 81       	ldd	r24, Y+5	; 0x05
    2c4c:	9e 81       	ldd	r25, Y+6	; 0x06
    2c4e:	4a 97       	sbiw	r24, 0x1a	; 26
    2c50:	19 f4       	brne	.+6      	; 0x2c58 <decision+0x630>
	{
		right_degrees(123);
    2c52:	8b e7       	ldi	r24, 0x7B	; 123
    2c54:	90 e0       	ldi	r25, 0x00	; 0
    2c56:	e3 d9       	rcall	.-3130   	; 0x201e <right_degrees>
	}
	if(prev==26 && prsnt==48 && nxt==27)
    2c58:	89 81       	ldd	r24, Y+1	; 0x01
    2c5a:	9a 81       	ldd	r25, Y+2	; 0x02
    2c5c:	4a 97       	sbiw	r24, 0x1a	; 26
    2c5e:	59 f4       	brne	.+22     	; 0x2c76 <decision+0x64e>
    2c60:	8b 81       	ldd	r24, Y+3	; 0x03
    2c62:	9c 81       	ldd	r25, Y+4	; 0x04
    2c64:	c0 97       	sbiw	r24, 0x30	; 48
    2c66:	39 f4       	brne	.+14     	; 0x2c76 <decision+0x64e>
    2c68:	8d 81       	ldd	r24, Y+5	; 0x05
    2c6a:	9e 81       	ldd	r25, Y+6	; 0x06
    2c6c:	4b 97       	sbiw	r24, 0x1b	; 27
    2c6e:	19 f4       	brne	.+6      	; 0x2c76 <decision+0x64e>
	{
		right_degrees(63);
    2c70:	8f e3       	ldi	r24, 0x3F	; 63
    2c72:	90 e0       	ldi	r25, 0x00	; 0
    2c74:	d4 d9       	rcall	.-3160   	; 0x201e <right_degrees>
	}
	if(prev==27 && prsnt==48 && nxt==26)
    2c76:	89 81       	ldd	r24, Y+1	; 0x01
    2c78:	9a 81       	ldd	r25, Y+2	; 0x02
    2c7a:	4b 97       	sbiw	r24, 0x1b	; 27
    2c7c:	59 f4       	brne	.+22     	; 0x2c94 <decision+0x66c>
    2c7e:	8b 81       	ldd	r24, Y+3	; 0x03
    2c80:	9c 81       	ldd	r25, Y+4	; 0x04
    2c82:	c0 97       	sbiw	r24, 0x30	; 48
    2c84:	39 f4       	brne	.+14     	; 0x2c94 <decision+0x66c>
    2c86:	8d 81       	ldd	r24, Y+5	; 0x05
    2c88:	9e 81       	ldd	r25, Y+6	; 0x06
    2c8a:	4a 97       	sbiw	r24, 0x1a	; 26
    2c8c:	19 f4       	brne	.+6      	; 0x2c94 <decision+0x66c>
	{
		left_degrees(63);
    2c8e:	8f e3       	ldi	r24, 0x3F	; 63
    2c90:	90 e0       	ldi	r25, 0x00	; 0
    2c92:	36 d9       	rcall	.-3476   	; 0x1f00 <left_degrees>
	}
	if(prev==27 && prsnt==48 && nxt==47)
    2c94:	89 81       	ldd	r24, Y+1	; 0x01
    2c96:	9a 81       	ldd	r25, Y+2	; 0x02
    2c98:	4b 97       	sbiw	r24, 0x1b	; 27
    2c9a:	59 f4       	brne	.+22     	; 0x2cb2 <decision+0x68a>
    2c9c:	8b 81       	ldd	r24, Y+3	; 0x03
    2c9e:	9c 81       	ldd	r25, Y+4	; 0x04
    2ca0:	c0 97       	sbiw	r24, 0x30	; 48
    2ca2:	39 f4       	brne	.+14     	; 0x2cb2 <decision+0x68a>
    2ca4:	8d 81       	ldd	r24, Y+5	; 0x05
    2ca6:	9e 81       	ldd	r25, Y+6	; 0x06
    2ca8:	8f 97       	sbiw	r24, 0x2f	; 47
    2caa:	19 f4       	brne	.+6      	; 0x2cb2 <decision+0x68a>
	{
		right_degrees(63);
    2cac:	8f e3       	ldi	r24, 0x3F	; 63
    2cae:	90 e0       	ldi	r25, 0x00	; 0
    2cb0:	b6 d9       	rcall	.-3220   	; 0x201e <right_degrees>
	}
	if(prev==47 && prsnt==48 && nxt==27)
    2cb2:	89 81       	ldd	r24, Y+1	; 0x01
    2cb4:	9a 81       	ldd	r25, Y+2	; 0x02
    2cb6:	8f 97       	sbiw	r24, 0x2f	; 47
    2cb8:	59 f4       	brne	.+22     	; 0x2cd0 <decision+0x6a8>
    2cba:	8b 81       	ldd	r24, Y+3	; 0x03
    2cbc:	9c 81       	ldd	r25, Y+4	; 0x04
    2cbe:	c0 97       	sbiw	r24, 0x30	; 48
    2cc0:	39 f4       	brne	.+14     	; 0x2cd0 <decision+0x6a8>
    2cc2:	8d 81       	ldd	r24, Y+5	; 0x05
    2cc4:	9e 81       	ldd	r25, Y+6	; 0x06
    2cc6:	4b 97       	sbiw	r24, 0x1b	; 27
    2cc8:	19 f4       	brne	.+6      	; 0x2cd0 <decision+0x6a8>
	{
		left_degrees(63);
    2cca:	8f e3       	ldi	r24, 0x3F	; 63
    2ccc:	90 e0       	ldi	r25, 0x00	; 0
    2cce:	18 d9       	rcall	.-3536   	; 0x1f00 <left_degrees>
	}
	if(prev==37 && prsnt==48 && nxt==47)
    2cd0:	89 81       	ldd	r24, Y+1	; 0x01
    2cd2:	9a 81       	ldd	r25, Y+2	; 0x02
    2cd4:	85 97       	sbiw	r24, 0x25	; 37
    2cd6:	59 f4       	brne	.+22     	; 0x2cee <decision+0x6c6>
    2cd8:	8b 81       	ldd	r24, Y+3	; 0x03
    2cda:	9c 81       	ldd	r25, Y+4	; 0x04
    2cdc:	c0 97       	sbiw	r24, 0x30	; 48
    2cde:	39 f4       	brne	.+14     	; 0x2cee <decision+0x6c6>
    2ce0:	8d 81       	ldd	r24, Y+5	; 0x05
    2ce2:	9e 81       	ldd	r25, Y+6	; 0x06
    2ce4:	8f 97       	sbiw	r24, 0x2f	; 47
    2ce6:	19 f4       	brne	.+6      	; 0x2cee <decision+0x6c6>
	{
		left_degrees(123);
    2ce8:	8b e7       	ldi	r24, 0x7B	; 123
    2cea:	90 e0       	ldi	r25, 0x00	; 0
    2cec:	09 d9       	rcall	.-3566   	; 0x1f00 <left_degrees>
	}
	if(prev==47 && prsnt==48 && nxt==37)
    2cee:	89 81       	ldd	r24, Y+1	; 0x01
    2cf0:	9a 81       	ldd	r25, Y+2	; 0x02
    2cf2:	8f 97       	sbiw	r24, 0x2f	; 47
    2cf4:	59 f4       	brne	.+22     	; 0x2d0c <decision+0x6e4>
    2cf6:	8b 81       	ldd	r24, Y+3	; 0x03
    2cf8:	9c 81       	ldd	r25, Y+4	; 0x04
    2cfa:	c0 97       	sbiw	r24, 0x30	; 48
    2cfc:	39 f4       	brne	.+14     	; 0x2d0c <decision+0x6e4>
    2cfe:	8d 81       	ldd	r24, Y+5	; 0x05
    2d00:	9e 81       	ldd	r25, Y+6	; 0x06
    2d02:	85 97       	sbiw	r24, 0x25	; 37
    2d04:	19 f4       	brne	.+6      	; 0x2d0c <decision+0x6e4>
	{
		right_degrees(123);
    2d06:	8b e7       	ldi	r24, 0x7B	; 123
    2d08:	90 e0       	ldi	r25, 0x00	; 0
    2d0a:	89 d9       	rcall	.-3310   	; 0x201e <right_degrees>
	}
	if(prev==28 && prsnt==27 && nxt==48)
    2d0c:	89 81       	ldd	r24, Y+1	; 0x01
    2d0e:	9a 81       	ldd	r25, Y+2	; 0x02
    2d10:	4c 97       	sbiw	r24, 0x1c	; 28
    2d12:	59 f4       	brne	.+22     	; 0x2d2a <decision+0x702>
    2d14:	8b 81       	ldd	r24, Y+3	; 0x03
    2d16:	9c 81       	ldd	r25, Y+4	; 0x04
    2d18:	4b 97       	sbiw	r24, 0x1b	; 27
    2d1a:	39 f4       	brne	.+14     	; 0x2d2a <decision+0x702>
    2d1c:	8d 81       	ldd	r24, Y+5	; 0x05
    2d1e:	9e 81       	ldd	r25, Y+6	; 0x06
    2d20:	c0 97       	sbiw	r24, 0x30	; 48
    2d22:	19 f4       	brne	.+6      	; 0x2d2a <decision+0x702>
	{
		right_degrees(63);
    2d24:	8f e3       	ldi	r24, 0x3F	; 63
    2d26:	90 e0       	ldi	r25, 0x00	; 0
    2d28:	7a d9       	rcall	.-3340   	; 0x201e <right_degrees>
	}
	if(prev==48 && prsnt==27 && nxt==28)
    2d2a:	89 81       	ldd	r24, Y+1	; 0x01
    2d2c:	9a 81       	ldd	r25, Y+2	; 0x02
    2d2e:	c0 97       	sbiw	r24, 0x30	; 48
    2d30:	59 f4       	brne	.+22     	; 0x2d48 <decision+0x720>
    2d32:	8b 81       	ldd	r24, Y+3	; 0x03
    2d34:	9c 81       	ldd	r25, Y+4	; 0x04
    2d36:	4b 97       	sbiw	r24, 0x1b	; 27
    2d38:	39 f4       	brne	.+14     	; 0x2d48 <decision+0x720>
    2d3a:	8d 81       	ldd	r24, Y+5	; 0x05
    2d3c:	9e 81       	ldd	r25, Y+6	; 0x06
    2d3e:	4c 97       	sbiw	r24, 0x1c	; 28
    2d40:	19 f4       	brne	.+6      	; 0x2d48 <decision+0x720>
	{
		left_degrees(63);
    2d42:	8f e3       	ldi	r24, 0x3F	; 63
    2d44:	90 e0       	ldi	r25, 0x00	; 0
    2d46:	dc d8       	rcall	.-3656   	; 0x1f00 <left_degrees>
	}
	if(prev==19 && prsnt==27 && nxt==28)
    2d48:	89 81       	ldd	r24, Y+1	; 0x01
    2d4a:	9a 81       	ldd	r25, Y+2	; 0x02
    2d4c:	43 97       	sbiw	r24, 0x13	; 19
    2d4e:	59 f4       	brne	.+22     	; 0x2d66 <decision+0x73e>
    2d50:	8b 81       	ldd	r24, Y+3	; 0x03
    2d52:	9c 81       	ldd	r25, Y+4	; 0x04
    2d54:	4b 97       	sbiw	r24, 0x1b	; 27
    2d56:	39 f4       	brne	.+14     	; 0x2d66 <decision+0x73e>
    2d58:	8d 81       	ldd	r24, Y+5	; 0x05
    2d5a:	9e 81       	ldd	r25, Y+6	; 0x06
    2d5c:	4c 97       	sbiw	r24, 0x1c	; 28
    2d5e:	19 f4       	brne	.+6      	; 0x2d66 <decision+0x73e>
	{
		right_degrees(123);
    2d60:	8b e7       	ldi	r24, 0x7B	; 123
    2d62:	90 e0       	ldi	r25, 0x00	; 0
    2d64:	5c d9       	rcall	.-3400   	; 0x201e <right_degrees>
	}
	if(prev==28 && prsnt==27 && nxt==19)
    2d66:	89 81       	ldd	r24, Y+1	; 0x01
    2d68:	9a 81       	ldd	r25, Y+2	; 0x02
    2d6a:	4c 97       	sbiw	r24, 0x1c	; 28
    2d6c:	59 f4       	brne	.+22     	; 0x2d84 <decision+0x75c>
    2d6e:	8b 81       	ldd	r24, Y+3	; 0x03
    2d70:	9c 81       	ldd	r25, Y+4	; 0x04
    2d72:	4b 97       	sbiw	r24, 0x1b	; 27
    2d74:	39 f4       	brne	.+14     	; 0x2d84 <decision+0x75c>
    2d76:	8d 81       	ldd	r24, Y+5	; 0x05
    2d78:	9e 81       	ldd	r25, Y+6	; 0x06
    2d7a:	43 97       	sbiw	r24, 0x13	; 19
    2d7c:	19 f4       	brne	.+6      	; 0x2d84 <decision+0x75c>
	{
		left_degrees(123);
    2d7e:	8b e7       	ldi	r24, 0x7B	; 123
    2d80:	90 e0       	ldi	r25, 0x00	; 0
    2d82:	be d8       	rcall	.-3716   	; 0x1f00 <left_degrees>
	}
	if(prev==19 && prsnt==28 && nxt==27)
    2d84:	89 81       	ldd	r24, Y+1	; 0x01
    2d86:	9a 81       	ldd	r25, Y+2	; 0x02
    2d88:	43 97       	sbiw	r24, 0x13	; 19
    2d8a:	59 f4       	brne	.+22     	; 0x2da2 <decision+0x77a>
    2d8c:	8b 81       	ldd	r24, Y+3	; 0x03
    2d8e:	9c 81       	ldd	r25, Y+4	; 0x04
    2d90:	4c 97       	sbiw	r24, 0x1c	; 28
    2d92:	39 f4       	brne	.+14     	; 0x2da2 <decision+0x77a>
    2d94:	8d 81       	ldd	r24, Y+5	; 0x05
    2d96:	9e 81       	ldd	r25, Y+6	; 0x06
    2d98:	4b 97       	sbiw	r24, 0x1b	; 27
    2d9a:	19 f4       	brne	.+6      	; 0x2da2 <decision+0x77a>
	{
		left_degrees(123);
    2d9c:	8b e7       	ldi	r24, 0x7B	; 123
    2d9e:	90 e0       	ldi	r25, 0x00	; 0
    2da0:	af d8       	rcall	.-3746   	; 0x1f00 <left_degrees>
	}
	if(prev==27 && prsnt==28 && nxt==19)
    2da2:	89 81       	ldd	r24, Y+1	; 0x01
    2da4:	9a 81       	ldd	r25, Y+2	; 0x02
    2da6:	4b 97       	sbiw	r24, 0x1b	; 27
    2da8:	59 f4       	brne	.+22     	; 0x2dc0 <decision+0x798>
    2daa:	8b 81       	ldd	r24, Y+3	; 0x03
    2dac:	9c 81       	ldd	r25, Y+4	; 0x04
    2dae:	4c 97       	sbiw	r24, 0x1c	; 28
    2db0:	39 f4       	brne	.+14     	; 0x2dc0 <decision+0x798>
    2db2:	8d 81       	ldd	r24, Y+5	; 0x05
    2db4:	9e 81       	ldd	r25, Y+6	; 0x06
    2db6:	43 97       	sbiw	r24, 0x13	; 19
    2db8:	19 f4       	brne	.+6      	; 0x2dc0 <decision+0x798>
	{
		right_degrees(123);
    2dba:	8b e7       	ldi	r24, 0x7B	; 123
    2dbc:	90 e0       	ldi	r25, 0x00	; 0
    2dbe:	2f d9       	rcall	.-3490   	; 0x201e <right_degrees>
	}
	if(prev==45 && prsnt==28 && nxt==27)
    2dc0:	89 81       	ldd	r24, Y+1	; 0x01
    2dc2:	9a 81       	ldd	r25, Y+2	; 0x02
    2dc4:	8d 97       	sbiw	r24, 0x2d	; 45
    2dc6:	59 f4       	brne	.+22     	; 0x2dde <decision+0x7b6>
    2dc8:	8b 81       	ldd	r24, Y+3	; 0x03
    2dca:	9c 81       	ldd	r25, Y+4	; 0x04
    2dcc:	4c 97       	sbiw	r24, 0x1c	; 28
    2dce:	39 f4       	brne	.+14     	; 0x2dde <decision+0x7b6>
    2dd0:	8d 81       	ldd	r24, Y+5	; 0x05
    2dd2:	9e 81       	ldd	r25, Y+6	; 0x06
    2dd4:	4b 97       	sbiw	r24, 0x1b	; 27
    2dd6:	19 f4       	brne	.+6      	; 0x2dde <decision+0x7b6>
	{
		right_degrees(63);
    2dd8:	8f e3       	ldi	r24, 0x3F	; 63
    2dda:	90 e0       	ldi	r25, 0x00	; 0
    2ddc:	20 d9       	rcall	.-3520   	; 0x201e <right_degrees>
	}
	if(prev==27 && prsnt==28 && nxt==45)
    2dde:	89 81       	ldd	r24, Y+1	; 0x01
    2de0:	9a 81       	ldd	r25, Y+2	; 0x02
    2de2:	4b 97       	sbiw	r24, 0x1b	; 27
    2de4:	59 f4       	brne	.+22     	; 0x2dfc <decision+0x7d4>
    2de6:	8b 81       	ldd	r24, Y+3	; 0x03
    2de8:	9c 81       	ldd	r25, Y+4	; 0x04
    2dea:	4c 97       	sbiw	r24, 0x1c	; 28
    2dec:	39 f4       	brne	.+14     	; 0x2dfc <decision+0x7d4>
    2dee:	8d 81       	ldd	r24, Y+5	; 0x05
    2df0:	9e 81       	ldd	r25, Y+6	; 0x06
    2df2:	8d 97       	sbiw	r24, 0x2d	; 45
    2df4:	19 f4       	brne	.+6      	; 0x2dfc <decision+0x7d4>
	{
		left_degrees(63);
    2df6:	8f e3       	ldi	r24, 0x3F	; 63
    2df8:	90 e0       	ldi	r25, 0x00	; 0
    2dfa:	82 d8       	rcall	.-3836   	; 0x1f00 <left_degrees>
	}
	if(prev==20 && prsnt==19 && nxt==27)
    2dfc:	89 81       	ldd	r24, Y+1	; 0x01
    2dfe:	9a 81       	ldd	r25, Y+2	; 0x02
    2e00:	44 97       	sbiw	r24, 0x14	; 20
    2e02:	59 f4       	brne	.+22     	; 0x2e1a <decision+0x7f2>
    2e04:	8b 81       	ldd	r24, Y+3	; 0x03
    2e06:	9c 81       	ldd	r25, Y+4	; 0x04
    2e08:	43 97       	sbiw	r24, 0x13	; 19
    2e0a:	39 f4       	brne	.+14     	; 0x2e1a <decision+0x7f2>
    2e0c:	8d 81       	ldd	r24, Y+5	; 0x05
    2e0e:	9e 81       	ldd	r25, Y+6	; 0x06
    2e10:	4b 97       	sbiw	r24, 0x1b	; 27
    2e12:	19 f4       	brne	.+6      	; 0x2e1a <decision+0x7f2>
	{
		left_degrees(123);
    2e14:	8b e7       	ldi	r24, 0x7B	; 123
    2e16:	90 e0       	ldi	r25, 0x00	; 0
    2e18:	73 d8       	rcall	.-3866   	; 0x1f00 <left_degrees>
	}
	if(prev==27 && prsnt==19 && nxt==20)
    2e1a:	89 81       	ldd	r24, Y+1	; 0x01
    2e1c:	9a 81       	ldd	r25, Y+2	; 0x02
    2e1e:	4b 97       	sbiw	r24, 0x1b	; 27
    2e20:	59 f4       	brne	.+22     	; 0x2e38 <decision+0x810>
    2e22:	8b 81       	ldd	r24, Y+3	; 0x03
    2e24:	9c 81       	ldd	r25, Y+4	; 0x04
    2e26:	43 97       	sbiw	r24, 0x13	; 19
    2e28:	39 f4       	brne	.+14     	; 0x2e38 <decision+0x810>
    2e2a:	8d 81       	ldd	r24, Y+5	; 0x05
    2e2c:	9e 81       	ldd	r25, Y+6	; 0x06
    2e2e:	44 97       	sbiw	r24, 0x14	; 20
    2e30:	19 f4       	brne	.+6      	; 0x2e38 <decision+0x810>
	{
		right_degrees(125);
    2e32:	8d e7       	ldi	r24, 0x7D	; 125
    2e34:	90 e0       	ldi	r25, 0x00	; 0
    2e36:	f3 d8       	rcall	.-3610   	; 0x201e <right_degrees>
	}
	if(prev==20 && prsnt==19 && nxt==28)
    2e38:	89 81       	ldd	r24, Y+1	; 0x01
    2e3a:	9a 81       	ldd	r25, Y+2	; 0x02
    2e3c:	44 97       	sbiw	r24, 0x14	; 20
    2e3e:	59 f4       	brne	.+22     	; 0x2e56 <decision+0x82e>
    2e40:	8b 81       	ldd	r24, Y+3	; 0x03
    2e42:	9c 81       	ldd	r25, Y+4	; 0x04
    2e44:	43 97       	sbiw	r24, 0x13	; 19
    2e46:	39 f4       	brne	.+14     	; 0x2e56 <decision+0x82e>
    2e48:	8d 81       	ldd	r24, Y+5	; 0x05
    2e4a:	9e 81       	ldd	r25, Y+6	; 0x06
    2e4c:	4c 97       	sbiw	r24, 0x1c	; 28
    2e4e:	19 f4       	brne	.+6      	; 0x2e56 <decision+0x82e>
	{
		left_degrees(63);
    2e50:	8f e3       	ldi	r24, 0x3F	; 63
    2e52:	90 e0       	ldi	r25, 0x00	; 0
    2e54:	55 d8       	rcall	.-3926   	; 0x1f00 <left_degrees>
	}
	if(prev==28 && prsnt==19 && nxt==20)
    2e56:	89 81       	ldd	r24, Y+1	; 0x01
    2e58:	9a 81       	ldd	r25, Y+2	; 0x02
    2e5a:	4c 97       	sbiw	r24, 0x1c	; 28
    2e5c:	59 f4       	brne	.+22     	; 0x2e74 <decision+0x84c>
    2e5e:	8b 81       	ldd	r24, Y+3	; 0x03
    2e60:	9c 81       	ldd	r25, Y+4	; 0x04
    2e62:	43 97       	sbiw	r24, 0x13	; 19
    2e64:	39 f4       	brne	.+14     	; 0x2e74 <decision+0x84c>
    2e66:	8d 81       	ldd	r24, Y+5	; 0x05
    2e68:	9e 81       	ldd	r25, Y+6	; 0x06
    2e6a:	44 97       	sbiw	r24, 0x14	; 20
    2e6c:	19 f4       	brne	.+6      	; 0x2e74 <decision+0x84c>
	{
		right_degrees(63);
    2e6e:	8f e3       	ldi	r24, 0x3F	; 63
    2e70:	90 e0       	ldi	r25, 0x00	; 0
    2e72:	d5 d8       	rcall	.-3670   	; 0x201e <right_degrees>
	}
	if(prev==18 && prsnt==19 && nxt==27)
    2e74:	89 81       	ldd	r24, Y+1	; 0x01
    2e76:	9a 81       	ldd	r25, Y+2	; 0x02
    2e78:	42 97       	sbiw	r24, 0x12	; 18
    2e7a:	59 f4       	brne	.+22     	; 0x2e92 <decision+0x86a>
    2e7c:	8b 81       	ldd	r24, Y+3	; 0x03
    2e7e:	9c 81       	ldd	r25, Y+4	; 0x04
    2e80:	43 97       	sbiw	r24, 0x13	; 19
    2e82:	39 f4       	brne	.+14     	; 0x2e92 <decision+0x86a>
    2e84:	8d 81       	ldd	r24, Y+5	; 0x05
    2e86:	9e 81       	ldd	r25, Y+6	; 0x06
    2e88:	4b 97       	sbiw	r24, 0x1b	; 27
    2e8a:	19 f4       	brne	.+6      	; 0x2e92 <decision+0x86a>
	{
		right_degrees(63);
    2e8c:	8f e3       	ldi	r24, 0x3F	; 63
    2e8e:	90 e0       	ldi	r25, 0x00	; 0
    2e90:	c6 d8       	rcall	.-3700   	; 0x201e <right_degrees>
	}
	if(prev==27 && prsnt==19 && nxt==18)
    2e92:	89 81       	ldd	r24, Y+1	; 0x01
    2e94:	9a 81       	ldd	r25, Y+2	; 0x02
    2e96:	4b 97       	sbiw	r24, 0x1b	; 27
    2e98:	59 f4       	brne	.+22     	; 0x2eb0 <decision+0x888>
    2e9a:	8b 81       	ldd	r24, Y+3	; 0x03
    2e9c:	9c 81       	ldd	r25, Y+4	; 0x04
    2e9e:	43 97       	sbiw	r24, 0x13	; 19
    2ea0:	39 f4       	brne	.+14     	; 0x2eb0 <decision+0x888>
    2ea2:	8d 81       	ldd	r24, Y+5	; 0x05
    2ea4:	9e 81       	ldd	r25, Y+6	; 0x06
    2ea6:	42 97       	sbiw	r24, 0x12	; 18
    2ea8:	19 f4       	brne	.+6      	; 0x2eb0 <decision+0x888>
	{
		left_degrees(63);
    2eaa:	8f e3       	ldi	r24, 0x3F	; 63
    2eac:	90 e0       	ldi	r25, 0x00	; 0
    2eae:	28 d8       	rcall	.-4016   	; 0x1f00 <left_degrees>
	}
	if(prev==18 && prsnt==19 && nxt==28)
    2eb0:	89 81       	ldd	r24, Y+1	; 0x01
    2eb2:	9a 81       	ldd	r25, Y+2	; 0x02
    2eb4:	42 97       	sbiw	r24, 0x12	; 18
    2eb6:	59 f4       	brne	.+22     	; 0x2ece <decision+0x8a6>
    2eb8:	8b 81       	ldd	r24, Y+3	; 0x03
    2eba:	9c 81       	ldd	r25, Y+4	; 0x04
    2ebc:	43 97       	sbiw	r24, 0x13	; 19
    2ebe:	39 f4       	brne	.+14     	; 0x2ece <decision+0x8a6>
    2ec0:	8d 81       	ldd	r24, Y+5	; 0x05
    2ec2:	9e 81       	ldd	r25, Y+6	; 0x06
    2ec4:	4c 97       	sbiw	r24, 0x1c	; 28
    2ec6:	19 f4       	brne	.+6      	; 0x2ece <decision+0x8a6>
	{
		right_degrees(123);
    2ec8:	8b e7       	ldi	r24, 0x7B	; 123
    2eca:	90 e0       	ldi	r25, 0x00	; 0
    2ecc:	a8 d8       	rcall	.-3760   	; 0x201e <right_degrees>
	}
	if(prev==28 && prsnt==19 && nxt==18)
    2ece:	89 81       	ldd	r24, Y+1	; 0x01
    2ed0:	9a 81       	ldd	r25, Y+2	; 0x02
    2ed2:	4c 97       	sbiw	r24, 0x1c	; 28
    2ed4:	59 f4       	brne	.+22     	; 0x2eec <decision+0x8c4>
    2ed6:	8b 81       	ldd	r24, Y+3	; 0x03
    2ed8:	9c 81       	ldd	r25, Y+4	; 0x04
    2eda:	43 97       	sbiw	r24, 0x13	; 19
    2edc:	39 f4       	brne	.+14     	; 0x2eec <decision+0x8c4>
    2ede:	8d 81       	ldd	r24, Y+5	; 0x05
    2ee0:	9e 81       	ldd	r25, Y+6	; 0x06
    2ee2:	42 97       	sbiw	r24, 0x12	; 18
    2ee4:	19 f4       	brne	.+6      	; 0x2eec <decision+0x8c4>
	{
		left_degrees(125);
    2ee6:	8d e7       	ldi	r24, 0x7D	; 125
    2ee8:	90 e0       	ldi	r25, 0x00	; 0
    2eea:	0a d8       	rcall	.-4076   	; 0x1f00 <left_degrees>
	}
	if(prev==27 && prsnt==19 && nxt==28)
    2eec:	89 81       	ldd	r24, Y+1	; 0x01
    2eee:	9a 81       	ldd	r25, Y+2	; 0x02
    2ef0:	4b 97       	sbiw	r24, 0x1b	; 27
    2ef2:	61 f4       	brne	.+24     	; 0x2f0c <decision+0x8e4>
    2ef4:	8b 81       	ldd	r24, Y+3	; 0x03
    2ef6:	9c 81       	ldd	r25, Y+4	; 0x04
    2ef8:	43 97       	sbiw	r24, 0x13	; 19
    2efa:	41 f4       	brne	.+16     	; 0x2f0c <decision+0x8e4>
    2efc:	8d 81       	ldd	r24, Y+5	; 0x05
    2efe:	9e 81       	ldd	r25, Y+6	; 0x06
    2f00:	4c 97       	sbiw	r24, 0x1c	; 28
    2f02:	21 f4       	brne	.+8      	; 0x2f0c <decision+0x8e4>
	{
		left_degrees(123);
    2f04:	8b e7       	ldi	r24, 0x7B	; 123
    2f06:	90 e0       	ldi	r25, 0x00	; 0
    2f08:	0e 94 80 0f 	call	0x1f00	; 0x1f00 <left_degrees>
	}
	if(prev==28 && prsnt==19 && nxt==27)
    2f0c:	89 81       	ldd	r24, Y+1	; 0x01
    2f0e:	9a 81       	ldd	r25, Y+2	; 0x02
    2f10:	4c 97       	sbiw	r24, 0x1c	; 28
    2f12:	59 f4       	brne	.+22     	; 0x2f2a <decision+0x902>
    2f14:	8b 81       	ldd	r24, Y+3	; 0x03
    2f16:	9c 81       	ldd	r25, Y+4	; 0x04
    2f18:	43 97       	sbiw	r24, 0x13	; 19
    2f1a:	39 f4       	brne	.+14     	; 0x2f2a <decision+0x902>
    2f1c:	8d 81       	ldd	r24, Y+5	; 0x05
    2f1e:	9e 81       	ldd	r25, Y+6	; 0x06
    2f20:	4b 97       	sbiw	r24, 0x1b	; 27
    2f22:	19 f4       	brne	.+6      	; 0x2f2a <decision+0x902>
	{
		right_degrees(123);
    2f24:	8b e7       	ldi	r24, 0x7B	; 123
    2f26:	90 e0       	ldi	r25, 0x00	; 0
    2f28:	7a d8       	rcall	.-3852   	; 0x201e <right_degrees>
	}
	if(prev==28 && prsnt==45 && nxt==46)
    2f2a:	89 81       	ldd	r24, Y+1	; 0x01
    2f2c:	9a 81       	ldd	r25, Y+2	; 0x02
    2f2e:	4c 97       	sbiw	r24, 0x1c	; 28
    2f30:	61 f4       	brne	.+24     	; 0x2f4a <decision+0x922>
    2f32:	8b 81       	ldd	r24, Y+3	; 0x03
    2f34:	9c 81       	ldd	r25, Y+4	; 0x04
    2f36:	8d 97       	sbiw	r24, 0x2d	; 45
    2f38:	41 f4       	brne	.+16     	; 0x2f4a <decision+0x922>
    2f3a:	8d 81       	ldd	r24, Y+5	; 0x05
    2f3c:	9e 81       	ldd	r25, Y+6	; 0x06
    2f3e:	8e 97       	sbiw	r24, 0x2e	; 46
    2f40:	21 f4       	brne	.+8      	; 0x2f4a <decision+0x922>
	{
		left_degrees(63);
    2f42:	8f e3       	ldi	r24, 0x3F	; 63
    2f44:	90 e0       	ldi	r25, 0x00	; 0
    2f46:	0e 94 80 0f 	call	0x1f00	; 0x1f00 <left_degrees>
	}
	if(prev==46 && prsnt==45 && nxt==28)
    2f4a:	89 81       	ldd	r24, Y+1	; 0x01
    2f4c:	9a 81       	ldd	r25, Y+2	; 0x02
    2f4e:	8e 97       	sbiw	r24, 0x2e	; 46
    2f50:	59 f4       	brne	.+22     	; 0x2f68 <decision+0x940>
    2f52:	8b 81       	ldd	r24, Y+3	; 0x03
    2f54:	9c 81       	ldd	r25, Y+4	; 0x04
    2f56:	8d 97       	sbiw	r24, 0x2d	; 45
    2f58:	39 f4       	brne	.+14     	; 0x2f68 <decision+0x940>
    2f5a:	8d 81       	ldd	r24, Y+5	; 0x05
    2f5c:	9e 81       	ldd	r25, Y+6	; 0x06
    2f5e:	4c 97       	sbiw	r24, 0x1c	; 28
    2f60:	19 f4       	brne	.+6      	; 0x2f68 <decision+0x940>
	{
		right_degrees(63);
    2f62:	8f e3       	ldi	r24, 0x3F	; 63
    2f64:	90 e0       	ldi	r25, 0x00	; 0
    2f66:	5b d8       	rcall	.-3914   	; 0x201e <right_degrees>
	}
	if(prev==28 && prsnt==45 && nxt==29)
    2f68:	89 81       	ldd	r24, Y+1	; 0x01
    2f6a:	9a 81       	ldd	r25, Y+2	; 0x02
    2f6c:	4c 97       	sbiw	r24, 0x1c	; 28
    2f6e:	59 f4       	brne	.+22     	; 0x2f86 <decision+0x95e>
    2f70:	8b 81       	ldd	r24, Y+3	; 0x03
    2f72:	9c 81       	ldd	r25, Y+4	; 0x04
    2f74:	8d 97       	sbiw	r24, 0x2d	; 45
    2f76:	39 f4       	brne	.+14     	; 0x2f86 <decision+0x95e>
    2f78:	8d 81       	ldd	r24, Y+5	; 0x05
    2f7a:	9e 81       	ldd	r25, Y+6	; 0x06
    2f7c:	4d 97       	sbiw	r24, 0x1d	; 29
    2f7e:	19 f4       	brne	.+6      	; 0x2f86 <decision+0x95e>
	{
		right_degrees(63);
    2f80:	8f e3       	ldi	r24, 0x3F	; 63
    2f82:	90 e0       	ldi	r25, 0x00	; 0
    2f84:	4c d8       	rcall	.-3944   	; 0x201e <right_degrees>
	}
	if(prev==29 && prsnt==45 && nxt==28)
    2f86:	89 81       	ldd	r24, Y+1	; 0x01
    2f88:	9a 81       	ldd	r25, Y+2	; 0x02
    2f8a:	4d 97       	sbiw	r24, 0x1d	; 29
    2f8c:	61 f4       	brne	.+24     	; 0x2fa6 <decision+0x97e>
    2f8e:	8b 81       	ldd	r24, Y+3	; 0x03
    2f90:	9c 81       	ldd	r25, Y+4	; 0x04
    2f92:	8d 97       	sbiw	r24, 0x2d	; 45
    2f94:	41 f4       	brne	.+16     	; 0x2fa6 <decision+0x97e>
    2f96:	8d 81       	ldd	r24, Y+5	; 0x05
    2f98:	9e 81       	ldd	r25, Y+6	; 0x06
    2f9a:	4c 97       	sbiw	r24, 0x1c	; 28
    2f9c:	21 f4       	brne	.+8      	; 0x2fa6 <decision+0x97e>
	{
		left_degrees(63);
    2f9e:	8f e3       	ldi	r24, 0x3F	; 63
    2fa0:	90 e0       	ldi	r25, 0x00	; 0
    2fa2:	0e 94 80 0f 	call	0x1f00	; 0x1f00 <left_degrees>
	}
	if(prev==46 && prsnt==45 && nxt==29)
    2fa6:	89 81       	ldd	r24, Y+1	; 0x01
    2fa8:	9a 81       	ldd	r25, Y+2	; 0x02
    2faa:	8e 97       	sbiw	r24, 0x2e	; 46
    2fac:	61 f4       	brne	.+24     	; 0x2fc6 <decision+0x99e>
    2fae:	8b 81       	ldd	r24, Y+3	; 0x03
    2fb0:	9c 81       	ldd	r25, Y+4	; 0x04
    2fb2:	8d 97       	sbiw	r24, 0x2d	; 45
    2fb4:	41 f4       	brne	.+16     	; 0x2fc6 <decision+0x99e>
    2fb6:	8d 81       	ldd	r24, Y+5	; 0x05
    2fb8:	9e 81       	ldd	r25, Y+6	; 0x06
    2fba:	4d 97       	sbiw	r24, 0x1d	; 29
    2fbc:	21 f4       	brne	.+8      	; 0x2fc6 <decision+0x99e>
	{
		left_degrees(63);
    2fbe:	8f e3       	ldi	r24, 0x3F	; 63
    2fc0:	90 e0       	ldi	r25, 0x00	; 0
    2fc2:	0e 94 80 0f 	call	0x1f00	; 0x1f00 <left_degrees>
	}
	if(prev==29 && prsnt==45 && nxt==46)
    2fc6:	89 81       	ldd	r24, Y+1	; 0x01
    2fc8:	9a 81       	ldd	r25, Y+2	; 0x02
    2fca:	4d 97       	sbiw	r24, 0x1d	; 29
    2fcc:	59 f4       	brne	.+22     	; 0x2fe4 <decision+0x9bc>
    2fce:	8b 81       	ldd	r24, Y+3	; 0x03
    2fd0:	9c 81       	ldd	r25, Y+4	; 0x04
    2fd2:	8d 97       	sbiw	r24, 0x2d	; 45
    2fd4:	39 f4       	brne	.+14     	; 0x2fe4 <decision+0x9bc>
    2fd6:	8d 81       	ldd	r24, Y+5	; 0x05
    2fd8:	9e 81       	ldd	r25, Y+6	; 0x06
    2fda:	8e 97       	sbiw	r24, 0x2e	; 46
    2fdc:	19 f4       	brne	.+6      	; 0x2fe4 <decision+0x9bc>
	{
		right_degrees(63);
    2fde:	8f e3       	ldi	r24, 0x3F	; 63
    2fe0:	90 e0       	ldi	r25, 0x00	; 0
    2fe2:	1d d8       	rcall	.-4038   	; 0x201e <right_degrees>
	}
	if(prev==44 && prsnt==45 && nxt==46)
    2fe4:	89 81       	ldd	r24, Y+1	; 0x01
    2fe6:	9a 81       	ldd	r25, Y+2	; 0x02
    2fe8:	8c 97       	sbiw	r24, 0x2c	; 44
    2fea:	59 f4       	brne	.+22     	; 0x3002 <decision+0x9da>
    2fec:	8b 81       	ldd	r24, Y+3	; 0x03
    2fee:	9c 81       	ldd	r25, Y+4	; 0x04
    2ff0:	8d 97       	sbiw	r24, 0x2d	; 45
    2ff2:	39 f4       	brne	.+14     	; 0x3002 <decision+0x9da>
    2ff4:	8d 81       	ldd	r24, Y+5	; 0x05
    2ff6:	9e 81       	ldd	r25, Y+6	; 0x06
    2ff8:	8e 97       	sbiw	r24, 0x2e	; 46
    2ffa:	19 f4       	brne	.+6      	; 0x3002 <decision+0x9da>
	{
		right_degrees(123);
    2ffc:	8b e7       	ldi	r24, 0x7B	; 123
    2ffe:	90 e0       	ldi	r25, 0x00	; 0
    3000:	0e d8       	rcall	.-4068   	; 0x201e <right_degrees>
	}
	if(prev==46 && prsnt==45 && nxt==44)
    3002:	89 81       	ldd	r24, Y+1	; 0x01
    3004:	9a 81       	ldd	r25, Y+2	; 0x02
    3006:	8e 97       	sbiw	r24, 0x2e	; 46
    3008:	61 f4       	brne	.+24     	; 0x3022 <decision+0x9fa>
    300a:	8b 81       	ldd	r24, Y+3	; 0x03
    300c:	9c 81       	ldd	r25, Y+4	; 0x04
    300e:	8d 97       	sbiw	r24, 0x2d	; 45
    3010:	41 f4       	brne	.+16     	; 0x3022 <decision+0x9fa>
    3012:	8d 81       	ldd	r24, Y+5	; 0x05
    3014:	9e 81       	ldd	r25, Y+6	; 0x06
    3016:	8c 97       	sbiw	r24, 0x2c	; 44
    3018:	21 f4       	brne	.+8      	; 0x3022 <decision+0x9fa>
	{
		left_degrees(123);
    301a:	8b e7       	ldi	r24, 0x7B	; 123
    301c:	90 e0       	ldi	r25, 0x00	; 0
    301e:	0e 94 80 0f 	call	0x1f00	; 0x1f00 <left_degrees>
	}
	if(prev==44 && prsnt==45 && nxt==29)
    3022:	89 81       	ldd	r24, Y+1	; 0x01
    3024:	9a 81       	ldd	r25, Y+2	; 0x02
    3026:	8c 97       	sbiw	r24, 0x2c	; 44
    3028:	61 f4       	brne	.+24     	; 0x3042 <decision+0xa1a>
    302a:	8b 81       	ldd	r24, Y+3	; 0x03
    302c:	9c 81       	ldd	r25, Y+4	; 0x04
    302e:	8d 97       	sbiw	r24, 0x2d	; 45
    3030:	41 f4       	brne	.+16     	; 0x3042 <decision+0xa1a>
    3032:	8d 81       	ldd	r24, Y+5	; 0x05
    3034:	9e 81       	ldd	r25, Y+6	; 0x06
    3036:	4d 97       	sbiw	r24, 0x1d	; 29
    3038:	21 f4       	brne	.+8      	; 0x3042 <decision+0xa1a>
	{
		left_degrees(123);
    303a:	8b e7       	ldi	r24, 0x7B	; 123
    303c:	90 e0       	ldi	r25, 0x00	; 0
    303e:	0e 94 80 0f 	call	0x1f00	; 0x1f00 <left_degrees>
	}
	if(prev==29 && prsnt==45 && nxt==44)
    3042:	89 81       	ldd	r24, Y+1	; 0x01
    3044:	9a 81       	ldd	r25, Y+2	; 0x02
    3046:	4d 97       	sbiw	r24, 0x1d	; 29
    3048:	61 f4       	brne	.+24     	; 0x3062 <decision+0xa3a>
    304a:	8b 81       	ldd	r24, Y+3	; 0x03
    304c:	9c 81       	ldd	r25, Y+4	; 0x04
    304e:	8d 97       	sbiw	r24, 0x2d	; 45
    3050:	41 f4       	brne	.+16     	; 0x3062 <decision+0xa3a>
    3052:	8d 81       	ldd	r24, Y+5	; 0x05
    3054:	9e 81       	ldd	r25, Y+6	; 0x06
    3056:	8c 97       	sbiw	r24, 0x2c	; 44
    3058:	21 f4       	brne	.+8      	; 0x3062 <decision+0xa3a>
	{
		right_degrees(123);
    305a:	8b e7       	ldi	r24, 0x7B	; 123
    305c:	90 e0       	ldi	r25, 0x00	; 0
    305e:	0e 94 0f 10 	call	0x201e	; 0x201e <right_degrees>
	}
	if(prev==29 && prsnt==15 && nxt==30)
    3062:	89 81       	ldd	r24, Y+1	; 0x01
    3064:	9a 81       	ldd	r25, Y+2	; 0x02
    3066:	4d 97       	sbiw	r24, 0x1d	; 29
    3068:	61 f4       	brne	.+24     	; 0x3082 <decision+0xa5a>
    306a:	8b 81       	ldd	r24, Y+3	; 0x03
    306c:	9c 81       	ldd	r25, Y+4	; 0x04
    306e:	0f 97       	sbiw	r24, 0x0f	; 15
    3070:	41 f4       	brne	.+16     	; 0x3082 <decision+0xa5a>
    3072:	8d 81       	ldd	r24, Y+5	; 0x05
    3074:	9e 81       	ldd	r25, Y+6	; 0x06
    3076:	4e 97       	sbiw	r24, 0x1e	; 30
    3078:	21 f4       	brne	.+8      	; 0x3082 <decision+0xa5a>
	{
		left_degrees(123);
    307a:	8b e7       	ldi	r24, 0x7B	; 123
    307c:	90 e0       	ldi	r25, 0x00	; 0
    307e:	0e 94 80 0f 	call	0x1f00	; 0x1f00 <left_degrees>
	}
	if(prev==30 && prsnt==15 && nxt==29)
    3082:	89 81       	ldd	r24, Y+1	; 0x01
    3084:	9a 81       	ldd	r25, Y+2	; 0x02
    3086:	4e 97       	sbiw	r24, 0x1e	; 30
    3088:	61 f4       	brne	.+24     	; 0x30a2 <decision+0xa7a>
    308a:	8b 81       	ldd	r24, Y+3	; 0x03
    308c:	9c 81       	ldd	r25, Y+4	; 0x04
    308e:	0f 97       	sbiw	r24, 0x0f	; 15
    3090:	41 f4       	brne	.+16     	; 0x30a2 <decision+0xa7a>
    3092:	8d 81       	ldd	r24, Y+5	; 0x05
    3094:	9e 81       	ldd	r25, Y+6	; 0x06
    3096:	4d 97       	sbiw	r24, 0x1d	; 29
    3098:	21 f4       	brne	.+8      	; 0x30a2 <decision+0xa7a>
	{
		right_degrees(123);
    309a:	8b e7       	ldi	r24, 0x7B	; 123
    309c:	90 e0       	ldi	r25, 0x00	; 0
    309e:	0e 94 0f 10 	call	0x201e	; 0x201e <right_degrees>
	}
	if(prev==29 && prsnt==15 && nxt==16)
    30a2:	89 81       	ldd	r24, Y+1	; 0x01
    30a4:	9a 81       	ldd	r25, Y+2	; 0x02
    30a6:	4d 97       	sbiw	r24, 0x1d	; 29
    30a8:	61 f4       	brne	.+24     	; 0x30c2 <decision+0xa9a>
    30aa:	8b 81       	ldd	r24, Y+3	; 0x03
    30ac:	9c 81       	ldd	r25, Y+4	; 0x04
    30ae:	0f 97       	sbiw	r24, 0x0f	; 15
    30b0:	41 f4       	brne	.+16     	; 0x30c2 <decision+0xa9a>
    30b2:	8d 81       	ldd	r24, Y+5	; 0x05
    30b4:	9e 81       	ldd	r25, Y+6	; 0x06
    30b6:	40 97       	sbiw	r24, 0x10	; 16
    30b8:	21 f4       	brne	.+8      	; 0x30c2 <decision+0xa9a>
	{
		right_degrees(125);
    30ba:	8d e7       	ldi	r24, 0x7D	; 125
    30bc:	90 e0       	ldi	r25, 0x00	; 0
    30be:	0e 94 0f 10 	call	0x201e	; 0x201e <right_degrees>
	}
	if(prev==16 && prsnt==15 && nxt==29)
    30c2:	89 81       	ldd	r24, Y+1	; 0x01
    30c4:	9a 81       	ldd	r25, Y+2	; 0x02
    30c6:	40 97       	sbiw	r24, 0x10	; 16
    30c8:	61 f4       	brne	.+24     	; 0x30e2 <decision+0xaba>
    30ca:	8b 81       	ldd	r24, Y+3	; 0x03
    30cc:	9c 81       	ldd	r25, Y+4	; 0x04
    30ce:	0f 97       	sbiw	r24, 0x0f	; 15
    30d0:	41 f4       	brne	.+16     	; 0x30e2 <decision+0xaba>
    30d2:	8d 81       	ldd	r24, Y+5	; 0x05
    30d4:	9e 81       	ldd	r25, Y+6	; 0x06
    30d6:	4d 97       	sbiw	r24, 0x1d	; 29
    30d8:	21 f4       	brne	.+8      	; 0x30e2 <decision+0xaba>
	{
		left_degrees(123);
    30da:	8b e7       	ldi	r24, 0x7B	; 123
    30dc:	90 e0       	ldi	r25, 0x00	; 0
    30de:	0e 94 80 0f 	call	0x1f00	; 0x1f00 <left_degrees>
	}
	if(prev==29 && prsnt==15 && nxt==14)
    30e2:	89 81       	ldd	r24, Y+1	; 0x01
    30e4:	9a 81       	ldd	r25, Y+2	; 0x02
    30e6:	4d 97       	sbiw	r24, 0x1d	; 29
    30e8:	61 f4       	brne	.+24     	; 0x3102 <decision+0xada>
    30ea:	8b 81       	ldd	r24, Y+3	; 0x03
    30ec:	9c 81       	ldd	r25, Y+4	; 0x04
    30ee:	0f 97       	sbiw	r24, 0x0f	; 15
    30f0:	41 f4       	brne	.+16     	; 0x3102 <decision+0xada>
    30f2:	8d 81       	ldd	r24, Y+5	; 0x05
    30f4:	9e 81       	ldd	r25, Y+6	; 0x06
    30f6:	0e 97       	sbiw	r24, 0x0e	; 14
    30f8:	21 f4       	brne	.+8      	; 0x3102 <decision+0xada>
	{
		left_degrees(63);
    30fa:	8f e3       	ldi	r24, 0x3F	; 63
    30fc:	90 e0       	ldi	r25, 0x00	; 0
    30fe:	0e 94 80 0f 	call	0x1f00	; 0x1f00 <left_degrees>
	}
	if(prev==14 && prsnt==15 && nxt==29)
    3102:	89 81       	ldd	r24, Y+1	; 0x01
    3104:	9a 81       	ldd	r25, Y+2	; 0x02
    3106:	0e 97       	sbiw	r24, 0x0e	; 14
    3108:	61 f4       	brne	.+24     	; 0x3122 <decision+0xafa>
    310a:	8b 81       	ldd	r24, Y+3	; 0x03
    310c:	9c 81       	ldd	r25, Y+4	; 0x04
    310e:	0f 97       	sbiw	r24, 0x0f	; 15
    3110:	41 f4       	brne	.+16     	; 0x3122 <decision+0xafa>
    3112:	8d 81       	ldd	r24, Y+5	; 0x05
    3114:	9e 81       	ldd	r25, Y+6	; 0x06
    3116:	4d 97       	sbiw	r24, 0x1d	; 29
    3118:	21 f4       	brne	.+8      	; 0x3122 <decision+0xafa>
	{
		right_degrees(63);
    311a:	8f e3       	ldi	r24, 0x3F	; 63
    311c:	90 e0       	ldi	r25, 0x00	; 0
    311e:	0e 94 0f 10 	call	0x201e	; 0x201e <right_degrees>
	}
	if(prev==16 && prsnt==15 && nxt==30)
    3122:	89 81       	ldd	r24, Y+1	; 0x01
    3124:	9a 81       	ldd	r25, Y+2	; 0x02
    3126:	40 97       	sbiw	r24, 0x10	; 16
    3128:	61 f4       	brne	.+24     	; 0x3142 <decision+0xb1a>
    312a:	8b 81       	ldd	r24, Y+3	; 0x03
    312c:	9c 81       	ldd	r25, Y+4	; 0x04
    312e:	0f 97       	sbiw	r24, 0x0f	; 15
    3130:	41 f4       	brne	.+16     	; 0x3142 <decision+0xb1a>
    3132:	8d 81       	ldd	r24, Y+5	; 0x05
    3134:	9e 81       	ldd	r25, Y+6	; 0x06
    3136:	4e 97       	sbiw	r24, 0x1e	; 30
    3138:	21 f4       	brne	.+8      	; 0x3142 <decision+0xb1a>
	{
		left_degrees(63);
    313a:	8f e3       	ldi	r24, 0x3F	; 63
    313c:	90 e0       	ldi	r25, 0x00	; 0
    313e:	0e 94 80 0f 	call	0x1f00	; 0x1f00 <left_degrees>
	}
	if(prev==30 && prsnt==15 && nxt==16)
    3142:	89 81       	ldd	r24, Y+1	; 0x01
    3144:	9a 81       	ldd	r25, Y+2	; 0x02
    3146:	4e 97       	sbiw	r24, 0x1e	; 30
    3148:	61 f4       	brne	.+24     	; 0x3162 <decision+0xb3a>
    314a:	8b 81       	ldd	r24, Y+3	; 0x03
    314c:	9c 81       	ldd	r25, Y+4	; 0x04
    314e:	0f 97       	sbiw	r24, 0x0f	; 15
    3150:	41 f4       	brne	.+16     	; 0x3162 <decision+0xb3a>
    3152:	8d 81       	ldd	r24, Y+5	; 0x05
    3154:	9e 81       	ldd	r25, Y+6	; 0x06
    3156:	40 97       	sbiw	r24, 0x10	; 16
    3158:	21 f4       	brne	.+8      	; 0x3162 <decision+0xb3a>
	{
		right_degrees(63);
    315a:	8f e3       	ldi	r24, 0x3F	; 63
    315c:	90 e0       	ldi	r25, 0x00	; 0
    315e:	0e 94 0f 10 	call	0x201e	; 0x201e <right_degrees>
	}
	if(prev==14 && prsnt==15 && nxt==30)
    3162:	89 81       	ldd	r24, Y+1	; 0x01
    3164:	9a 81       	ldd	r25, Y+2	; 0x02
    3166:	0e 97       	sbiw	r24, 0x0e	; 14
    3168:	61 f4       	brne	.+24     	; 0x3182 <decision+0xb5a>
    316a:	8b 81       	ldd	r24, Y+3	; 0x03
    316c:	9c 81       	ldd	r25, Y+4	; 0x04
    316e:	0f 97       	sbiw	r24, 0x0f	; 15
    3170:	41 f4       	brne	.+16     	; 0x3182 <decision+0xb5a>
    3172:	8d 81       	ldd	r24, Y+5	; 0x05
    3174:	9e 81       	ldd	r25, Y+6	; 0x06
    3176:	4e 97       	sbiw	r24, 0x1e	; 30
    3178:	21 f4       	brne	.+8      	; 0x3182 <decision+0xb5a>
	{
		left_degrees(123);
    317a:	8b e7       	ldi	r24, 0x7B	; 123
    317c:	90 e0       	ldi	r25, 0x00	; 0
    317e:	0e 94 80 0f 	call	0x1f00	; 0x1f00 <left_degrees>
	}
	if(prev==30 && prsnt==15 && nxt==14)
    3182:	89 81       	ldd	r24, Y+1	; 0x01
    3184:	9a 81       	ldd	r25, Y+2	; 0x02
    3186:	4e 97       	sbiw	r24, 0x1e	; 30
    3188:	61 f4       	brne	.+24     	; 0x31a2 <decision+0xb7a>
    318a:	8b 81       	ldd	r24, Y+3	; 0x03
    318c:	9c 81       	ldd	r25, Y+4	; 0x04
    318e:	0f 97       	sbiw	r24, 0x0f	; 15
    3190:	41 f4       	brne	.+16     	; 0x31a2 <decision+0xb7a>
    3192:	8d 81       	ldd	r24, Y+5	; 0x05
    3194:	9e 81       	ldd	r25, Y+6	; 0x06
    3196:	0e 97       	sbiw	r24, 0x0e	; 14
    3198:	21 f4       	brne	.+8      	; 0x31a2 <decision+0xb7a>
	{
		right_degrees(125);
    319a:	8d e7       	ldi	r24, 0x7D	; 125
    319c:	90 e0       	ldi	r25, 0x00	; 0
    319e:	0e 94 0f 10 	call	0x201e	; 0x201e <right_degrees>
	}
	if(prev==30 && prsnt==44 && nxt==45)
    31a2:	89 81       	ldd	r24, Y+1	; 0x01
    31a4:	9a 81       	ldd	r25, Y+2	; 0x02
    31a6:	4e 97       	sbiw	r24, 0x1e	; 30
    31a8:	61 f4       	brne	.+24     	; 0x31c2 <decision+0xb9a>
    31aa:	8b 81       	ldd	r24, Y+3	; 0x03
    31ac:	9c 81       	ldd	r25, Y+4	; 0x04
    31ae:	8c 97       	sbiw	r24, 0x2c	; 44
    31b0:	41 f4       	brne	.+16     	; 0x31c2 <decision+0xb9a>
    31b2:	8d 81       	ldd	r24, Y+5	; 0x05
    31b4:	9e 81       	ldd	r25, Y+6	; 0x06
    31b6:	8d 97       	sbiw	r24, 0x2d	; 45
    31b8:	21 f4       	brne	.+8      	; 0x31c2 <decision+0xb9a>
	{
		left_degrees(123);
    31ba:	8b e7       	ldi	r24, 0x7B	; 123
    31bc:	90 e0       	ldi	r25, 0x00	; 0
    31be:	0e 94 80 0f 	call	0x1f00	; 0x1f00 <left_degrees>
	}
	if(prev==45 && prsnt==44 && nxt==30)
    31c2:	89 81       	ldd	r24, Y+1	; 0x01
    31c4:	9a 81       	ldd	r25, Y+2	; 0x02
    31c6:	8d 97       	sbiw	r24, 0x2d	; 45
    31c8:	61 f4       	brne	.+24     	; 0x31e2 <decision+0xbba>
    31ca:	8b 81       	ldd	r24, Y+3	; 0x03
    31cc:	9c 81       	ldd	r25, Y+4	; 0x04
    31ce:	8c 97       	sbiw	r24, 0x2c	; 44
    31d0:	41 f4       	brne	.+16     	; 0x31e2 <decision+0xbba>
    31d2:	8d 81       	ldd	r24, Y+5	; 0x05
    31d4:	9e 81       	ldd	r25, Y+6	; 0x06
    31d6:	4e 97       	sbiw	r24, 0x1e	; 30
    31d8:	21 f4       	brne	.+8      	; 0x31e2 <decision+0xbba>
	{
		right_degrees(123);
    31da:	8b e7       	ldi	r24, 0x7B	; 123
    31dc:	90 e0       	ldi	r25, 0x00	; 0
    31de:	0e 94 0f 10 	call	0x201e	; 0x201e <right_degrees>
	}
	if(prev==30 && prsnt==44 && nxt==31)
    31e2:	89 81       	ldd	r24, Y+1	; 0x01
    31e4:	9a 81       	ldd	r25, Y+2	; 0x02
    31e6:	4e 97       	sbiw	r24, 0x1e	; 30
    31e8:	61 f4       	brne	.+24     	; 0x3202 <decision+0xbda>
    31ea:	8b 81       	ldd	r24, Y+3	; 0x03
    31ec:	9c 81       	ldd	r25, Y+4	; 0x04
    31ee:	8c 97       	sbiw	r24, 0x2c	; 44
    31f0:	41 f4       	brne	.+16     	; 0x3202 <decision+0xbda>
    31f2:	8d 81       	ldd	r24, Y+5	; 0x05
    31f4:	9e 81       	ldd	r25, Y+6	; 0x06
    31f6:	4f 97       	sbiw	r24, 0x1f	; 31
    31f8:	21 f4       	brne	.+8      	; 0x3202 <decision+0xbda>
	{
		right_degrees(63);
    31fa:	8f e3       	ldi	r24, 0x3F	; 63
    31fc:	90 e0       	ldi	r25, 0x00	; 0
    31fe:	0e 94 0f 10 	call	0x201e	; 0x201e <right_degrees>
	}
	if(prev==31 && prsnt==44 && nxt==30)
    3202:	89 81       	ldd	r24, Y+1	; 0x01
    3204:	9a 81       	ldd	r25, Y+2	; 0x02
    3206:	4f 97       	sbiw	r24, 0x1f	; 31
    3208:	61 f4       	brne	.+24     	; 0x3222 <decision+0xbfa>
    320a:	8b 81       	ldd	r24, Y+3	; 0x03
    320c:	9c 81       	ldd	r25, Y+4	; 0x04
    320e:	8c 97       	sbiw	r24, 0x2c	; 44
    3210:	41 f4       	brne	.+16     	; 0x3222 <decision+0xbfa>
    3212:	8d 81       	ldd	r24, Y+5	; 0x05
    3214:	9e 81       	ldd	r25, Y+6	; 0x06
    3216:	4e 97       	sbiw	r24, 0x1e	; 30
    3218:	21 f4       	brne	.+8      	; 0x3222 <decision+0xbfa>
	{
		left_degrees(63);
    321a:	8f e3       	ldi	r24, 0x3F	; 63
    321c:	90 e0       	ldi	r25, 0x00	; 0
    321e:	0e 94 80 0f 	call	0x1f00	; 0x1f00 <left_degrees>
	}
	if(prev==30 && prsnt==44 && nxt==43)
    3222:	89 81       	ldd	r24, Y+1	; 0x01
    3224:	9a 81       	ldd	r25, Y+2	; 0x02
    3226:	4e 97       	sbiw	r24, 0x1e	; 30
    3228:	61 f4       	brne	.+24     	; 0x3242 <decision+0xc1a>
    322a:	8b 81       	ldd	r24, Y+3	; 0x03
    322c:	9c 81       	ldd	r25, Y+4	; 0x04
    322e:	8c 97       	sbiw	r24, 0x2c	; 44
    3230:	41 f4       	brne	.+16     	; 0x3242 <decision+0xc1a>
    3232:	8d 81       	ldd	r24, Y+5	; 0x05
    3234:	9e 81       	ldd	r25, Y+6	; 0x06
    3236:	8b 97       	sbiw	r24, 0x2b	; 43
    3238:	21 f4       	brne	.+8      	; 0x3242 <decision+0xc1a>
	{
		left_degrees(63);
    323a:	8f e3       	ldi	r24, 0x3F	; 63
    323c:	90 e0       	ldi	r25, 0x00	; 0
    323e:	0e 94 80 0f 	call	0x1f00	; 0x1f00 <left_degrees>
	}
	if(prev==43 && prsnt==44 && nxt==30)
    3242:	89 81       	ldd	r24, Y+1	; 0x01
    3244:	9a 81       	ldd	r25, Y+2	; 0x02
    3246:	8b 97       	sbiw	r24, 0x2b	; 43
    3248:	61 f4       	brne	.+24     	; 0x3262 <decision+0xc3a>
    324a:	8b 81       	ldd	r24, Y+3	; 0x03
    324c:	9c 81       	ldd	r25, Y+4	; 0x04
    324e:	8c 97       	sbiw	r24, 0x2c	; 44
    3250:	41 f4       	brne	.+16     	; 0x3262 <decision+0xc3a>
    3252:	8d 81       	ldd	r24, Y+5	; 0x05
    3254:	9e 81       	ldd	r25, Y+6	; 0x06
    3256:	4e 97       	sbiw	r24, 0x1e	; 30
    3258:	21 f4       	brne	.+8      	; 0x3262 <decision+0xc3a>
	{
		right_degrees(63);
    325a:	8f e3       	ldi	r24, 0x3F	; 63
    325c:	90 e0       	ldi	r25, 0x00	; 0
    325e:	0e 94 0f 10 	call	0x201e	; 0x201e <right_degrees>
	}
	if(prev==43 && prsnt==44 && nxt==31)
    3262:	89 81       	ldd	r24, Y+1	; 0x01
    3264:	9a 81       	ldd	r25, Y+2	; 0x02
    3266:	8b 97       	sbiw	r24, 0x2b	; 43
    3268:	61 f4       	brne	.+24     	; 0x3282 <decision+0xc5a>
    326a:	8b 81       	ldd	r24, Y+3	; 0x03
    326c:	9c 81       	ldd	r25, Y+4	; 0x04
    326e:	8c 97       	sbiw	r24, 0x2c	; 44
    3270:	41 f4       	brne	.+16     	; 0x3282 <decision+0xc5a>
    3272:	8d 81       	ldd	r24, Y+5	; 0x05
    3274:	9e 81       	ldd	r25, Y+6	; 0x06
    3276:	4f 97       	sbiw	r24, 0x1f	; 31
    3278:	21 f4       	brne	.+8      	; 0x3282 <decision+0xc5a>
	{
		left_degrees(63);
    327a:	8f e3       	ldi	r24, 0x3F	; 63
    327c:	90 e0       	ldi	r25, 0x00	; 0
    327e:	0e 94 80 0f 	call	0x1f00	; 0x1f00 <left_degrees>
	}
	if(prev==31 && prsnt==44 && nxt==43)
    3282:	89 81       	ldd	r24, Y+1	; 0x01
    3284:	9a 81       	ldd	r25, Y+2	; 0x02
    3286:	4f 97       	sbiw	r24, 0x1f	; 31
    3288:	61 f4       	brne	.+24     	; 0x32a2 <decision+0xc7a>
    328a:	8b 81       	ldd	r24, Y+3	; 0x03
    328c:	9c 81       	ldd	r25, Y+4	; 0x04
    328e:	8c 97       	sbiw	r24, 0x2c	; 44
    3290:	41 f4       	brne	.+16     	; 0x32a2 <decision+0xc7a>
    3292:	8d 81       	ldd	r24, Y+5	; 0x05
    3294:	9e 81       	ldd	r25, Y+6	; 0x06
    3296:	8b 97       	sbiw	r24, 0x2b	; 43
    3298:	21 f4       	brne	.+8      	; 0x32a2 <decision+0xc7a>
	{
		right_degrees(63);
    329a:	8f e3       	ldi	r24, 0x3F	; 63
    329c:	90 e0       	ldi	r25, 0x00	; 0
    329e:	0e 94 0f 10 	call	0x201e	; 0x201e <right_degrees>
	}
	if(prev==43 && prsnt==44 && nxt==45)
    32a2:	89 81       	ldd	r24, Y+1	; 0x01
    32a4:	9a 81       	ldd	r25, Y+2	; 0x02
    32a6:	8b 97       	sbiw	r24, 0x2b	; 43
    32a8:	61 f4       	brne	.+24     	; 0x32c2 <decision+0xc9a>
    32aa:	8b 81       	ldd	r24, Y+3	; 0x03
    32ac:	9c 81       	ldd	r25, Y+4	; 0x04
    32ae:	8c 97       	sbiw	r24, 0x2c	; 44
    32b0:	41 f4       	brne	.+16     	; 0x32c2 <decision+0xc9a>
    32b2:	8d 81       	ldd	r24, Y+5	; 0x05
    32b4:	9e 81       	ldd	r25, Y+6	; 0x06
    32b6:	8d 97       	sbiw	r24, 0x2d	; 45
    32b8:	21 f4       	brne	.+8      	; 0x32c2 <decision+0xc9a>
	{
		right_degrees(123);
    32ba:	8b e7       	ldi	r24, 0x7B	; 123
    32bc:	90 e0       	ldi	r25, 0x00	; 0
    32be:	0e 94 0f 10 	call	0x201e	; 0x201e <right_degrees>
	}
	if(prev==45 && prsnt==44 && nxt==43)
    32c2:	89 81       	ldd	r24, Y+1	; 0x01
    32c4:	9a 81       	ldd	r25, Y+2	; 0x02
    32c6:	8d 97       	sbiw	r24, 0x2d	; 45
    32c8:	61 f4       	brne	.+24     	; 0x32e2 <decision+0xcba>
    32ca:	8b 81       	ldd	r24, Y+3	; 0x03
    32cc:	9c 81       	ldd	r25, Y+4	; 0x04
    32ce:	8c 97       	sbiw	r24, 0x2c	; 44
    32d0:	41 f4       	brne	.+16     	; 0x32e2 <decision+0xcba>
    32d2:	8d 81       	ldd	r24, Y+5	; 0x05
    32d4:	9e 81       	ldd	r25, Y+6	; 0x06
    32d6:	8b 97       	sbiw	r24, 0x2b	; 43
    32d8:	21 f4       	brne	.+8      	; 0x32e2 <decision+0xcba>
	{
		left_degrees(123);
    32da:	8b e7       	ldi	r24, 0x7B	; 123
    32dc:	90 e0       	ldi	r25, 0x00	; 0
    32de:	0e 94 80 0f 	call	0x1f00	; 0x1f00 <left_degrees>
	}
	if(prev==44 && prsnt==31 && nxt==32)
    32e2:	89 81       	ldd	r24, Y+1	; 0x01
    32e4:	9a 81       	ldd	r25, Y+2	; 0x02
    32e6:	8c 97       	sbiw	r24, 0x2c	; 44
    32e8:	61 f4       	brne	.+24     	; 0x3302 <decision+0xcda>
    32ea:	8b 81       	ldd	r24, Y+3	; 0x03
    32ec:	9c 81       	ldd	r25, Y+4	; 0x04
    32ee:	4f 97       	sbiw	r24, 0x1f	; 31
    32f0:	41 f4       	brne	.+16     	; 0x3302 <decision+0xcda>
    32f2:	8d 81       	ldd	r24, Y+5	; 0x05
    32f4:	9e 81       	ldd	r25, Y+6	; 0x06
    32f6:	80 97       	sbiw	r24, 0x20	; 32
    32f8:	21 f4       	brne	.+8      	; 0x3302 <decision+0xcda>
	{
		left_degrees(63);
    32fa:	8f e3       	ldi	r24, 0x3F	; 63
    32fc:	90 e0       	ldi	r25, 0x00	; 0
    32fe:	0e 94 80 0f 	call	0x1f00	; 0x1f00 <left_degrees>
	}
	if(prev==32 && prsnt==31 && nxt==44)
    3302:	89 81       	ldd	r24, Y+1	; 0x01
    3304:	9a 81       	ldd	r25, Y+2	; 0x02
    3306:	80 97       	sbiw	r24, 0x20	; 32
    3308:	61 f4       	brne	.+24     	; 0x3322 <decision+0xcfa>
    330a:	8b 81       	ldd	r24, Y+3	; 0x03
    330c:	9c 81       	ldd	r25, Y+4	; 0x04
    330e:	4f 97       	sbiw	r24, 0x1f	; 31
    3310:	41 f4       	brne	.+16     	; 0x3322 <decision+0xcfa>
    3312:	8d 81       	ldd	r24, Y+5	; 0x05
    3314:	9e 81       	ldd	r25, Y+6	; 0x06
    3316:	8c 97       	sbiw	r24, 0x2c	; 44
    3318:	21 f4       	brne	.+8      	; 0x3322 <decision+0xcfa>
	{
		right_degrees(63);
    331a:	8f e3       	ldi	r24, 0x3F	; 63
    331c:	90 e0       	ldi	r25, 0x00	; 0
    331e:	0e 94 0f 10 	call	0x201e	; 0x201e <right_degrees>
	}
	if(prev==32 && prsnt==31 && nxt==11)
    3322:	89 81       	ldd	r24, Y+1	; 0x01
    3324:	9a 81       	ldd	r25, Y+2	; 0x02
    3326:	80 97       	sbiw	r24, 0x20	; 32
    3328:	61 f4       	brne	.+24     	; 0x3342 <decision+0xd1a>
    332a:	8b 81       	ldd	r24, Y+3	; 0x03
    332c:	9c 81       	ldd	r25, Y+4	; 0x04
    332e:	4f 97       	sbiw	r24, 0x1f	; 31
    3330:	41 f4       	brne	.+16     	; 0x3342 <decision+0xd1a>
    3332:	8d 81       	ldd	r24, Y+5	; 0x05
    3334:	9e 81       	ldd	r25, Y+6	; 0x06
    3336:	0b 97       	sbiw	r24, 0x0b	; 11
    3338:	21 f4       	brne	.+8      	; 0x3342 <decision+0xd1a>
	{
		left_degrees(123);
    333a:	8b e7       	ldi	r24, 0x7B	; 123
    333c:	90 e0       	ldi	r25, 0x00	; 0
    333e:	0e 94 80 0f 	call	0x1f00	; 0x1f00 <left_degrees>
	}
	if(prev==11 && prsnt==31 && nxt==32)
    3342:	89 81       	ldd	r24, Y+1	; 0x01
    3344:	9a 81       	ldd	r25, Y+2	; 0x02
    3346:	0b 97       	sbiw	r24, 0x0b	; 11
    3348:	61 f4       	brne	.+24     	; 0x3362 <decision+0xd3a>
    334a:	8b 81       	ldd	r24, Y+3	; 0x03
    334c:	9c 81       	ldd	r25, Y+4	; 0x04
    334e:	4f 97       	sbiw	r24, 0x1f	; 31
    3350:	41 f4       	brne	.+16     	; 0x3362 <decision+0xd3a>
    3352:	8d 81       	ldd	r24, Y+5	; 0x05
    3354:	9e 81       	ldd	r25, Y+6	; 0x06
    3356:	80 97       	sbiw	r24, 0x20	; 32
    3358:	21 f4       	brne	.+8      	; 0x3362 <decision+0xd3a>
	{
		right_degrees(123);
    335a:	8b e7       	ldi	r24, 0x7B	; 123
    335c:	90 e0       	ldi	r25, 0x00	; 0
    335e:	0e 94 0f 10 	call	0x201e	; 0x201e <right_degrees>
	}
	if(prev==11 && prsnt==32 && nxt==31)
    3362:	89 81       	ldd	r24, Y+1	; 0x01
    3364:	9a 81       	ldd	r25, Y+2	; 0x02
    3366:	0b 97       	sbiw	r24, 0x0b	; 11
    3368:	61 f4       	brne	.+24     	; 0x3382 <decision+0xd5a>
    336a:	8b 81       	ldd	r24, Y+3	; 0x03
    336c:	9c 81       	ldd	r25, Y+4	; 0x04
    336e:	80 97       	sbiw	r24, 0x20	; 32
    3370:	41 f4       	brne	.+16     	; 0x3382 <decision+0xd5a>
    3372:	8d 81       	ldd	r24, Y+5	; 0x05
    3374:	9e 81       	ldd	r25, Y+6	; 0x06
    3376:	4f 97       	sbiw	r24, 0x1f	; 31
    3378:	21 f4       	brne	.+8      	; 0x3382 <decision+0xd5a>
	{
		left_degrees(123);
    337a:	8b e7       	ldi	r24, 0x7B	; 123
    337c:	90 e0       	ldi	r25, 0x00	; 0
    337e:	0e 94 80 0f 	call	0x1f00	; 0x1f00 <left_degrees>
	}
	if(prev==31 && prsnt==32 && nxt==11)
    3382:	89 81       	ldd	r24, Y+1	; 0x01
    3384:	9a 81       	ldd	r25, Y+2	; 0x02
    3386:	4f 97       	sbiw	r24, 0x1f	; 31
    3388:	61 f4       	brne	.+24     	; 0x33a2 <decision+0xd7a>
    338a:	8b 81       	ldd	r24, Y+3	; 0x03
    338c:	9c 81       	ldd	r25, Y+4	; 0x04
    338e:	80 97       	sbiw	r24, 0x20	; 32
    3390:	41 f4       	brne	.+16     	; 0x33a2 <decision+0xd7a>
    3392:	8d 81       	ldd	r24, Y+5	; 0x05
    3394:	9e 81       	ldd	r25, Y+6	; 0x06
    3396:	0b 97       	sbiw	r24, 0x0b	; 11
    3398:	21 f4       	brne	.+8      	; 0x33a2 <decision+0xd7a>
	{
		right_degrees(123);
    339a:	8b e7       	ldi	r24, 0x7B	; 123
    339c:	90 e0       	ldi	r25, 0x00	; 0
    339e:	0e 94 0f 10 	call	0x201e	; 0x201e <right_degrees>
	}
	if(prev==31 && prsnt==32 && nxt==41)
    33a2:	89 81       	ldd	r24, Y+1	; 0x01
    33a4:	9a 81       	ldd	r25, Y+2	; 0x02
    33a6:	4f 97       	sbiw	r24, 0x1f	; 31
    33a8:	61 f4       	brne	.+24     	; 0x33c2 <decision+0xd9a>
    33aa:	8b 81       	ldd	r24, Y+3	; 0x03
    33ac:	9c 81       	ldd	r25, Y+4	; 0x04
    33ae:	80 97       	sbiw	r24, 0x20	; 32
    33b0:	41 f4       	brne	.+16     	; 0x33c2 <decision+0xd9a>
    33b2:	8d 81       	ldd	r24, Y+5	; 0x05
    33b4:	9e 81       	ldd	r25, Y+6	; 0x06
    33b6:	89 97       	sbiw	r24, 0x29	; 41
    33b8:	21 f4       	brne	.+8      	; 0x33c2 <decision+0xd9a>
	{
		left_degrees(63);
    33ba:	8f e3       	ldi	r24, 0x3F	; 63
    33bc:	90 e0       	ldi	r25, 0x00	; 0
    33be:	0e 94 80 0f 	call	0x1f00	; 0x1f00 <left_degrees>
	}
	if(prev==41 && prsnt==32 && nxt==31)
    33c2:	89 81       	ldd	r24, Y+1	; 0x01
    33c4:	9a 81       	ldd	r25, Y+2	; 0x02
    33c6:	89 97       	sbiw	r24, 0x29	; 41
    33c8:	61 f4       	brne	.+24     	; 0x33e2 <decision+0xdba>
    33ca:	8b 81       	ldd	r24, Y+3	; 0x03
    33cc:	9c 81       	ldd	r25, Y+4	; 0x04
    33ce:	80 97       	sbiw	r24, 0x20	; 32
    33d0:	41 f4       	brne	.+16     	; 0x33e2 <decision+0xdba>
    33d2:	8d 81       	ldd	r24, Y+5	; 0x05
    33d4:	9e 81       	ldd	r25, Y+6	; 0x06
    33d6:	4f 97       	sbiw	r24, 0x1f	; 31
    33d8:	21 f4       	brne	.+8      	; 0x33e2 <decision+0xdba>
	{
		right_degrees(63);
    33da:	8f e3       	ldi	r24, 0x3F	; 63
    33dc:	90 e0       	ldi	r25, 0x00	; 0
    33de:	0e 94 0f 10 	call	0x201e	; 0x201e <right_degrees>
	}
	if(prev==32 && prsnt==11 && nxt==31)
    33e2:	89 81       	ldd	r24, Y+1	; 0x01
    33e4:	9a 81       	ldd	r25, Y+2	; 0x02
    33e6:	80 97       	sbiw	r24, 0x20	; 32
    33e8:	61 f4       	brne	.+24     	; 0x3402 <decision+0xdda>
    33ea:	8b 81       	ldd	r24, Y+3	; 0x03
    33ec:	9c 81       	ldd	r25, Y+4	; 0x04
    33ee:	0b 97       	sbiw	r24, 0x0b	; 11
    33f0:	41 f4       	brne	.+16     	; 0x3402 <decision+0xdda>
    33f2:	8d 81       	ldd	r24, Y+5	; 0x05
    33f4:	9e 81       	ldd	r25, Y+6	; 0x06
    33f6:	4f 97       	sbiw	r24, 0x1f	; 31
    33f8:	21 f4       	brne	.+8      	; 0x3402 <decision+0xdda>
	{
		right_degrees(123);
    33fa:	8b e7       	ldi	r24, 0x7B	; 123
    33fc:	90 e0       	ldi	r25, 0x00	; 0
    33fe:	0e 94 0f 10 	call	0x201e	; 0x201e <right_degrees>
	}
	if(prev==31 && prsnt==11 && nxt==12)
    3402:	89 81       	ldd	r24, Y+1	; 0x01
    3404:	9a 81       	ldd	r25, Y+2	; 0x02
    3406:	4f 97       	sbiw	r24, 0x1f	; 31
    3408:	61 f4       	brne	.+24     	; 0x3422 <decision+0xdfa>
    340a:	8b 81       	ldd	r24, Y+3	; 0x03
    340c:	9c 81       	ldd	r25, Y+4	; 0x04
    340e:	0b 97       	sbiw	r24, 0x0b	; 11
    3410:	41 f4       	brne	.+16     	; 0x3422 <decision+0xdfa>
    3412:	8d 81       	ldd	r24, Y+5	; 0x05
    3414:	9e 81       	ldd	r25, Y+6	; 0x06
    3416:	0c 97       	sbiw	r24, 0x0c	; 12
    3418:	21 f4       	brne	.+8      	; 0x3422 <decision+0xdfa>
	{
		right_degrees(125);
    341a:	8d e7       	ldi	r24, 0x7D	; 125
    341c:	90 e0       	ldi	r25, 0x00	; 0
    341e:	0e 94 0f 10 	call	0x201e	; 0x201e <right_degrees>
	}
	if(prev==12 && prsnt==11 && nxt==31)
    3422:	89 81       	ldd	r24, Y+1	; 0x01
    3424:	9a 81       	ldd	r25, Y+2	; 0x02
    3426:	0c 97       	sbiw	r24, 0x0c	; 12
    3428:	61 f4       	brne	.+24     	; 0x3442 <decision+0xe1a>
    342a:	8b 81       	ldd	r24, Y+3	; 0x03
    342c:	9c 81       	ldd	r25, Y+4	; 0x04
    342e:	0b 97       	sbiw	r24, 0x0b	; 11
    3430:	41 f4       	brne	.+16     	; 0x3442 <decision+0xe1a>
    3432:	8d 81       	ldd	r24, Y+5	; 0x05
    3434:	9e 81       	ldd	r25, Y+6	; 0x06
    3436:	4f 97       	sbiw	r24, 0x1f	; 31
    3438:	21 f4       	brne	.+8      	; 0x3442 <decision+0xe1a>
	{
		left_degrees(123);
    343a:	8b e7       	ldi	r24, 0x7B	; 123
    343c:	90 e0       	ldi	r25, 0x00	; 0
    343e:	0e 94 80 0f 	call	0x1f00	; 0x1f00 <left_degrees>
	}
	if(prev==10 && prsnt==11 && nxt==32)
    3442:	89 81       	ldd	r24, Y+1	; 0x01
    3444:	9a 81       	ldd	r25, Y+2	; 0x02
    3446:	0a 97       	sbiw	r24, 0x0a	; 10
    3448:	61 f4       	brne	.+24     	; 0x3462 <decision+0xe3a>
    344a:	8b 81       	ldd	r24, Y+3	; 0x03
    344c:	9c 81       	ldd	r25, Y+4	; 0x04
    344e:	0b 97       	sbiw	r24, 0x0b	; 11
    3450:	41 f4       	brne	.+16     	; 0x3462 <decision+0xe3a>
    3452:	8d 81       	ldd	r24, Y+5	; 0x05
    3454:	9e 81       	ldd	r25, Y+6	; 0x06
    3456:	80 97       	sbiw	r24, 0x20	; 32
    3458:	21 f4       	brne	.+8      	; 0x3462 <decision+0xe3a>
	{
		right_degrees(123);
    345a:	8b e7       	ldi	r24, 0x7B	; 123
    345c:	90 e0       	ldi	r25, 0x00	; 0
    345e:	0e 94 0f 10 	call	0x201e	; 0x201e <right_degrees>
	}
	if(prev==32 && prsnt==11 && nxt==10)
    3462:	89 81       	ldd	r24, Y+1	; 0x01
    3464:	9a 81       	ldd	r25, Y+2	; 0x02
    3466:	80 97       	sbiw	r24, 0x20	; 32
    3468:	61 f4       	brne	.+24     	; 0x3482 <decision+0xe5a>
    346a:	8b 81       	ldd	r24, Y+3	; 0x03
    346c:	9c 81       	ldd	r25, Y+4	; 0x04
    346e:	0b 97       	sbiw	r24, 0x0b	; 11
    3470:	41 f4       	brne	.+16     	; 0x3482 <decision+0xe5a>
    3472:	8d 81       	ldd	r24, Y+5	; 0x05
    3474:	9e 81       	ldd	r25, Y+6	; 0x06
    3476:	0a 97       	sbiw	r24, 0x0a	; 10
    3478:	21 f4       	brne	.+8      	; 0x3482 <decision+0xe5a>
	{
		left_degrees(125);
    347a:	8d e7       	ldi	r24, 0x7D	; 125
    347c:	90 e0       	ldi	r25, 0x00	; 0
    347e:	0e 94 80 0f 	call	0x1f00	; 0x1f00 <left_degrees>
	}
	if(prev==12 && prsnt==11 && nxt==32)
    3482:	89 81       	ldd	r24, Y+1	; 0x01
    3484:	9a 81       	ldd	r25, Y+2	; 0x02
    3486:	0c 97       	sbiw	r24, 0x0c	; 12
    3488:	61 f4       	brne	.+24     	; 0x34a2 <decision+0xe7a>
    348a:	8b 81       	ldd	r24, Y+3	; 0x03
    348c:	9c 81       	ldd	r25, Y+4	; 0x04
    348e:	0b 97       	sbiw	r24, 0x0b	; 11
    3490:	41 f4       	brne	.+16     	; 0x34a2 <decision+0xe7a>
    3492:	8d 81       	ldd	r24, Y+5	; 0x05
    3494:	9e 81       	ldd	r25, Y+6	; 0x06
    3496:	80 97       	sbiw	r24, 0x20	; 32
    3498:	21 f4       	brne	.+8      	; 0x34a2 <decision+0xe7a>
	{
		left_degrees(63);
    349a:	8f e3       	ldi	r24, 0x3F	; 63
    349c:	90 e0       	ldi	r25, 0x00	; 0
    349e:	0e 94 80 0f 	call	0x1f00	; 0x1f00 <left_degrees>
	}
	if(prev==32 && prsnt==11 && nxt==12)
    34a2:	89 81       	ldd	r24, Y+1	; 0x01
    34a4:	9a 81       	ldd	r25, Y+2	; 0x02
    34a6:	80 97       	sbiw	r24, 0x20	; 32
    34a8:	61 f4       	brne	.+24     	; 0x34c2 <decision+0xe9a>
    34aa:	8b 81       	ldd	r24, Y+3	; 0x03
    34ac:	9c 81       	ldd	r25, Y+4	; 0x04
    34ae:	0b 97       	sbiw	r24, 0x0b	; 11
    34b0:	41 f4       	brne	.+16     	; 0x34c2 <decision+0xe9a>
    34b2:	8d 81       	ldd	r24, Y+5	; 0x05
    34b4:	9e 81       	ldd	r25, Y+6	; 0x06
    34b6:	0c 97       	sbiw	r24, 0x0c	; 12
    34b8:	21 f4       	brne	.+8      	; 0x34c2 <decision+0xe9a>
	{
		right_degrees(63);
    34ba:	8f e3       	ldi	r24, 0x3F	; 63
    34bc:	90 e0       	ldi	r25, 0x00	; 0
    34be:	0e 94 0f 10 	call	0x201e	; 0x201e <right_degrees>
	}
	if(prev==10 && prsnt==11 && nxt==31)
    34c2:	89 81       	ldd	r24, Y+1	; 0x01
    34c4:	9a 81       	ldd	r25, Y+2	; 0x02
    34c6:	0a 97       	sbiw	r24, 0x0a	; 10
    34c8:	61 f4       	brne	.+24     	; 0x34e2 <decision+0xeba>
    34ca:	8b 81       	ldd	r24, Y+3	; 0x03
    34cc:	9c 81       	ldd	r25, Y+4	; 0x04
    34ce:	0b 97       	sbiw	r24, 0x0b	; 11
    34d0:	41 f4       	brne	.+16     	; 0x34e2 <decision+0xeba>
    34d2:	8d 81       	ldd	r24, Y+5	; 0x05
    34d4:	9e 81       	ldd	r25, Y+6	; 0x06
    34d6:	4f 97       	sbiw	r24, 0x1f	; 31
    34d8:	21 f4       	brne	.+8      	; 0x34e2 <decision+0xeba>
	{
		right_degrees(63);
    34da:	8f e3       	ldi	r24, 0x3F	; 63
    34dc:	90 e0       	ldi	r25, 0x00	; 0
    34de:	0e 94 0f 10 	call	0x201e	; 0x201e <right_degrees>
	}
	if(prev==31 && prsnt==11 && nxt==10)
    34e2:	89 81       	ldd	r24, Y+1	; 0x01
    34e4:	9a 81       	ldd	r25, Y+2	; 0x02
    34e6:	4f 97       	sbiw	r24, 0x1f	; 31
    34e8:	61 f4       	brne	.+24     	; 0x3502 <decision+0xeda>
    34ea:	8b 81       	ldd	r24, Y+3	; 0x03
    34ec:	9c 81       	ldd	r25, Y+4	; 0x04
    34ee:	0b 97       	sbiw	r24, 0x0b	; 11
    34f0:	41 f4       	brne	.+16     	; 0x3502 <decision+0xeda>
    34f2:	8d 81       	ldd	r24, Y+5	; 0x05
    34f4:	9e 81       	ldd	r25, Y+6	; 0x06
    34f6:	0a 97       	sbiw	r24, 0x0a	; 10
    34f8:	21 f4       	brne	.+8      	; 0x3502 <decision+0xeda>
	{
		left_degrees(63);
    34fa:	8f e3       	ldi	r24, 0x3F	; 63
    34fc:	90 e0       	ldi	r25, 0x00	; 0
    34fe:	0e 94 80 0f 	call	0x1f00	; 0x1f00 <left_degrees>
	}
	if(prev==42 && prsnt==41 && nxt==40)
    3502:	89 81       	ldd	r24, Y+1	; 0x01
    3504:	9a 81       	ldd	r25, Y+2	; 0x02
    3506:	8a 97       	sbiw	r24, 0x2a	; 42
    3508:	61 f4       	brne	.+24     	; 0x3522 <decision+0xefa>
    350a:	8b 81       	ldd	r24, Y+3	; 0x03
    350c:	9c 81       	ldd	r25, Y+4	; 0x04
    350e:	89 97       	sbiw	r24, 0x29	; 41
    3510:	41 f4       	brne	.+16     	; 0x3522 <decision+0xefa>
    3512:	8d 81       	ldd	r24, Y+5	; 0x05
    3514:	9e 81       	ldd	r25, Y+6	; 0x06
    3516:	88 97       	sbiw	r24, 0x28	; 40
    3518:	21 f4       	brne	.+8      	; 0x3522 <decision+0xefa>
	{
		left_degrees(123);
    351a:	8b e7       	ldi	r24, 0x7B	; 123
    351c:	90 e0       	ldi	r25, 0x00	; 0
    351e:	0e 94 80 0f 	call	0x1f00	; 0x1f00 <left_degrees>
	}
	if(prev==40 && prsnt==41 && nxt==42)
    3522:	89 81       	ldd	r24, Y+1	; 0x01
    3524:	9a 81       	ldd	r25, Y+2	; 0x02
    3526:	88 97       	sbiw	r24, 0x28	; 40
    3528:	61 f4       	brne	.+24     	; 0x3542 <decision+0xf1a>
    352a:	8b 81       	ldd	r24, Y+3	; 0x03
    352c:	9c 81       	ldd	r25, Y+4	; 0x04
    352e:	89 97       	sbiw	r24, 0x29	; 41
    3530:	41 f4       	brne	.+16     	; 0x3542 <decision+0xf1a>
    3532:	8d 81       	ldd	r24, Y+5	; 0x05
    3534:	9e 81       	ldd	r25, Y+6	; 0x06
    3536:	8a 97       	sbiw	r24, 0x2a	; 42
    3538:	21 f4       	brne	.+8      	; 0x3542 <decision+0xf1a>
	{
		right_degrees(123);
    353a:	8b e7       	ldi	r24, 0x7B	; 123
    353c:	90 e0       	ldi	r25, 0x00	; 0
    353e:	0e 94 0f 10 	call	0x201e	; 0x201e <right_degrees>
	}
	if(prev==42 && prsnt==41 && nxt==32)
    3542:	89 81       	ldd	r24, Y+1	; 0x01
    3544:	9a 81       	ldd	r25, Y+2	; 0x02
    3546:	8a 97       	sbiw	r24, 0x2a	; 42
    3548:	61 f4       	brne	.+24     	; 0x3562 <decision+0xf3a>
    354a:	8b 81       	ldd	r24, Y+3	; 0x03
    354c:	9c 81       	ldd	r25, Y+4	; 0x04
    354e:	89 97       	sbiw	r24, 0x29	; 41
    3550:	41 f4       	brne	.+16     	; 0x3562 <decision+0xf3a>
    3552:	8d 81       	ldd	r24, Y+5	; 0x05
    3554:	9e 81       	ldd	r25, Y+6	; 0x06
    3556:	80 97       	sbiw	r24, 0x20	; 32
    3558:	21 f4       	brne	.+8      	; 0x3562 <decision+0xf3a>
	{
		left_degrees(123);
    355a:	8b e7       	ldi	r24, 0x7B	; 123
    355c:	90 e0       	ldi	r25, 0x00	; 0
    355e:	0e 94 80 0f 	call	0x1f00	; 0x1f00 <left_degrees>
	}
	if(prev==32 && prsnt==41 && nxt==42)
    3562:	89 81       	ldd	r24, Y+1	; 0x01
    3564:	9a 81       	ldd	r25, Y+2	; 0x02
    3566:	80 97       	sbiw	r24, 0x20	; 32
    3568:	61 f4       	brne	.+24     	; 0x3582 <decision+0xf5a>
    356a:	8b 81       	ldd	r24, Y+3	; 0x03
    356c:	9c 81       	ldd	r25, Y+4	; 0x04
    356e:	89 97       	sbiw	r24, 0x29	; 41
    3570:	41 f4       	brne	.+16     	; 0x3582 <decision+0xf5a>
    3572:	8d 81       	ldd	r24, Y+5	; 0x05
    3574:	9e 81       	ldd	r25, Y+6	; 0x06
    3576:	8a 97       	sbiw	r24, 0x2a	; 42
    3578:	21 f4       	brne	.+8      	; 0x3582 <decision+0xf5a>
	{
		left_degrees(63);
    357a:	8f e3       	ldi	r24, 0x3F	; 63
    357c:	90 e0       	ldi	r25, 0x00	; 0
    357e:	0e 94 80 0f 	call	0x1f00	; 0x1f00 <left_degrees>
	}
	if(prev==42 && prsnt==41 && nxt==33)
    3582:	89 81       	ldd	r24, Y+1	; 0x01
    3584:	9a 81       	ldd	r25, Y+2	; 0x02
    3586:	8a 97       	sbiw	r24, 0x2a	; 42
    3588:	61 f4       	brne	.+24     	; 0x35a2 <decision+0xf7a>
    358a:	8b 81       	ldd	r24, Y+3	; 0x03
    358c:	9c 81       	ldd	r25, Y+4	; 0x04
    358e:	89 97       	sbiw	r24, 0x29	; 41
    3590:	41 f4       	brne	.+16     	; 0x35a2 <decision+0xf7a>
    3592:	8d 81       	ldd	r24, Y+5	; 0x05
    3594:	9e 81       	ldd	r25, Y+6	; 0x06
    3596:	81 97       	sbiw	r24, 0x21	; 33
    3598:	21 f4       	brne	.+8      	; 0x35a2 <decision+0xf7a>
	{
		left_degrees(63);
    359a:	8f e3       	ldi	r24, 0x3F	; 63
    359c:	90 e0       	ldi	r25, 0x00	; 0
    359e:	0e 94 80 0f 	call	0x1f00	; 0x1f00 <left_degrees>
	}
	if(prev==33 && prsnt==41 && nxt==42)
    35a2:	89 81       	ldd	r24, Y+1	; 0x01
    35a4:	9a 81       	ldd	r25, Y+2	; 0x02
    35a6:	81 97       	sbiw	r24, 0x21	; 33
    35a8:	61 f4       	brne	.+24     	; 0x35c2 <decision+0xf9a>
    35aa:	8b 81       	ldd	r24, Y+3	; 0x03
    35ac:	9c 81       	ldd	r25, Y+4	; 0x04
    35ae:	89 97       	sbiw	r24, 0x29	; 41
    35b0:	41 f4       	brne	.+16     	; 0x35c2 <decision+0xf9a>
    35b2:	8d 81       	ldd	r24, Y+5	; 0x05
    35b4:	9e 81       	ldd	r25, Y+6	; 0x06
    35b6:	8a 97       	sbiw	r24, 0x2a	; 42
    35b8:	21 f4       	brne	.+8      	; 0x35c2 <decision+0xf9a>
	{
		right_degrees(63);
    35ba:	8f e3       	ldi	r24, 0x3F	; 63
    35bc:	90 e0       	ldi	r25, 0x00	; 0
    35be:	0e 94 0f 10 	call	0x201e	; 0x201e <right_degrees>
	}
	if(prev==32 && prsnt==41 && nxt==33)
    35c2:	89 81       	ldd	r24, Y+1	; 0x01
    35c4:	9a 81       	ldd	r25, Y+2	; 0x02
    35c6:	80 97       	sbiw	r24, 0x20	; 32
    35c8:	61 f4       	brne	.+24     	; 0x35e2 <decision+0xfba>
    35ca:	8b 81       	ldd	r24, Y+3	; 0x03
    35cc:	9c 81       	ldd	r25, Y+4	; 0x04
    35ce:	89 97       	sbiw	r24, 0x29	; 41
    35d0:	41 f4       	brne	.+16     	; 0x35e2 <decision+0xfba>
    35d2:	8d 81       	ldd	r24, Y+5	; 0x05
    35d4:	9e 81       	ldd	r25, Y+6	; 0x06
    35d6:	81 97       	sbiw	r24, 0x21	; 33
    35d8:	21 f4       	brne	.+8      	; 0x35e2 <decision+0xfba>
	{
		right_degrees(63);
    35da:	8f e3       	ldi	r24, 0x3F	; 63
    35dc:	90 e0       	ldi	r25, 0x00	; 0
    35de:	0e 94 0f 10 	call	0x201e	; 0x201e <right_degrees>
	}
	if(prev==33 && prsnt==41 && nxt==32)
    35e2:	89 81       	ldd	r24, Y+1	; 0x01
    35e4:	9a 81       	ldd	r25, Y+2	; 0x02
    35e6:	81 97       	sbiw	r24, 0x21	; 33
    35e8:	61 f4       	brne	.+24     	; 0x3602 <decision+0xfda>
    35ea:	8b 81       	ldd	r24, Y+3	; 0x03
    35ec:	9c 81       	ldd	r25, Y+4	; 0x04
    35ee:	89 97       	sbiw	r24, 0x29	; 41
    35f0:	41 f4       	brne	.+16     	; 0x3602 <decision+0xfda>
    35f2:	8d 81       	ldd	r24, Y+5	; 0x05
    35f4:	9e 81       	ldd	r25, Y+6	; 0x06
    35f6:	80 97       	sbiw	r24, 0x20	; 32
    35f8:	21 f4       	brne	.+8      	; 0x3602 <decision+0xfda>
	{
		left_degrees(63);
    35fa:	8f e3       	ldi	r24, 0x3F	; 63
    35fc:	90 e0       	ldi	r25, 0x00	; 0
    35fe:	0e 94 80 0f 	call	0x1f00	; 0x1f00 <left_degrees>
	}
	if(prev==33 && prsnt==41 && nxt==40)
    3602:	89 81       	ldd	r24, Y+1	; 0x01
    3604:	9a 81       	ldd	r25, Y+2	; 0x02
    3606:	81 97       	sbiw	r24, 0x21	; 33
    3608:	61 f4       	brne	.+24     	; 0x3622 <decision+0xffa>
    360a:	8b 81       	ldd	r24, Y+3	; 0x03
    360c:	9c 81       	ldd	r25, Y+4	; 0x04
    360e:	89 97       	sbiw	r24, 0x29	; 41
    3610:	41 f4       	brne	.+16     	; 0x3622 <decision+0xffa>
    3612:	8d 81       	ldd	r24, Y+5	; 0x05
    3614:	9e 81       	ldd	r25, Y+6	; 0x06
    3616:	88 97       	sbiw	r24, 0x28	; 40
    3618:	21 f4       	brne	.+8      	; 0x3622 <decision+0xffa>
	{
		right_degrees(123);
    361a:	8b e7       	ldi	r24, 0x7B	; 123
    361c:	90 e0       	ldi	r25, 0x00	; 0
    361e:	0e 94 0f 10 	call	0x201e	; 0x201e <right_degrees>
	}
	if(prev==40 && prsnt==41 && nxt==33)
    3622:	89 81       	ldd	r24, Y+1	; 0x01
    3624:	9a 81       	ldd	r25, Y+2	; 0x02
    3626:	88 97       	sbiw	r24, 0x28	; 40
    3628:	61 f4       	brne	.+24     	; 0x3642 <decision+0x101a>
    362a:	8b 81       	ldd	r24, Y+3	; 0x03
    362c:	9c 81       	ldd	r25, Y+4	; 0x04
    362e:	89 97       	sbiw	r24, 0x29	; 41
    3630:	41 f4       	brne	.+16     	; 0x3642 <decision+0x101a>
    3632:	8d 81       	ldd	r24, Y+5	; 0x05
    3634:	9e 81       	ldd	r25, Y+6	; 0x06
    3636:	81 97       	sbiw	r24, 0x21	; 33
    3638:	21 f4       	brne	.+8      	; 0x3642 <decision+0x101a>
	{
		left_degrees(123);
    363a:	8b e7       	ldi	r24, 0x7B	; 123
    363c:	90 e0       	ldi	r25, 0x00	; 0
    363e:	0e 94 80 0f 	call	0x1f00	; 0x1f00 <left_degrees>
	}
	if(prev==6 && prsnt==7 && nxt==34)
    3642:	89 81       	ldd	r24, Y+1	; 0x01
    3644:	9a 81       	ldd	r25, Y+2	; 0x02
    3646:	06 97       	sbiw	r24, 0x06	; 6
    3648:	61 f4       	brne	.+24     	; 0x3662 <decision+0x103a>
    364a:	8b 81       	ldd	r24, Y+3	; 0x03
    364c:	9c 81       	ldd	r25, Y+4	; 0x04
    364e:	07 97       	sbiw	r24, 0x07	; 7
    3650:	41 f4       	brne	.+16     	; 0x3662 <decision+0x103a>
    3652:	8d 81       	ldd	r24, Y+5	; 0x05
    3654:	9e 81       	ldd	r25, Y+6	; 0x06
    3656:	82 97       	sbiw	r24, 0x22	; 34
    3658:	21 f4       	brne	.+8      	; 0x3662 <decision+0x103a>
	{
		right_degrees(123);
    365a:	8b e7       	ldi	r24, 0x7B	; 123
    365c:	90 e0       	ldi	r25, 0x00	; 0
    365e:	0e 94 0f 10 	call	0x201e	; 0x201e <right_degrees>
	}
	if(prev==34 && prsnt==7 && nxt==6)
    3662:	89 81       	ldd	r24, Y+1	; 0x01
    3664:	9a 81       	ldd	r25, Y+2	; 0x02
    3666:	82 97       	sbiw	r24, 0x22	; 34
    3668:	61 f4       	brne	.+24     	; 0x3682 <decision+0x105a>
    366a:	8b 81       	ldd	r24, Y+3	; 0x03
    366c:	9c 81       	ldd	r25, Y+4	; 0x04
    366e:	07 97       	sbiw	r24, 0x07	; 7
    3670:	41 f4       	brne	.+16     	; 0x3682 <decision+0x105a>
    3672:	8d 81       	ldd	r24, Y+5	; 0x05
    3674:	9e 81       	ldd	r25, Y+6	; 0x06
    3676:	06 97       	sbiw	r24, 0x06	; 6
    3678:	21 f4       	brne	.+8      	; 0x3682 <decision+0x105a>
	{
		left_degrees(125);
    367a:	8d e7       	ldi	r24, 0x7D	; 125
    367c:	90 e0       	ldi	r25, 0x00	; 0
    367e:	0e 94 80 0f 	call	0x1f00	; 0x1f00 <left_degrees>
	}
	if(prev==6 && prsnt==7 && nxt==33)
    3682:	89 81       	ldd	r24, Y+1	; 0x01
    3684:	9a 81       	ldd	r25, Y+2	; 0x02
    3686:	06 97       	sbiw	r24, 0x06	; 6
    3688:	61 f4       	brne	.+24     	; 0x36a2 <decision+0x107a>
    368a:	8b 81       	ldd	r24, Y+3	; 0x03
    368c:	9c 81       	ldd	r25, Y+4	; 0x04
    368e:	07 97       	sbiw	r24, 0x07	; 7
    3690:	41 f4       	brne	.+16     	; 0x36a2 <decision+0x107a>
    3692:	8d 81       	ldd	r24, Y+5	; 0x05
    3694:	9e 81       	ldd	r25, Y+6	; 0x06
    3696:	81 97       	sbiw	r24, 0x21	; 33
    3698:	21 f4       	brne	.+8      	; 0x36a2 <decision+0x107a>
	{
		right_degrees(63);
    369a:	8f e3       	ldi	r24, 0x3F	; 63
    369c:	90 e0       	ldi	r25, 0x00	; 0
    369e:	0e 94 0f 10 	call	0x201e	; 0x201e <right_degrees>
	}
	if(prev==33 && prsnt==7 && nxt==6)
    36a2:	89 81       	ldd	r24, Y+1	; 0x01
    36a4:	9a 81       	ldd	r25, Y+2	; 0x02
    36a6:	81 97       	sbiw	r24, 0x21	; 33
    36a8:	61 f4       	brne	.+24     	; 0x36c2 <decision+0x109a>
    36aa:	8b 81       	ldd	r24, Y+3	; 0x03
    36ac:	9c 81       	ldd	r25, Y+4	; 0x04
    36ae:	07 97       	sbiw	r24, 0x07	; 7
    36b0:	41 f4       	brne	.+16     	; 0x36c2 <decision+0x109a>
    36b2:	8d 81       	ldd	r24, Y+5	; 0x05
    36b4:	9e 81       	ldd	r25, Y+6	; 0x06
    36b6:	06 97       	sbiw	r24, 0x06	; 6
    36b8:	21 f4       	brne	.+8      	; 0x36c2 <decision+0x109a>
	{
		left_degrees(63);
    36ba:	8f e3       	ldi	r24, 0x3F	; 63
    36bc:	90 e0       	ldi	r25, 0x00	; 0
    36be:	0e 94 80 0f 	call	0x1f00	; 0x1f00 <left_degrees>
	}
	if(prev==34 && prsnt==7 && nxt==33)
    36c2:	89 81       	ldd	r24, Y+1	; 0x01
    36c4:	9a 81       	ldd	r25, Y+2	; 0x02
    36c6:	82 97       	sbiw	r24, 0x22	; 34
    36c8:	61 f4       	brne	.+24     	; 0x36e2 <decision+0x10ba>
    36ca:	8b 81       	ldd	r24, Y+3	; 0x03
    36cc:	9c 81       	ldd	r25, Y+4	; 0x04
    36ce:	07 97       	sbiw	r24, 0x07	; 7
    36d0:	41 f4       	brne	.+16     	; 0x36e2 <decision+0x10ba>
    36d2:	8d 81       	ldd	r24, Y+5	; 0x05
    36d4:	9e 81       	ldd	r25, Y+6	; 0x06
    36d6:	81 97       	sbiw	r24, 0x21	; 33
    36d8:	21 f4       	brne	.+8      	; 0x36e2 <decision+0x10ba>
	{
		right_degrees(123);
    36da:	8b e7       	ldi	r24, 0x7B	; 123
    36dc:	90 e0       	ldi	r25, 0x00	; 0
    36de:	0e 94 0f 10 	call	0x201e	; 0x201e <right_degrees>
	}
	if(prev==33 && prsnt==7 && nxt==34)
    36e2:	89 81       	ldd	r24, Y+1	; 0x01
    36e4:	9a 81       	ldd	r25, Y+2	; 0x02
    36e6:	81 97       	sbiw	r24, 0x21	; 33
    36e8:	61 f4       	brne	.+24     	; 0x3702 <decision+0x10da>
    36ea:	8b 81       	ldd	r24, Y+3	; 0x03
    36ec:	9c 81       	ldd	r25, Y+4	; 0x04
    36ee:	07 97       	sbiw	r24, 0x07	; 7
    36f0:	41 f4       	brne	.+16     	; 0x3702 <decision+0x10da>
    36f2:	8d 81       	ldd	r24, Y+5	; 0x05
    36f4:	9e 81       	ldd	r25, Y+6	; 0x06
    36f6:	82 97       	sbiw	r24, 0x22	; 34
    36f8:	21 f4       	brne	.+8      	; 0x3702 <decision+0x10da>
	{
		left_degrees(123);
    36fa:	8b e7       	ldi	r24, 0x7B	; 123
    36fc:	90 e0       	ldi	r25, 0x00	; 0
    36fe:	0e 94 80 0f 	call	0x1f00	; 0x1f00 <left_degrees>
	}
	if(prev==8 && prsnt==7 && nxt==33)
    3702:	89 81       	ldd	r24, Y+1	; 0x01
    3704:	9a 81       	ldd	r25, Y+2	; 0x02
    3706:	08 97       	sbiw	r24, 0x08	; 8
    3708:	61 f4       	brne	.+24     	; 0x3722 <decision+0x10fa>
    370a:	8b 81       	ldd	r24, Y+3	; 0x03
    370c:	9c 81       	ldd	r25, Y+4	; 0x04
    370e:	07 97       	sbiw	r24, 0x07	; 7
    3710:	41 f4       	brne	.+16     	; 0x3722 <decision+0x10fa>
    3712:	8d 81       	ldd	r24, Y+5	; 0x05
    3714:	9e 81       	ldd	r25, Y+6	; 0x06
    3716:	81 97       	sbiw	r24, 0x21	; 33
    3718:	21 f4       	brne	.+8      	; 0x3722 <decision+0x10fa>
	{
		left_degrees(123);
    371a:	8b e7       	ldi	r24, 0x7B	; 123
    371c:	90 e0       	ldi	r25, 0x00	; 0
    371e:	0e 94 80 0f 	call	0x1f00	; 0x1f00 <left_degrees>
	}
	if(prev==33 && prsnt==7 && nxt==8)
    3722:	89 81       	ldd	r24, Y+1	; 0x01
    3724:	9a 81       	ldd	r25, Y+2	; 0x02
    3726:	81 97       	sbiw	r24, 0x21	; 33
    3728:	61 f4       	brne	.+24     	; 0x3742 <decision+0x111a>
    372a:	8b 81       	ldd	r24, Y+3	; 0x03
    372c:	9c 81       	ldd	r25, Y+4	; 0x04
    372e:	07 97       	sbiw	r24, 0x07	; 7
    3730:	41 f4       	brne	.+16     	; 0x3742 <decision+0x111a>
    3732:	8d 81       	ldd	r24, Y+5	; 0x05
    3734:	9e 81       	ldd	r25, Y+6	; 0x06
    3736:	08 97       	sbiw	r24, 0x08	; 8
    3738:	21 f4       	brne	.+8      	; 0x3742 <decision+0x111a>
	{
		right_degrees(125);
    373a:	8d e7       	ldi	r24, 0x7D	; 125
    373c:	90 e0       	ldi	r25, 0x00	; 0
    373e:	0e 94 0f 10 	call	0x201e	; 0x201e <right_degrees>
	}
	if(prev==8 && prsnt==7 && nxt==34)
    3742:	89 81       	ldd	r24, Y+1	; 0x01
    3744:	9a 81       	ldd	r25, Y+2	; 0x02
    3746:	08 97       	sbiw	r24, 0x08	; 8
    3748:	61 f4       	brne	.+24     	; 0x3762 <decision+0x113a>
    374a:	8b 81       	ldd	r24, Y+3	; 0x03
    374c:	9c 81       	ldd	r25, Y+4	; 0x04
    374e:	07 97       	sbiw	r24, 0x07	; 7
    3750:	41 f4       	brne	.+16     	; 0x3762 <decision+0x113a>
    3752:	8d 81       	ldd	r24, Y+5	; 0x05
    3754:	9e 81       	ldd	r25, Y+6	; 0x06
    3756:	82 97       	sbiw	r24, 0x22	; 34
    3758:	21 f4       	brne	.+8      	; 0x3762 <decision+0x113a>
	{
		left_degrees(63);
    375a:	8f e3       	ldi	r24, 0x3F	; 63
    375c:	90 e0       	ldi	r25, 0x00	; 0
    375e:	0e 94 80 0f 	call	0x1f00	; 0x1f00 <left_degrees>
	}
	if(prev==34 && prsnt==7 && nxt==8)
    3762:	89 81       	ldd	r24, Y+1	; 0x01
    3764:	9a 81       	ldd	r25, Y+2	; 0x02
    3766:	82 97       	sbiw	r24, 0x22	; 34
    3768:	61 f4       	brne	.+24     	; 0x3782 <decision+0x115a>
    376a:	8b 81       	ldd	r24, Y+3	; 0x03
    376c:	9c 81       	ldd	r25, Y+4	; 0x04
    376e:	07 97       	sbiw	r24, 0x07	; 7
    3770:	41 f4       	brne	.+16     	; 0x3782 <decision+0x115a>
    3772:	8d 81       	ldd	r24, Y+5	; 0x05
    3774:	9e 81       	ldd	r25, Y+6	; 0x06
    3776:	08 97       	sbiw	r24, 0x08	; 8
    3778:	21 f4       	brne	.+8      	; 0x3782 <decision+0x115a>
	{
		right_degrees(63);
    377a:	8f e3       	ldi	r24, 0x3F	; 63
    377c:	90 e0       	ldi	r25, 0x00	; 0
    377e:	0e 94 0f 10 	call	0x201e	; 0x201e <right_degrees>
	}//extra conditions for hexagon
	if (prev==37 && prsnt==38 && nxt==39)
    3782:	89 81       	ldd	r24, Y+1	; 0x01
    3784:	9a 81       	ldd	r25, Y+2	; 0x02
    3786:	85 97       	sbiw	r24, 0x25	; 37
    3788:	61 f4       	brne	.+24     	; 0x37a2 <decision+0x117a>
    378a:	8b 81       	ldd	r24, Y+3	; 0x03
    378c:	9c 81       	ldd	r25, Y+4	; 0x04
    378e:	86 97       	sbiw	r24, 0x26	; 38
    3790:	41 f4       	brne	.+16     	; 0x37a2 <decision+0x117a>
    3792:	8d 81       	ldd	r24, Y+5	; 0x05
    3794:	9e 81       	ldd	r25, Y+6	; 0x06
    3796:	87 97       	sbiw	r24, 0x27	; 39
    3798:	21 f4       	brne	.+8      	; 0x37a2 <decision+0x117a>
	{
		left_degrees(63);
    379a:	8f e3       	ldi	r24, 0x3F	; 63
    379c:	90 e0       	ldi	r25, 0x00	; 0
    379e:	0e 94 80 0f 	call	0x1f00	; 0x1f00 <left_degrees>
	}
	if (prev==38 && prsnt==39 && nxt==40)
    37a2:	89 81       	ldd	r24, Y+1	; 0x01
    37a4:	9a 81       	ldd	r25, Y+2	; 0x02
    37a6:	86 97       	sbiw	r24, 0x26	; 38
    37a8:	61 f4       	brne	.+24     	; 0x37c2 <decision+0x119a>
    37aa:	8b 81       	ldd	r24, Y+3	; 0x03
    37ac:	9c 81       	ldd	r25, Y+4	; 0x04
    37ae:	87 97       	sbiw	r24, 0x27	; 39
    37b0:	41 f4       	brne	.+16     	; 0x37c2 <decision+0x119a>
    37b2:	8d 81       	ldd	r24, Y+5	; 0x05
    37b4:	9e 81       	ldd	r25, Y+6	; 0x06
    37b6:	88 97       	sbiw	r24, 0x28	; 40
    37b8:	21 f4       	brne	.+8      	; 0x37c2 <decision+0x119a>
	{
		left_degrees(63);
    37ba:	8f e3       	ldi	r24, 0x3F	; 63
    37bc:	90 e0       	ldi	r25, 0x00	; 0
    37be:	0e 94 80 0f 	call	0x1f00	; 0x1f00 <left_degrees>
	}
	if (prev==40 && prsnt==39 && nxt==38)
    37c2:	89 81       	ldd	r24, Y+1	; 0x01
    37c4:	9a 81       	ldd	r25, Y+2	; 0x02
    37c6:	88 97       	sbiw	r24, 0x28	; 40
    37c8:	61 f4       	brne	.+24     	; 0x37e2 <decision+0x11ba>
    37ca:	8b 81       	ldd	r24, Y+3	; 0x03
    37cc:	9c 81       	ldd	r25, Y+4	; 0x04
    37ce:	87 97       	sbiw	r24, 0x27	; 39
    37d0:	41 f4       	brne	.+16     	; 0x37e2 <decision+0x11ba>
    37d2:	8d 81       	ldd	r24, Y+5	; 0x05
    37d4:	9e 81       	ldd	r25, Y+6	; 0x06
    37d6:	86 97       	sbiw	r24, 0x26	; 38
    37d8:	21 f4       	brne	.+8      	; 0x37e2 <decision+0x11ba>
	{
		right_degrees(63);
    37da:	8f e3       	ldi	r24, 0x3F	; 63
    37dc:	90 e0       	ldi	r25, 0x00	; 0
    37de:	0e 94 0f 10 	call	0x201e	; 0x201e <right_degrees>
	}
	if (prev==39 && prsnt==38 && nxt==37)
    37e2:	89 81       	ldd	r24, Y+1	; 0x01
    37e4:	9a 81       	ldd	r25, Y+2	; 0x02
    37e6:	87 97       	sbiw	r24, 0x27	; 39
    37e8:	61 f4       	brne	.+24     	; 0x3802 <decision+0x11da>
    37ea:	8b 81       	ldd	r24, Y+3	; 0x03
    37ec:	9c 81       	ldd	r25, Y+4	; 0x04
    37ee:	86 97       	sbiw	r24, 0x26	; 38
    37f0:	41 f4       	brne	.+16     	; 0x3802 <decision+0x11da>
    37f2:	8d 81       	ldd	r24, Y+5	; 0x05
    37f4:	9e 81       	ldd	r25, Y+6	; 0x06
    37f6:	85 97       	sbiw	r24, 0x25	; 37
    37f8:	21 f4       	brne	.+8      	; 0x3802 <decision+0x11da>
	{
		right_degrees(63);
    37fa:	8f e3       	ldi	r24, 0x3F	; 63
    37fc:	90 e0       	ldi	r25, 0x00	; 0
    37fe:	0e 94 0f 10 	call	0x201e	; 0x201e <right_degrees>
	}
	if (prev==48 && prsnt==47 && nxt==46)
    3802:	89 81       	ldd	r24, Y+1	; 0x01
    3804:	9a 81       	ldd	r25, Y+2	; 0x02
    3806:	c0 97       	sbiw	r24, 0x30	; 48
    3808:	61 f4       	brne	.+24     	; 0x3822 <decision+0x11fa>
    380a:	8b 81       	ldd	r24, Y+3	; 0x03
    380c:	9c 81       	ldd	r25, Y+4	; 0x04
    380e:	8f 97       	sbiw	r24, 0x2f	; 47
    3810:	41 f4       	brne	.+16     	; 0x3822 <decision+0x11fa>
    3812:	8d 81       	ldd	r24, Y+5	; 0x05
    3814:	9e 81       	ldd	r25, Y+6	; 0x06
    3816:	8e 97       	sbiw	r24, 0x2e	; 46
    3818:	21 f4       	brne	.+8      	; 0x3822 <decision+0x11fa>
	{
		right_degrees(63);
    381a:	8f e3       	ldi	r24, 0x3F	; 63
    381c:	90 e0       	ldi	r25, 0x00	; 0
    381e:	0e 94 0f 10 	call	0x201e	; 0x201e <right_degrees>
	}
	if (prev==47 && prsnt==46 && nxt==45)
    3822:	89 81       	ldd	r24, Y+1	; 0x01
    3824:	9a 81       	ldd	r25, Y+2	; 0x02
    3826:	8f 97       	sbiw	r24, 0x2f	; 47
    3828:	61 f4       	brne	.+24     	; 0x3842 <decision+0x121a>
    382a:	8b 81       	ldd	r24, Y+3	; 0x03
    382c:	9c 81       	ldd	r25, Y+4	; 0x04
    382e:	8e 97       	sbiw	r24, 0x2e	; 46
    3830:	41 f4       	brne	.+16     	; 0x3842 <decision+0x121a>
    3832:	8d 81       	ldd	r24, Y+5	; 0x05
    3834:	9e 81       	ldd	r25, Y+6	; 0x06
    3836:	8d 97       	sbiw	r24, 0x2d	; 45
    3838:	21 f4       	brne	.+8      	; 0x3842 <decision+0x121a>
	{
		right_degrees(63);
    383a:	8f e3       	ldi	r24, 0x3F	; 63
    383c:	90 e0       	ldi	r25, 0x00	; 0
    383e:	0e 94 0f 10 	call	0x201e	; 0x201e <right_degrees>
	}
	if (prev==45 && prsnt==46 && nxt==47)
    3842:	89 81       	ldd	r24, Y+1	; 0x01
    3844:	9a 81       	ldd	r25, Y+2	; 0x02
    3846:	8d 97       	sbiw	r24, 0x2d	; 45
    3848:	61 f4       	brne	.+24     	; 0x3862 <decision+0x123a>
    384a:	8b 81       	ldd	r24, Y+3	; 0x03
    384c:	9c 81       	ldd	r25, Y+4	; 0x04
    384e:	8e 97       	sbiw	r24, 0x2e	; 46
    3850:	41 f4       	brne	.+16     	; 0x3862 <decision+0x123a>
    3852:	8d 81       	ldd	r24, Y+5	; 0x05
    3854:	9e 81       	ldd	r25, Y+6	; 0x06
    3856:	8f 97       	sbiw	r24, 0x2f	; 47
    3858:	21 f4       	brne	.+8      	; 0x3862 <decision+0x123a>
	{
		left_degrees(63);
    385a:	8f e3       	ldi	r24, 0x3F	; 63
    385c:	90 e0       	ldi	r25, 0x00	; 0
    385e:	0e 94 80 0f 	call	0x1f00	; 0x1f00 <left_degrees>
	}
	if (prev==46 && prsnt==47 && nxt==48)
    3862:	89 81       	ldd	r24, Y+1	; 0x01
    3864:	9a 81       	ldd	r25, Y+2	; 0x02
    3866:	8e 97       	sbiw	r24, 0x2e	; 46
    3868:	61 f4       	brne	.+24     	; 0x3882 <decision+0x125a>
    386a:	8b 81       	ldd	r24, Y+3	; 0x03
    386c:	9c 81       	ldd	r25, Y+4	; 0x04
    386e:	8f 97       	sbiw	r24, 0x2f	; 47
    3870:	41 f4       	brne	.+16     	; 0x3882 <decision+0x125a>
    3872:	8d 81       	ldd	r24, Y+5	; 0x05
    3874:	9e 81       	ldd	r25, Y+6	; 0x06
    3876:	c0 97       	sbiw	r24, 0x30	; 48
    3878:	21 f4       	brne	.+8      	; 0x3882 <decision+0x125a>
	{
		left_degrees(63);
    387a:	8f e3       	ldi	r24, 0x3F	; 63
    387c:	90 e0       	ldi	r25, 0x00	; 0
    387e:	0e 94 80 0f 	call	0x1f00	; 0x1f00 <left_degrees>
	}
	if (prev==44 && prsnt==43 && nxt==42)
    3882:	89 81       	ldd	r24, Y+1	; 0x01
    3884:	9a 81       	ldd	r25, Y+2	; 0x02
    3886:	8c 97       	sbiw	r24, 0x2c	; 44
    3888:	61 f4       	brne	.+24     	; 0x38a2 <decision+0x127a>
    388a:	8b 81       	ldd	r24, Y+3	; 0x03
    388c:	9c 81       	ldd	r25, Y+4	; 0x04
    388e:	8b 97       	sbiw	r24, 0x2b	; 43
    3890:	41 f4       	brne	.+16     	; 0x38a2 <decision+0x127a>
    3892:	8d 81       	ldd	r24, Y+5	; 0x05
    3894:	9e 81       	ldd	r25, Y+6	; 0x06
    3896:	8a 97       	sbiw	r24, 0x2a	; 42
    3898:	21 f4       	brne	.+8      	; 0x38a2 <decision+0x127a>
	{
		right_degrees(63);
    389a:	8f e3       	ldi	r24, 0x3F	; 63
    389c:	90 e0       	ldi	r25, 0x00	; 0
    389e:	0e 94 0f 10 	call	0x201e	; 0x201e <right_degrees>
	}
	if (prev==43 && prsnt==42 && nxt==41)
    38a2:	89 81       	ldd	r24, Y+1	; 0x01
    38a4:	9a 81       	ldd	r25, Y+2	; 0x02
    38a6:	8b 97       	sbiw	r24, 0x2b	; 43
    38a8:	61 f4       	brne	.+24     	; 0x38c2 <decision+0x129a>
    38aa:	8b 81       	ldd	r24, Y+3	; 0x03
    38ac:	9c 81       	ldd	r25, Y+4	; 0x04
    38ae:	8a 97       	sbiw	r24, 0x2a	; 42
    38b0:	41 f4       	brne	.+16     	; 0x38c2 <decision+0x129a>
    38b2:	8d 81       	ldd	r24, Y+5	; 0x05
    38b4:	9e 81       	ldd	r25, Y+6	; 0x06
    38b6:	89 97       	sbiw	r24, 0x29	; 41
    38b8:	21 f4       	brne	.+8      	; 0x38c2 <decision+0x129a>
	{
		right_degrees(63);
    38ba:	8f e3       	ldi	r24, 0x3F	; 63
    38bc:	90 e0       	ldi	r25, 0x00	; 0
    38be:	0e 94 0f 10 	call	0x201e	; 0x201e <right_degrees>
	}
	if (prev==41 && prsnt==42 && nxt==43)
    38c2:	89 81       	ldd	r24, Y+1	; 0x01
    38c4:	9a 81       	ldd	r25, Y+2	; 0x02
    38c6:	89 97       	sbiw	r24, 0x29	; 41
    38c8:	61 f4       	brne	.+24     	; 0x38e2 <decision+0x12ba>
    38ca:	8b 81       	ldd	r24, Y+3	; 0x03
    38cc:	9c 81       	ldd	r25, Y+4	; 0x04
    38ce:	8a 97       	sbiw	r24, 0x2a	; 42
    38d0:	41 f4       	brne	.+16     	; 0x38e2 <decision+0x12ba>
    38d2:	8d 81       	ldd	r24, Y+5	; 0x05
    38d4:	9e 81       	ldd	r25, Y+6	; 0x06
    38d6:	8b 97       	sbiw	r24, 0x2b	; 43
    38d8:	21 f4       	brne	.+8      	; 0x38e2 <decision+0x12ba>
	{
		left_degrees(63);
    38da:	8f e3       	ldi	r24, 0x3F	; 63
    38dc:	90 e0       	ldi	r25, 0x00	; 0
    38de:	0e 94 80 0f 	call	0x1f00	; 0x1f00 <left_degrees>
	}
	if (prev==42 && prsnt==43 && nxt==44)
    38e2:	89 81       	ldd	r24, Y+1	; 0x01
    38e4:	9a 81       	ldd	r25, Y+2	; 0x02
    38e6:	8a 97       	sbiw	r24, 0x2a	; 42
    38e8:	61 f4       	brne	.+24     	; 0x3902 <decision+0x12da>
    38ea:	8b 81       	ldd	r24, Y+3	; 0x03
    38ec:	9c 81       	ldd	r25, Y+4	; 0x04
    38ee:	8b 97       	sbiw	r24, 0x2b	; 43
    38f0:	41 f4       	brne	.+16     	; 0x3902 <decision+0x12da>
    38f2:	8d 81       	ldd	r24, Y+5	; 0x05
    38f4:	9e 81       	ldd	r25, Y+6	; 0x06
    38f6:	8c 97       	sbiw	r24, 0x2c	; 44
    38f8:	21 f4       	brne	.+8      	; 0x3902 <decision+0x12da>
	{
		left_degrees(63);
    38fa:	8f e3       	ldi	r24, 0x3F	; 63
    38fc:	90 e0       	ldi	r25, 0x00	; 0
    38fe:	0e 94 80 0f 	call	0x1f00	; 0x1f00 <left_degrees>
	}
	
	
	if(prev==nxt)
    3902:	29 81       	ldd	r18, Y+1	; 0x01
    3904:	3a 81       	ldd	r19, Y+2	; 0x02
    3906:	8d 81       	ldd	r24, Y+5	; 0x05
    3908:	9e 81       	ldd	r25, Y+6	; 0x06
    390a:	28 17       	cp	r18, r24
    390c:	39 07       	cpc	r19, r25
    390e:	21 f4       	brne	.+8      	; 0x3918 <decision+0x12f0>
	{
		right_degrees(186);
    3910:	8a eb       	ldi	r24, 0xBA	; 186
    3912:	90 e0       	ldi	r25, 0x00	; 0
    3914:	0e 94 0f 10 	call	0x201e	; 0x201e <right_degrees>
	}
	
}
    3918:	26 96       	adiw	r28, 0x06	; 6
    391a:	0f b6       	in	r0, 0x3f	; 63
    391c:	f8 94       	cli
    391e:	de bf       	out	0x3e, r29	; 62
    3920:	0f be       	out	0x3f, r0	; 63
    3922:	cd bf       	out	0x3d, r28	; 61
    3924:	df 91       	pop	r29
    3926:	cf 91       	pop	r28
    3928:	08 95       	ret

0000392a <main>:


//Main Function
int main()
{	
    392a:	0f 93       	push	r16
    392c:	1f 93       	push	r17
    392e:	cf 93       	push	r28
    3930:	df 93       	push	r29
    3932:	cd b7       	in	r28, 0x3d	; 61
    3934:	de b7       	in	r29, 0x3e	; 62
    3936:	c6 5c       	subi	r28, 0xC6	; 198
    3938:	d1 09       	sbc	r29, r1
    393a:	0f b6       	in	r0, 0x3f	; 63
    393c:	f8 94       	cli
    393e:	de bf       	out	0x3e, r29	; 62
    3940:	0f be       	out	0x3f, r0	; 63
    3942:	cd bf       	out	0x3d, r28	; 61
				
	init_devices();
    3944:	0e 94 4c 12 	call	0x2498	; 0x2498 <init_devices>
	lcd_set_4bit();
    3948:	0e 94 94 00 	call	0x128	; 0x128 <lcd_set_4bit>
	lcd_init();
    394c:	0e 94 1a 06 	call	0xc34	; 0xc34 <lcd_init>
	horizontal();
    3950:	0e 94 a7 12 	call	0x254e	; 0x254e <horizontal>
	float lprev=100;//stores the previous value of left white sensor
    3954:	80 e0       	ldi	r24, 0x00	; 0
    3956:	90 e0       	ldi	r25, 0x00	; 0
    3958:	a8 ec       	ldi	r26, 0xC8	; 200
    395a:	b2 e4       	ldi	r27, 0x42	; 66
    395c:	89 83       	std	Y+1, r24	; 0x01
    395e:	9a 83       	std	Y+2, r25	; 0x02
    3960:	ab 83       	std	Y+3, r26	; 0x03
    3962:	bc 83       	std	Y+4, r27	; 0x04
	float rprev=100;//stores the previous value of right white sensor
    3964:	80 e0       	ldi	r24, 0x00	; 0
    3966:	90 e0       	ldi	r25, 0x00	; 0
    3968:	a8 ec       	ldi	r26, 0xC8	; 200
    396a:	b2 e4       	ldi	r27, 0x42	; 66
    396c:	8d 83       	std	Y+5, r24	; 0x05
    396e:	9e 83       	std	Y+6, r25	; 0x06
    3970:	af 83       	std	Y+7, r26	; 0x07
    3972:	b8 87       	std	Y+8, r27	; 0x08
	float cprev=100;//stores the previous value of center white sensor
    3974:	80 e0       	ldi	r24, 0x00	; 0
    3976:	90 e0       	ldi	r25, 0x00	; 0
    3978:	a8 ec       	ldi	r26, 0xC8	; 200
    397a:	b2 e4       	ldi	r27, 0x42	; 66
    397c:	89 87       	std	Y+9, r24	; 0x09
    397e:	9a 87       	std	Y+10, r25	; 0x0a
    3980:	ab 87       	std	Y+11, r26	; 0x0b
    3982:	bc 87       	std	Y+12, r27	; 0x0c
	float l,c,r;
	int p=0,i,j,k,threshold=40,start,dest,steps=1,boot=0,sharp;
    3984:	1e 86       	std	Y+14, r1	; 0x0e
    3986:	1d 86       	std	Y+13, r1	; 0x0d
    3988:	88 e2       	ldi	r24, 0x28	; 40
    398a:	90 e0       	ldi	r25, 0x00	; 0
    398c:	9a a7       	std	Y+42, r25	; 0x2a
    398e:	89 a7       	std	Y+41, r24	; 0x29
    3990:	81 e0       	ldi	r24, 0x01	; 1
    3992:	90 e0       	ldi	r25, 0x00	; 0
    3994:	9e 8b       	std	Y+22, r25	; 0x16
    3996:	8d 8b       	std	Y+21, r24	; 0x15
    3998:	18 8e       	std	Y+24, r1	; 0x18
    399a:	1f 8a       	std	Y+23, r1	; 0x17
	int prev=0,prsnt=13,nxt=0,len1,len2,z=0,temp_dest=0,temp_len1=0,temp_len2=0;// denotes the position of nodesi.e. previous, present , next
    399c:	1a 8e       	std	Y+26, r1	; 0x1a
    399e:	19 8e       	std	Y+25, r1	; 0x19
    39a0:	8d e0       	ldi	r24, 0x0D	; 13
    39a2:	90 e0       	ldi	r25, 0x00	; 0
    39a4:	9c 8f       	std	Y+28, r25	; 0x1c
    39a6:	8b 8f       	std	Y+27, r24	; 0x1b
    39a8:	1c a6       	std	Y+44, r1	; 0x2c
    39aa:	1b a6       	std	Y+43, r1	; 0x2b
    39ac:	1a a2       	std	Y+34, r1	; 0x22
    39ae:	19 a2       	std	Y+33, r1	; 0x21
    39b0:	1e a6       	std	Y+46, r1	; 0x2e
    39b2:	1d a6       	std	Y+45, r1	; 0x2d
    39b4:	1c a2       	std	Y+36, r1	; 0x24
    39b6:	1b a2       	std	Y+35, r1	; 0x23
    39b8:	1e a2       	std	Y+38, r1	; 0x26
    39ba:	1d a2       	std	Y+37, r1	; 0x25
	int filtered_nodes[33];
	
		count=0;
    39bc:	10 92 03 14 	sts	0x1403, r1	; 0x801403 <count+0x1>
    39c0:	10 92 02 14 	sts	0x1402, r1	; 0x801402 <count>
		
		while(boot==0)
    39c4:	0d c0       	rjmp	.+26     	; 0x39e0 <main+0xb6>
		{
			if ((PINE & 0x80)==0x80)
    39c6:	8c e2       	ldi	r24, 0x2C	; 44
    39c8:	90 e0       	ldi	r25, 0x00	; 0
    39ca:	fc 01       	movw	r30, r24
    39cc:	80 81       	ld	r24, Z
    39ce:	88 23       	and	r24, r24
    39d0:	1c f4       	brge	.+6      	; 0x39d8 <main+0xae>
			{
				boot=0;
    39d2:	18 8e       	std	Y+24, r1	; 0x18
    39d4:	1f 8a       	std	Y+23, r1	; 0x17
    39d6:	04 c0       	rjmp	.+8      	; 0x39e0 <main+0xb6>
				
			}
			else
			{
				boot=1;
    39d8:	81 e0       	ldi	r24, 0x01	; 1
    39da:	90 e0       	ldi	r25, 0x00	; 0
    39dc:	98 8f       	std	Y+24, r25	; 0x18
    39de:	8f 8b       	std	Y+23, r24	; 0x17
	int prev=0,prsnt=13,nxt=0,len1,len2,z=0,temp_dest=0,temp_len1=0,temp_len2=0;// denotes the position of nodesi.e. previous, present , next
	int filtered_nodes[33];
	
		count=0;
		
		while(boot==0)
    39e0:	8f 89       	ldd	r24, Y+23	; 0x17
    39e2:	98 8d       	ldd	r25, Y+24	; 0x18
    39e4:	89 2b       	or	r24, r25
    39e6:	79 f3       	breq	.-34     	; 0x39c6 <main+0x9c>
			else
			{
				boot=1;
			}
		}
		if (boot==1)
    39e8:	8f 89       	ldd	r24, Y+23	; 0x17
    39ea:	98 8d       	ldd	r25, Y+24	; 0x18
    39ec:	01 97       	sbiw	r24, 0x01	; 1
    39ee:	11 f0       	breq	.+4      	; 0x39f4 <main+0xca>
    39f0:	0c 94 01 27 	jmp	0x4e02	; 0x4e02 <main+0x14d8>
		{

stop();
    39f4:	0e 94 e6 11 	call	0x23cc	; 0x23cc <stop>
    39f8:	9e 01       	movw	r18, r28
    39fa:	21 5c       	subi	r18, 0xC1	; 193
    39fc:	3f 4f       	sbci	r19, 0xFF	; 255
    39fe:	80 e0       	ldi	r24, 0x00	; 0
    3a00:	90 e0       	ldi	r25, 0x00	; 0
    3a02:	a6 e9       	ldi	r26, 0x96	; 150
    3a04:	b3 e4       	ldi	r27, 0x43	; 67
    3a06:	f9 01       	movw	r30, r18
    3a08:	80 83       	st	Z, r24
    3a0a:	91 83       	std	Z+1, r25	; 0x01
    3a0c:	a2 83       	std	Z+2, r26	; 0x02
    3a0e:	b3 83       	std	Z+3, r27	; 0x03

	__builtin_avr_delay_cycles(__ticks_dc);

#else
	uint16_t __ticks;
	__tmp = ((F_CPU) / 4e3) * __ms;
    3a10:	8e 01       	movw	r16, r28
    3a12:	0d 5b       	subi	r16, 0xBD	; 189
    3a14:	1f 4f       	sbci	r17, 0xFF	; 255
    3a16:	ce 01       	movw	r24, r28
    3a18:	cf 96       	adiw	r24, 0x3f	; 63
    3a1a:	26 e6       	ldi	r18, 0x66	; 102
    3a1c:	36 e6       	ldi	r19, 0x66	; 102
    3a1e:	46 e6       	ldi	r20, 0x66	; 102
    3a20:	55 e4       	ldi	r21, 0x45	; 69
    3a22:	fc 01       	movw	r30, r24
    3a24:	60 81       	ld	r22, Z
    3a26:	71 81       	ldd	r23, Z+1	; 0x01
    3a28:	82 81       	ldd	r24, Z+2	; 0x02
    3a2a:	93 81       	ldd	r25, Z+3	; 0x03
    3a2c:	0e 94 c2 28 	call	0x5184	; 0x5184 <__mulsf3>
    3a30:	dc 01       	movw	r26, r24
    3a32:	cb 01       	movw	r24, r22
    3a34:	f8 01       	movw	r30, r16
    3a36:	80 83       	st	Z, r24
    3a38:	91 83       	std	Z+1, r25	; 0x01
    3a3a:	a2 83       	std	Z+2, r26	; 0x02
    3a3c:	b3 83       	std	Z+3, r27	; 0x03
	if (__tmp < 1.0)
    3a3e:	ce 01       	movw	r24, r28
    3a40:	8d 5b       	subi	r24, 0xBD	; 189
    3a42:	9f 4f       	sbci	r25, 0xFF	; 255
    3a44:	20 e0       	ldi	r18, 0x00	; 0
    3a46:	30 e0       	ldi	r19, 0x00	; 0
    3a48:	40 e8       	ldi	r20, 0x80	; 128
    3a4a:	5f e3       	ldi	r21, 0x3F	; 63
    3a4c:	fc 01       	movw	r30, r24
    3a4e:	60 81       	ld	r22, Z
    3a50:	71 81       	ldd	r23, Z+1	; 0x01
    3a52:	82 81       	ldd	r24, Z+2	; 0x02
    3a54:	93 81       	ldd	r25, Z+3	; 0x03
    3a56:	0e 94 74 27 	call	0x4ee8	; 0x4ee8 <__cmpsf2>
    3a5a:	88 23       	and	r24, r24
    3a5c:	4c f4       	brge	.+18     	; 0x3a70 <main+0x146>
		__ticks = 1;
    3a5e:	ce 01       	movw	r24, r28
    3a60:	89 5b       	subi	r24, 0xB9	; 185
    3a62:	9f 4f       	sbci	r25, 0xFF	; 255
    3a64:	21 e0       	ldi	r18, 0x01	; 1
    3a66:	30 e0       	ldi	r19, 0x00	; 0
    3a68:	fc 01       	movw	r30, r24
    3a6a:	31 83       	std	Z+1, r19	; 0x01
    3a6c:	20 83       	st	Z, r18
    3a6e:	6c c0       	rjmp	.+216    	; 0x3b48 <main+0x21e>
	else if (__tmp > 65535)
    3a70:	ce 01       	movw	r24, r28
    3a72:	8d 5b       	subi	r24, 0xBD	; 189
    3a74:	9f 4f       	sbci	r25, 0xFF	; 255
    3a76:	20 e0       	ldi	r18, 0x00	; 0
    3a78:	3f ef       	ldi	r19, 0xFF	; 255
    3a7a:	4f e7       	ldi	r20, 0x7F	; 127
    3a7c:	57 e4       	ldi	r21, 0x47	; 71
    3a7e:	fc 01       	movw	r30, r24
    3a80:	60 81       	ld	r22, Z
    3a82:	71 81       	ldd	r23, Z+1	; 0x01
    3a84:	82 81       	ldd	r24, Z+2	; 0x02
    3a86:	93 81       	ldd	r25, Z+3	; 0x03
    3a88:	0e 94 be 28 	call	0x517c	; 0x517c <__gesf2>
    3a8c:	18 16       	cp	r1, r24
    3a8e:	0c f0       	brlt	.+2      	; 0x3a92 <main+0x168>
    3a90:	49 c0       	rjmp	.+146    	; 0x3b24 <main+0x1fa>
	{
		//	__ticks = requested delay in 1/10 ms
		__ticks = (uint16_t) (__ms * 10.0);
    3a92:	ce 01       	movw	r24, r28
    3a94:	cf 96       	adiw	r24, 0x3f	; 63
    3a96:	20 e0       	ldi	r18, 0x00	; 0
    3a98:	30 e0       	ldi	r19, 0x00	; 0
    3a9a:	40 e2       	ldi	r20, 0x20	; 32
    3a9c:	51 e4       	ldi	r21, 0x41	; 65
    3a9e:	fc 01       	movw	r30, r24
    3aa0:	60 81       	ld	r22, Z
    3aa2:	71 81       	ldd	r23, Z+1	; 0x01
    3aa4:	82 81       	ldd	r24, Z+2	; 0x02
    3aa6:	93 81       	ldd	r25, Z+3	; 0x03
    3aa8:	0e 94 c2 28 	call	0x5184	; 0x5184 <__mulsf3>
    3aac:	dc 01       	movw	r26, r24
    3aae:	cb 01       	movw	r24, r22
    3ab0:	8e 01       	movw	r16, r28
    3ab2:	09 5b       	subi	r16, 0xB9	; 185
    3ab4:	1f 4f       	sbci	r17, 0xFF	; 255
    3ab6:	bc 01       	movw	r22, r24
    3ab8:	cd 01       	movw	r24, r26
    3aba:	0e 94 e0 27 	call	0x4fc0	; 0x4fc0 <__fixunssfsi>
    3abe:	dc 01       	movw	r26, r24
    3ac0:	cb 01       	movw	r24, r22
    3ac2:	f8 01       	movw	r30, r16
    3ac4:	91 83       	std	Z+1, r25	; 0x01
    3ac6:	80 83       	st	Z, r24
    3ac8:	24 c0       	rjmp	.+72     	; 0x3b12 <main+0x1e8>
    3aca:	ce 01       	movw	r24, r28
    3acc:	87 5b       	subi	r24, 0xB7	; 183
    3ace:	9f 4f       	sbci	r25, 0xFF	; 255
    3ad0:	20 e7       	ldi	r18, 0x70	; 112
    3ad2:	31 e0       	ldi	r19, 0x01	; 1
    3ad4:	fc 01       	movw	r30, r24
    3ad6:	31 83       	std	Z+1, r19	; 0x01
    3ad8:	20 83       	st	Z, r18
    milliseconds can be achieved.
 */
void
_delay_loop_2(uint16_t __count)
{
	__asm__ volatile (
    3ada:	ce 01       	movw	r24, r28
    3adc:	87 5b       	subi	r24, 0xB7	; 183
    3ade:	9f 4f       	sbci	r25, 0xFF	; 255
    3ae0:	fc 01       	movw	r30, r24
    3ae2:	80 81       	ld	r24, Z
    3ae4:	91 81       	ldd	r25, Z+1	; 0x01
    3ae6:	01 97       	sbiw	r24, 0x01	; 1
    3ae8:	f1 f7       	brne	.-4      	; 0x3ae6 <main+0x1bc>
    3aea:	9e 01       	movw	r18, r28
    3aec:	27 5b       	subi	r18, 0xB7	; 183
    3aee:	3f 4f       	sbci	r19, 0xFF	; 255
    3af0:	f9 01       	movw	r30, r18
    3af2:	91 83       	std	Z+1, r25	; 0x01
    3af4:	80 83       	st	Z, r24
		while(__ticks)
		{
			// wait 1/10 ms
			_delay_loop_2(((F_CPU) / 4e3) / 10);
			__ticks --;
    3af6:	ce 01       	movw	r24, r28
    3af8:	89 5b       	subi	r24, 0xB9	; 185
    3afa:	9f 4f       	sbci	r25, 0xFF	; 255
    3afc:	9e 01       	movw	r18, r28
    3afe:	29 5b       	subi	r18, 0xB9	; 185
    3b00:	3f 4f       	sbci	r19, 0xFF	; 255
    3b02:	f9 01       	movw	r30, r18
    3b04:	20 81       	ld	r18, Z
    3b06:	31 81       	ldd	r19, Z+1	; 0x01
    3b08:	21 50       	subi	r18, 0x01	; 1
    3b0a:	31 09       	sbc	r19, r1
    3b0c:	fc 01       	movw	r30, r24
    3b0e:	31 83       	std	Z+1, r19	; 0x01
    3b10:	20 83       	st	Z, r18
		__ticks = 1;
	else if (__tmp > 65535)
	{
		//	__ticks = requested delay in 1/10 ms
		__ticks = (uint16_t) (__ms * 10.0);
		while(__ticks)
    3b12:	ce 01       	movw	r24, r28
    3b14:	89 5b       	subi	r24, 0xB9	; 185
    3b16:	9f 4f       	sbci	r25, 0xFF	; 255
    3b18:	fc 01       	movw	r30, r24
    3b1a:	80 81       	ld	r24, Z
    3b1c:	91 81       	ldd	r25, Z+1	; 0x01
    3b1e:	89 2b       	or	r24, r25
    3b20:	a1 f6       	brne	.-88     	; 0x3aca <main+0x1a0>
    3b22:	2c c0       	rjmp	.+88     	; 0x3b7c <main+0x252>
			__ticks --;
		}
		return;
	}
	else
		__ticks = (uint16_t)__tmp;
    3b24:	8e 01       	movw	r16, r28
    3b26:	09 5b       	subi	r16, 0xB9	; 185
    3b28:	1f 4f       	sbci	r17, 0xFF	; 255
    3b2a:	ce 01       	movw	r24, r28
    3b2c:	8d 5b       	subi	r24, 0xBD	; 189
    3b2e:	9f 4f       	sbci	r25, 0xFF	; 255
    3b30:	fc 01       	movw	r30, r24
    3b32:	60 81       	ld	r22, Z
    3b34:	71 81       	ldd	r23, Z+1	; 0x01
    3b36:	82 81       	ldd	r24, Z+2	; 0x02
    3b38:	93 81       	ldd	r25, Z+3	; 0x03
    3b3a:	0e 94 e0 27 	call	0x4fc0	; 0x4fc0 <__fixunssfsi>
    3b3e:	dc 01       	movw	r26, r24
    3b40:	cb 01       	movw	r24, r22
    3b42:	f8 01       	movw	r30, r16
    3b44:	91 83       	std	Z+1, r25	; 0x01
    3b46:	80 83       	st	Z, r24
    3b48:	ce 01       	movw	r24, r28
    3b4a:	85 5b       	subi	r24, 0xB5	; 181
    3b4c:	9f 4f       	sbci	r25, 0xFF	; 255
    3b4e:	9e 01       	movw	r18, r28
    3b50:	29 5b       	subi	r18, 0xB9	; 185
    3b52:	3f 4f       	sbci	r19, 0xFF	; 255
    3b54:	f9 01       	movw	r30, r18
    3b56:	20 81       	ld	r18, Z
    3b58:	31 81       	ldd	r19, Z+1	; 0x01
    3b5a:	fc 01       	movw	r30, r24
    3b5c:	31 83       	std	Z+1, r19	; 0x01
    3b5e:	20 83       	st	Z, r18
    3b60:	ce 01       	movw	r24, r28
    3b62:	85 5b       	subi	r24, 0xB5	; 181
    3b64:	9f 4f       	sbci	r25, 0xFF	; 255
    3b66:	fc 01       	movw	r30, r24
    3b68:	80 81       	ld	r24, Z
    3b6a:	91 81       	ldd	r25, Z+1	; 0x01
    3b6c:	01 97       	sbiw	r24, 0x01	; 1
    3b6e:	f1 f7       	brne	.-4      	; 0x3b6c <main+0x242>
    3b70:	9e 01       	movw	r18, r28
    3b72:	25 5b       	subi	r18, 0xB5	; 181
    3b74:	3f 4f       	sbci	r19, 0xFF	; 255
    3b76:	f9 01       	movw	r30, r18
    3b78:	91 83       	std	Z+1, r25	; 0x01
    3b7a:	80 83       	st	Z, r24
_delay_ms(300);
left_degrees(81);
    3b7c:	81 e5       	ldi	r24, 0x51	; 81
    3b7e:	90 e0       	ldi	r25, 0x00	; 0
    3b80:	0e 94 80 0f 	call	0x1f00	; 0x1f00 <left_degrees>
backward_mm(90);
    3b84:	8a e5       	ldi	r24, 0x5A	; 90
    3b86:	90 e0       	ldi	r25, 0x00	; 0
    3b88:	0e 94 6f 0f 	call	0x1ede	; 0x1ede <backward_mm>
filtered_nodes[-1]=0;
    3b8c:	ce 01       	movw	r24, r28
    3b8e:	8b 57       	subi	r24, 0x7B	; 123
    3b90:	9f 4f       	sbci	r25, 0xFF	; 255
    3b92:	02 97       	sbiw	r24, 0x02	; 2
    3b94:	fc 01       	movw	r30, r24
    3b96:	11 82       	std	Z+1, r1	; 0x01
    3b98:	10 82       	st	Z, r1
for(int cc=0;cc<=33;cc++)		//filtered nodes
    3b9a:	18 a6       	std	Y+40, r1	; 0x28
    3b9c:	1f a2       	std	Y+39, r1	; 0x27
    3b9e:	8b c1       	rjmp	.+790    	; 0x3eb6 <main+0x58c>
{
	 temp_dest=nodes[cc];
    3ba0:	8f a1       	ldd	r24, Y+39	; 0x27
    3ba2:	98 a5       	ldd	r25, Y+40	; 0x28
    3ba4:	88 0f       	add	r24, r24
    3ba6:	99 1f       	adc	r25, r25
    3ba8:	85 57       	subi	r24, 0x75	; 117
    3baa:	9b 4e       	sbci	r25, 0xEB	; 235
    3bac:	fc 01       	movw	r30, r24
    3bae:	80 81       	ld	r24, Z
    3bb0:	91 81       	ldd	r25, Z+1	; 0x01
    3bb2:	9e a7       	std	Y+46, r25	; 0x2e
    3bb4:	8d a7       	std	Y+45, r24	; 0x2d
	dijkstra(prsnt,temp_dest);
    3bb6:	2d a5       	ldd	r18, Y+45	; 0x2d
    3bb8:	3e a5       	ldd	r19, Y+46	; 0x2e
    3bba:	8b 8d       	ldd	r24, Y+27	; 0x1b
    3bbc:	9c 8d       	ldd	r25, Y+28	; 0x1c
    3bbe:	b9 01       	movw	r22, r18
    3bc0:	0e 94 09 0b 	call	0x1612	; 0x1612 <dijkstra>
	steps=1;
    3bc4:	81 e0       	ldi	r24, 0x01	; 1
    3bc6:	90 e0       	ldi	r25, 0x00	; 0
    3bc8:	9e 8b       	std	Y+22, r25	; 0x16
    3bca:	8d 8b       	std	Y+21, r24	; 0x15
	for(i=0;i<30;i++)
    3bcc:	18 8a       	std	Y+16, r1	; 0x10
    3bce:	1f 86       	std	Y+15, r1	; 0x0f
    3bd0:	1a c0       	rjmp	.+52     	; 0x3c06 <main+0x2dc>
	{
		if(path[i]!=prsnt)
    3bd2:	8f 85       	ldd	r24, Y+15	; 0x0f
    3bd4:	98 89       	ldd	r25, Y+16	; 0x10
    3bd6:	88 0f       	add	r24, r24
    3bd8:	99 1f       	adc	r25, r25
    3bda:	8a 5b       	subi	r24, 0xBA	; 186
    3bdc:	9b 4e       	sbci	r25, 0xEB	; 235
    3bde:	fc 01       	movw	r30, r24
    3be0:	20 81       	ld	r18, Z
    3be2:	31 81       	ldd	r19, Z+1	; 0x01
    3be4:	8b 8d       	ldd	r24, Y+27	; 0x1b
    3be6:	9c 8d       	ldd	r25, Y+28	; 0x1c
    3be8:	28 17       	cp	r18, r24
    3bea:	39 07       	cpc	r19, r25
    3bec:	31 f0       	breq	.+12     	; 0x3bfa <main+0x2d0>
		steps++;
    3bee:	8d 89       	ldd	r24, Y+21	; 0x15
    3bf0:	9e 89       	ldd	r25, Y+22	; 0x16
    3bf2:	01 96       	adiw	r24, 0x01	; 1
    3bf4:	9e 8b       	std	Y+22, r25	; 0x16
    3bf6:	8d 8b       	std	Y+21, r24	; 0x15
    3bf8:	01 c0       	rjmp	.+2      	; 0x3bfc <main+0x2d2>
		else
		break;
    3bfa:	09 c0       	rjmp	.+18     	; 0x3c0e <main+0x2e4>
for(int cc=0;cc<=33;cc++)		//filtered nodes
{
	 temp_dest=nodes[cc];
	dijkstra(prsnt,temp_dest);
	steps=1;
	for(i=0;i<30;i++)
    3bfc:	8f 85       	ldd	r24, Y+15	; 0x0f
    3bfe:	98 89       	ldd	r25, Y+16	; 0x10
    3c00:	01 96       	adiw	r24, 0x01	; 1
    3c02:	98 8b       	std	Y+16, r25	; 0x10
    3c04:	8f 87       	std	Y+15, r24	; 0x0f
    3c06:	8f 85       	ldd	r24, Y+15	; 0x0f
    3c08:	98 89       	ldd	r25, Y+16	; 0x10
    3c0a:	4e 97       	sbiw	r24, 0x1e	; 30
    3c0c:	14 f3       	brlt	.-60     	; 0x3bd2 <main+0x2a8>
		steps++;
		else
		break;
	}
	
	j = steps - 1;   // j will Point to last Element
    3c0e:	8d 89       	ldd	r24, Y+21	; 0x15
    3c10:	9e 89       	ldd	r25, Y+22	; 0x16
    3c12:	01 97       	sbiw	r24, 0x01	; 1
    3c14:	9a 8b       	std	Y+18, r25	; 0x12
    3c16:	89 8b       	std	Y+17, r24	; 0x11
	i = 0;       // i will be pointing to first element
    3c18:	18 8a       	std	Y+16, r1	; 0x10
    3c1a:	1f 86       	std	Y+15, r1	; 0x0f
	
	while (i < j) {
    3c1c:	37 c0       	rjmp	.+110    	; 0x3c8c <main+0x362>
		temp = path[i];
    3c1e:	8f 85       	ldd	r24, Y+15	; 0x0f
    3c20:	98 89       	ldd	r25, Y+16	; 0x10
    3c22:	88 0f       	add	r24, r24
    3c24:	99 1f       	adc	r25, r25
    3c26:	8a 5b       	subi	r24, 0xBA	; 186
    3c28:	9b 4e       	sbci	r25, 0xEB	; 235
    3c2a:	fc 01       	movw	r30, r24
    3c2c:	80 81       	ld	r24, Z
    3c2e:	91 81       	ldd	r25, Z+1	; 0x01
    3c30:	90 93 87 14 	sts	0x1487, r25	; 0x801487 <temp+0x1>
    3c34:	80 93 86 14 	sts	0x1486, r24	; 0x801486 <temp>
		path[i] = path[j];
    3c38:	89 89       	ldd	r24, Y+17	; 0x11
    3c3a:	9a 89       	ldd	r25, Y+18	; 0x12
    3c3c:	88 0f       	add	r24, r24
    3c3e:	99 1f       	adc	r25, r25
    3c40:	8a 5b       	subi	r24, 0xBA	; 186
    3c42:	9b 4e       	sbci	r25, 0xEB	; 235
    3c44:	fc 01       	movw	r30, r24
    3c46:	20 81       	ld	r18, Z
    3c48:	31 81       	ldd	r19, Z+1	; 0x01
    3c4a:	8f 85       	ldd	r24, Y+15	; 0x0f
    3c4c:	98 89       	ldd	r25, Y+16	; 0x10
    3c4e:	88 0f       	add	r24, r24
    3c50:	99 1f       	adc	r25, r25
    3c52:	8a 5b       	subi	r24, 0xBA	; 186
    3c54:	9b 4e       	sbci	r25, 0xEB	; 235
    3c56:	fc 01       	movw	r30, r24
    3c58:	31 83       	std	Z+1, r19	; 0x01
    3c5a:	20 83       	st	Z, r18
		path[j] = temp;
    3c5c:	80 91 86 14 	lds	r24, 0x1486	; 0x801486 <temp>
    3c60:	90 91 87 14 	lds	r25, 0x1487	; 0x801487 <temp+0x1>
    3c64:	9c 01       	movw	r18, r24
    3c66:	89 89       	ldd	r24, Y+17	; 0x11
    3c68:	9a 89       	ldd	r25, Y+18	; 0x12
    3c6a:	88 0f       	add	r24, r24
    3c6c:	99 1f       	adc	r25, r25
    3c6e:	8a 5b       	subi	r24, 0xBA	; 186
    3c70:	9b 4e       	sbci	r25, 0xEB	; 235
    3c72:	fc 01       	movw	r30, r24
    3c74:	31 83       	std	Z+1, r19	; 0x01
    3c76:	20 83       	st	Z, r18
		i++;             // increment i
    3c78:	8f 85       	ldd	r24, Y+15	; 0x0f
    3c7a:	98 89       	ldd	r25, Y+16	; 0x10
    3c7c:	01 96       	adiw	r24, 0x01	; 1
    3c7e:	98 8b       	std	Y+16, r25	; 0x10
    3c80:	8f 87       	std	Y+15, r24	; 0x0f
		j--;          // decrement j
    3c82:	89 89       	ldd	r24, Y+17	; 0x11
    3c84:	9a 89       	ldd	r25, Y+18	; 0x12
    3c86:	01 97       	sbiw	r24, 0x01	; 1
    3c88:	9a 8b       	std	Y+18, r25	; 0x12
    3c8a:	89 8b       	std	Y+17, r24	; 0x11
	}
	
	j = steps - 1;   // j will Point to last Element
	i = 0;       // i will be pointing to first element
	
	while (i < j) {
    3c8c:	2f 85       	ldd	r18, Y+15	; 0x0f
    3c8e:	38 89       	ldd	r19, Y+16	; 0x10
    3c90:	89 89       	ldd	r24, Y+17	; 0x11
    3c92:	9a 89       	ldd	r25, Y+18	; 0x12
    3c94:	28 17       	cp	r18, r24
    3c96:	39 07       	cpc	r19, r25
    3c98:	14 f2       	brlt	.-124    	; 0x3c1e <main+0x2f4>
		path[i] = path[j];
		path[j] = temp;
		i++;             // increment i
		j--;          // decrement j
	}
	 len1=steps;
    3c9a:	8d 89       	ldd	r24, Y+21	; 0x15
    3c9c:	9e 89       	ldd	r25, Y+22	; 0x16
    3c9e:	9e 8f       	std	Y+30, r25	; 0x1e
    3ca0:	8d 8f       	std	Y+29, r24	; 0x1d
	
	dijkstra(prsnt2,temp_dest);
    3ca2:	80 91 06 14 	lds	r24, 0x1406	; 0x801406 <prsnt2>
    3ca6:	90 91 07 14 	lds	r25, 0x1407	; 0x801407 <prsnt2+0x1>
    3caa:	2d a5       	ldd	r18, Y+45	; 0x2d
    3cac:	3e a5       	ldd	r19, Y+46	; 0x2e
    3cae:	b9 01       	movw	r22, r18
    3cb0:	0e 94 09 0b 	call	0x1612	; 0x1612 <dijkstra>
	steps=1;
    3cb4:	81 e0       	ldi	r24, 0x01	; 1
    3cb6:	90 e0       	ldi	r25, 0x00	; 0
    3cb8:	9e 8b       	std	Y+22, r25	; 0x16
    3cba:	8d 8b       	std	Y+21, r24	; 0x15
	for(i=0;i<30;i++)
    3cbc:	18 8a       	std	Y+16, r1	; 0x10
    3cbe:	1f 86       	std	Y+15, r1	; 0x0f
    3cc0:	1c c0       	rjmp	.+56     	; 0x3cfa <main+0x3d0>
	{
		if(path[i]!=prsnt2)
    3cc2:	8f 85       	ldd	r24, Y+15	; 0x0f
    3cc4:	98 89       	ldd	r25, Y+16	; 0x10
    3cc6:	88 0f       	add	r24, r24
    3cc8:	99 1f       	adc	r25, r25
    3cca:	8a 5b       	subi	r24, 0xBA	; 186
    3ccc:	9b 4e       	sbci	r25, 0xEB	; 235
    3cce:	fc 01       	movw	r30, r24
    3cd0:	20 81       	ld	r18, Z
    3cd2:	31 81       	ldd	r19, Z+1	; 0x01
    3cd4:	80 91 06 14 	lds	r24, 0x1406	; 0x801406 <prsnt2>
    3cd8:	90 91 07 14 	lds	r25, 0x1407	; 0x801407 <prsnt2+0x1>
    3cdc:	28 17       	cp	r18, r24
    3cde:	39 07       	cpc	r19, r25
    3ce0:	31 f0       	breq	.+12     	; 0x3cee <main+0x3c4>
		steps++;
    3ce2:	8d 89       	ldd	r24, Y+21	; 0x15
    3ce4:	9e 89       	ldd	r25, Y+22	; 0x16
    3ce6:	01 96       	adiw	r24, 0x01	; 1
    3ce8:	9e 8b       	std	Y+22, r25	; 0x16
    3cea:	8d 8b       	std	Y+21, r24	; 0x15
    3cec:	01 c0       	rjmp	.+2      	; 0x3cf0 <main+0x3c6>
		else
		break;
    3cee:	09 c0       	rjmp	.+18     	; 0x3d02 <main+0x3d8>
	}
	 len1=steps;
	
	dijkstra(prsnt2,temp_dest);
	steps=1;
	for(i=0;i<30;i++)
    3cf0:	8f 85       	ldd	r24, Y+15	; 0x0f
    3cf2:	98 89       	ldd	r25, Y+16	; 0x10
    3cf4:	01 96       	adiw	r24, 0x01	; 1
    3cf6:	98 8b       	std	Y+16, r25	; 0x10
    3cf8:	8f 87       	std	Y+15, r24	; 0x0f
    3cfa:	8f 85       	ldd	r24, Y+15	; 0x0f
    3cfc:	98 89       	ldd	r25, Y+16	; 0x10
    3cfe:	4e 97       	sbiw	r24, 0x1e	; 30
    3d00:	04 f3       	brlt	.-64     	; 0x3cc2 <main+0x398>
		steps++;
		else
		break;
	}
	
	j = steps - 1;   // j will Point to last Element
    3d02:	8d 89       	ldd	r24, Y+21	; 0x15
    3d04:	9e 89       	ldd	r25, Y+22	; 0x16
    3d06:	01 97       	sbiw	r24, 0x01	; 1
    3d08:	9a 8b       	std	Y+18, r25	; 0x12
    3d0a:	89 8b       	std	Y+17, r24	; 0x11
	i = 0;       // i will be pointing to first element
    3d0c:	18 8a       	std	Y+16, r1	; 0x10
    3d0e:	1f 86       	std	Y+15, r1	; 0x0f
	
	while (i < j) {
    3d10:	37 c0       	rjmp	.+110    	; 0x3d80 <main+0x456>
		temp = path[i];
    3d12:	8f 85       	ldd	r24, Y+15	; 0x0f
    3d14:	98 89       	ldd	r25, Y+16	; 0x10
    3d16:	88 0f       	add	r24, r24
    3d18:	99 1f       	adc	r25, r25
    3d1a:	8a 5b       	subi	r24, 0xBA	; 186
    3d1c:	9b 4e       	sbci	r25, 0xEB	; 235
    3d1e:	fc 01       	movw	r30, r24
    3d20:	80 81       	ld	r24, Z
    3d22:	91 81       	ldd	r25, Z+1	; 0x01
    3d24:	90 93 87 14 	sts	0x1487, r25	; 0x801487 <temp+0x1>
    3d28:	80 93 86 14 	sts	0x1486, r24	; 0x801486 <temp>
		path[i] = path[j];
    3d2c:	89 89       	ldd	r24, Y+17	; 0x11
    3d2e:	9a 89       	ldd	r25, Y+18	; 0x12
    3d30:	88 0f       	add	r24, r24
    3d32:	99 1f       	adc	r25, r25
    3d34:	8a 5b       	subi	r24, 0xBA	; 186
    3d36:	9b 4e       	sbci	r25, 0xEB	; 235
    3d38:	fc 01       	movw	r30, r24
    3d3a:	20 81       	ld	r18, Z
    3d3c:	31 81       	ldd	r19, Z+1	; 0x01
    3d3e:	8f 85       	ldd	r24, Y+15	; 0x0f
    3d40:	98 89       	ldd	r25, Y+16	; 0x10
    3d42:	88 0f       	add	r24, r24
    3d44:	99 1f       	adc	r25, r25
    3d46:	8a 5b       	subi	r24, 0xBA	; 186
    3d48:	9b 4e       	sbci	r25, 0xEB	; 235
    3d4a:	fc 01       	movw	r30, r24
    3d4c:	31 83       	std	Z+1, r19	; 0x01
    3d4e:	20 83       	st	Z, r18
		path[j] = temp;
    3d50:	80 91 86 14 	lds	r24, 0x1486	; 0x801486 <temp>
    3d54:	90 91 87 14 	lds	r25, 0x1487	; 0x801487 <temp+0x1>
    3d58:	9c 01       	movw	r18, r24
    3d5a:	89 89       	ldd	r24, Y+17	; 0x11
    3d5c:	9a 89       	ldd	r25, Y+18	; 0x12
    3d5e:	88 0f       	add	r24, r24
    3d60:	99 1f       	adc	r25, r25
    3d62:	8a 5b       	subi	r24, 0xBA	; 186
    3d64:	9b 4e       	sbci	r25, 0xEB	; 235
    3d66:	fc 01       	movw	r30, r24
    3d68:	31 83       	std	Z+1, r19	; 0x01
    3d6a:	20 83       	st	Z, r18
		i++;             // increment i
    3d6c:	8f 85       	ldd	r24, Y+15	; 0x0f
    3d6e:	98 89       	ldd	r25, Y+16	; 0x10
    3d70:	01 96       	adiw	r24, 0x01	; 1
    3d72:	98 8b       	std	Y+16, r25	; 0x10
    3d74:	8f 87       	std	Y+15, r24	; 0x0f
		j--;          // decrement j
    3d76:	89 89       	ldd	r24, Y+17	; 0x11
    3d78:	9a 89       	ldd	r25, Y+18	; 0x12
    3d7a:	01 97       	sbiw	r24, 0x01	; 1
    3d7c:	9a 8b       	std	Y+18, r25	; 0x12
    3d7e:	89 8b       	std	Y+17, r24	; 0x11
	}
	
	j = steps - 1;   // j will Point to last Element
	i = 0;       // i will be pointing to first element
	
	while (i < j) {
    3d80:	2f 85       	ldd	r18, Y+15	; 0x0f
    3d82:	38 89       	ldd	r19, Y+16	; 0x10
    3d84:	89 89       	ldd	r24, Y+17	; 0x11
    3d86:	9a 89       	ldd	r25, Y+18	; 0x12
    3d88:	28 17       	cp	r18, r24
    3d8a:	39 07       	cpc	r19, r25
    3d8c:	14 f2       	brlt	.-124    	; 0x3d12 <main+0x3e8>
		path[i] = path[j];
		path[j] = temp;
		i++;             // increment i
		j--;          // decrement j
	}
	len2= steps;
    3d8e:	8d 89       	ldd	r24, Y+21	; 0x15
    3d90:	9e 89       	ldd	r25, Y+22	; 0x16
    3d92:	98 a3       	std	Y+32, r25	; 0x20
    3d94:	8f 8f       	std	Y+31, r24	; 0x1f
	if ((z==0)&&(cc!=0))
    3d96:	89 a1       	ldd	r24, Y+33	; 0x21
    3d98:	9a a1       	ldd	r25, Y+34	; 0x22
    3d9a:	89 2b       	or	r24, r25
    3d9c:	61 f4       	brne	.+24     	; 0x3db6 <main+0x48c>
    3d9e:	8f a1       	ldd	r24, Y+39	; 0x27
    3da0:	98 a5       	ldd	r25, Y+40	; 0x28
    3da2:	89 2b       	or	r24, r25
    3da4:	41 f0       	breq	.+16     	; 0x3db6 <main+0x48c>
	{
		len2=temp_len2+len2;
    3da6:	2f 8d       	ldd	r18, Y+31	; 0x1f
    3da8:	38 a1       	ldd	r19, Y+32	; 0x20
    3daa:	8d a1       	ldd	r24, Y+37	; 0x25
    3dac:	9e a1       	ldd	r25, Y+38	; 0x26
    3dae:	82 0f       	add	r24, r18
    3db0:	93 1f       	adc	r25, r19
    3db2:	98 a3       	std	Y+32, r25	; 0x20
    3db4:	8f 8f       	std	Y+31, r24	; 0x1f
	}
	if((cc!=0)&&(z!=0))
    3db6:	8f a1       	ldd	r24, Y+39	; 0x27
    3db8:	98 a5       	ldd	r25, Y+40	; 0x28
    3dba:	89 2b       	or	r24, r25
    3dbc:	09 f4       	brne	.+2      	; 0x3dc0 <main+0x496>
    3dbe:	49 c0       	rjmp	.+146    	; 0x3e52 <main+0x528>
    3dc0:	89 a1       	ldd	r24, Y+33	; 0x21
    3dc2:	9a a1       	ldd	r25, Y+34	; 0x22
    3dc4:	89 2b       	or	r24, r25
    3dc6:	09 f4       	brne	.+2      	; 0x3dca <main+0x4a0>
    3dc8:	44 c0       	rjmp	.+136    	; 0x3e52 <main+0x528>
	{	
		if(nodes[cc-1]==filtered_nodes[z-1])
    3dca:	8f a1       	ldd	r24, Y+39	; 0x27
    3dcc:	98 a5       	ldd	r25, Y+40	; 0x28
    3dce:	01 97       	sbiw	r24, 0x01	; 1
    3dd0:	88 0f       	add	r24, r24
    3dd2:	99 1f       	adc	r25, r25
    3dd4:	85 57       	subi	r24, 0x75	; 117
    3dd6:	9b 4e       	sbci	r25, 0xEB	; 235
    3dd8:	fc 01       	movw	r30, r24
    3dda:	20 81       	ld	r18, Z
    3ddc:	31 81       	ldd	r19, Z+1	; 0x01
    3dde:	89 a1       	ldd	r24, Y+33	; 0x21
    3de0:	9a a1       	ldd	r25, Y+34	; 0x22
    3de2:	01 97       	sbiw	r24, 0x01	; 1
    3de4:	ae 01       	movw	r20, r28
    3de6:	4b 57       	subi	r20, 0x7B	; 123
    3de8:	5f 4f       	sbci	r21, 0xFF	; 255
    3dea:	88 0f       	add	r24, r24
    3dec:	99 1f       	adc	r25, r25
    3dee:	84 0f       	add	r24, r20
    3df0:	95 1f       	adc	r25, r21
    3df2:	fc 01       	movw	r30, r24
    3df4:	80 81       	ld	r24, Z
    3df6:	91 81       	ldd	r25, Z+1	; 0x01
    3df8:	28 17       	cp	r18, r24
    3dfa:	39 07       	cpc	r19, r25
    3dfc:	41 f4       	brne	.+16     	; 0x3e0e <main+0x4e4>
		{
			len1=temp_len1+len1;
    3dfe:	2d 8d       	ldd	r18, Y+29	; 0x1d
    3e00:	3e 8d       	ldd	r19, Y+30	; 0x1e
    3e02:	8b a1       	ldd	r24, Y+35	; 0x23
    3e04:	9c a1       	ldd	r25, Y+36	; 0x24
    3e06:	82 0f       	add	r24, r18
    3e08:	93 1f       	adc	r25, r19
    3e0a:	9e 8f       	std	Y+30, r25	; 0x1e
    3e0c:	8d 8f       	std	Y+29, r24	; 0x1d
		}
		if(nodes[cc-1]!=filtered_nodes[z-1])
    3e0e:	8f a1       	ldd	r24, Y+39	; 0x27
    3e10:	98 a5       	ldd	r25, Y+40	; 0x28
    3e12:	01 97       	sbiw	r24, 0x01	; 1
    3e14:	88 0f       	add	r24, r24
    3e16:	99 1f       	adc	r25, r25
    3e18:	85 57       	subi	r24, 0x75	; 117
    3e1a:	9b 4e       	sbci	r25, 0xEB	; 235
    3e1c:	fc 01       	movw	r30, r24
    3e1e:	20 81       	ld	r18, Z
    3e20:	31 81       	ldd	r19, Z+1	; 0x01
    3e22:	89 a1       	ldd	r24, Y+33	; 0x21
    3e24:	9a a1       	ldd	r25, Y+34	; 0x22
    3e26:	01 97       	sbiw	r24, 0x01	; 1
    3e28:	ae 01       	movw	r20, r28
    3e2a:	4b 57       	subi	r20, 0x7B	; 123
    3e2c:	5f 4f       	sbci	r21, 0xFF	; 255
    3e2e:	88 0f       	add	r24, r24
    3e30:	99 1f       	adc	r25, r25
    3e32:	84 0f       	add	r24, r20
    3e34:	95 1f       	adc	r25, r21
    3e36:	fc 01       	movw	r30, r24
    3e38:	80 81       	ld	r24, Z
    3e3a:	91 81       	ldd	r25, Z+1	; 0x01
    3e3c:	28 17       	cp	r18, r24
    3e3e:	39 07       	cpc	r19, r25
    3e40:	41 f0       	breq	.+16     	; 0x3e52 <main+0x528>
		{
			len2=temp_len2+len2;
    3e42:	2f 8d       	ldd	r18, Y+31	; 0x1f
    3e44:	38 a1       	ldd	r19, Y+32	; 0x20
    3e46:	8d a1       	ldd	r24, Y+37	; 0x25
    3e48:	9e a1       	ldd	r25, Y+38	; 0x26
    3e4a:	82 0f       	add	r24, r18
    3e4c:	93 1f       	adc	r25, r19
    3e4e:	98 a3       	std	Y+32, r25	; 0x20
    3e50:	8f 8f       	std	Y+31, r24	; 0x1f
		}
	}
	
	temp_len1=len1;
    3e52:	8d 8d       	ldd	r24, Y+29	; 0x1d
    3e54:	9e 8d       	ldd	r25, Y+30	; 0x1e
    3e56:	9c a3       	std	Y+36, r25	; 0x24
    3e58:	8b a3       	std	Y+35, r24	; 0x23
	temp_len2=len2;
    3e5a:	8f 8d       	ldd	r24, Y+31	; 0x1f
    3e5c:	98 a1       	ldd	r25, Y+32	; 0x20
    3e5e:	9e a3       	std	Y+38, r25	; 0x26
    3e60:	8d a3       	std	Y+37, r24	; 0x25
	if(len1<len2)
    3e62:	2d 8d       	ldd	r18, Y+29	; 0x1d
    3e64:	3e 8d       	ldd	r19, Y+30	; 0x1e
    3e66:	8f 8d       	ldd	r24, Y+31	; 0x1f
    3e68:	98 a1       	ldd	r25, Y+32	; 0x20
    3e6a:	28 17       	cp	r18, r24
    3e6c:	39 07       	cpc	r19, r25
    3e6e:	c4 f4       	brge	.+48     	; 0x3ea0 <main+0x576>
	{	
		filtered_nodes[z]=temp_dest;
    3e70:	9e 01       	movw	r18, r28
    3e72:	2b 57       	subi	r18, 0x7B	; 123
    3e74:	3f 4f       	sbci	r19, 0xFF	; 255
    3e76:	89 a1       	ldd	r24, Y+33	; 0x21
    3e78:	9a a1       	ldd	r25, Y+34	; 0x22
    3e7a:	88 0f       	add	r24, r24
    3e7c:	99 1f       	adc	r25, r25
    3e7e:	82 0f       	add	r24, r18
    3e80:	93 1f       	adc	r25, r19
    3e82:	2d a5       	ldd	r18, Y+45	; 0x2d
    3e84:	3e a5       	ldd	r19, Y+46	; 0x2e
    3e86:	fc 01       	movw	r30, r24
    3e88:	31 83       	std	Z+1, r19	; 0x01
    3e8a:	20 83       	st	Z, r18
		z++;
    3e8c:	89 a1       	ldd	r24, Y+33	; 0x21
    3e8e:	9a a1       	ldd	r25, Y+34	; 0x22
    3e90:	01 96       	adiw	r24, 0x01	; 1
    3e92:	9a a3       	std	Y+34, r25	; 0x22
    3e94:	89 a3       	std	Y+33, r24	; 0x21
		prsnt=temp_dest;
    3e96:	8d a5       	ldd	r24, Y+45	; 0x2d
    3e98:	9e a5       	ldd	r25, Y+46	; 0x2e
    3e9a:	9c 8f       	std	Y+28, r25	; 0x1c
    3e9c:	8b 8f       	std	Y+27, r24	; 0x1b
    3e9e:	06 c0       	rjmp	.+12     	; 0x3eac <main+0x582>
	}
	else{
		prsnt2=temp_dest;
    3ea0:	8d a5       	ldd	r24, Y+45	; 0x2d
    3ea2:	9e a5       	ldd	r25, Y+46	; 0x2e
    3ea4:	90 93 07 14 	sts	0x1407, r25	; 0x801407 <prsnt2+0x1>
    3ea8:	80 93 06 14 	sts	0x1406, r24	; 0x801406 <prsnt2>
stop();
_delay_ms(300);
left_degrees(81);
backward_mm(90);
filtered_nodes[-1]=0;
for(int cc=0;cc<=33;cc++)		//filtered nodes
    3eac:	8f a1       	ldd	r24, Y+39	; 0x27
    3eae:	98 a5       	ldd	r25, Y+40	; 0x28
    3eb0:	01 96       	adiw	r24, 0x01	; 1
    3eb2:	98 a7       	std	Y+40, r25	; 0x28
    3eb4:	8f a3       	std	Y+39, r24	; 0x27
    3eb6:	8f a1       	ldd	r24, Y+39	; 0x27
    3eb8:	98 a5       	ldd	r25, Y+40	; 0x28
    3eba:	82 97       	sbiw	r24, 0x22	; 34
    3ebc:	0c f4       	brge	.+2      	; 0x3ec0 <main+0x596>
    3ebe:	70 ce       	rjmp	.-800    	; 0x3ba0 <main+0x276>
	else{
		prsnt2=temp_dest;
	}
	
}
prsnt=13;
    3ec0:	8d e0       	ldi	r24, 0x0D	; 13
    3ec2:	90 e0       	ldi	r25, 0x00	; 0
    3ec4:	9c 8f       	std	Y+28, r25	; 0x1c
    3ec6:	8b 8f       	std	Y+27, r24	; 0x1b
for(k=0;k<33;k++)
    3ec8:	1c 8a       	std	Y+20, r1	; 0x14
    3eca:	1b 8a       	std	Y+19, r1	; 0x13
    3ecc:	95 c7       	rjmp	.+3882   	; 0x4df8 <main+0x14ce>
{		 

	start=prsnt;
    3ece:	8b 8d       	ldd	r24, Y+27	; 0x1b
    3ed0:	9c 8d       	ldd	r25, Y+28	; 0x1c
    3ed2:	98 ab       	std	Y+48, r25	; 0x30
    3ed4:	8f a7       	std	Y+47, r24	; 0x2f
	dest=filtered_nodes[k];
    3ed6:	9e 01       	movw	r18, r28
    3ed8:	2b 57       	subi	r18, 0x7B	; 123
    3eda:	3f 4f       	sbci	r19, 0xFF	; 255
    3edc:	8b 89       	ldd	r24, Y+19	; 0x13
    3ede:	9c 89       	ldd	r25, Y+20	; 0x14
    3ee0:	88 0f       	add	r24, r24
    3ee2:	99 1f       	adc	r25, r25
    3ee4:	82 0f       	add	r24, r18
    3ee6:	93 1f       	adc	r25, r19
    3ee8:	fc 01       	movw	r30, r24
    3eea:	80 81       	ld	r24, Z
    3eec:	91 81       	ldd	r25, Z+1	; 0x01
    3eee:	9a ab       	std	Y+50, r25	; 0x32
    3ef0:	89 ab       	std	Y+49, r24	; 0x31
    steps=1;
    3ef2:	81 e0       	ldi	r24, 0x01	; 1
    3ef4:	90 e0       	ldi	r25, 0x00	; 0
    3ef6:	9e 8b       	std	Y+22, r25	; 0x16
    3ef8:	8d 8b       	std	Y+21, r24	; 0x15
	
	dijkstra(start,dest);
    3efa:	29 a9       	ldd	r18, Y+49	; 0x31
    3efc:	3a a9       	ldd	r19, Y+50	; 0x32
    3efe:	8f a5       	ldd	r24, Y+47	; 0x2f
    3f00:	98 a9       	ldd	r25, Y+48	; 0x30
    3f02:	b9 01       	movw	r22, r18
    3f04:	0e 94 09 0b 	call	0x1612	; 0x1612 <dijkstra>
	// To reverse the path array
	steps=1;
    3f08:	81 e0       	ldi	r24, 0x01	; 1
    3f0a:	90 e0       	ldi	r25, 0x00	; 0
    3f0c:	9e 8b       	std	Y+22, r25	; 0x16
    3f0e:	8d 8b       	std	Y+21, r24	; 0x15
	for(i=0;i<30;i++)
    3f10:	18 8a       	std	Y+16, r1	; 0x10
    3f12:	1f 86       	std	Y+15, r1	; 0x0f
    3f14:	1a c0       	rjmp	.+52     	; 0x3f4a <main+0x620>
	{
		if(path[i]!=start)
    3f16:	8f 85       	ldd	r24, Y+15	; 0x0f
    3f18:	98 89       	ldd	r25, Y+16	; 0x10
    3f1a:	88 0f       	add	r24, r24
    3f1c:	99 1f       	adc	r25, r25
    3f1e:	8a 5b       	subi	r24, 0xBA	; 186
    3f20:	9b 4e       	sbci	r25, 0xEB	; 235
    3f22:	fc 01       	movw	r30, r24
    3f24:	20 81       	ld	r18, Z
    3f26:	31 81       	ldd	r19, Z+1	; 0x01
    3f28:	8f a5       	ldd	r24, Y+47	; 0x2f
    3f2a:	98 a9       	ldd	r25, Y+48	; 0x30
    3f2c:	28 17       	cp	r18, r24
    3f2e:	39 07       	cpc	r19, r25
    3f30:	31 f0       	breq	.+12     	; 0x3f3e <main+0x614>
		steps++;
    3f32:	8d 89       	ldd	r24, Y+21	; 0x15
    3f34:	9e 89       	ldd	r25, Y+22	; 0x16
    3f36:	01 96       	adiw	r24, 0x01	; 1
    3f38:	9e 8b       	std	Y+22, r25	; 0x16
    3f3a:	8d 8b       	std	Y+21, r24	; 0x15
    3f3c:	01 c0       	rjmp	.+2      	; 0x3f40 <main+0x616>
		else
		break;
    3f3e:	09 c0       	rjmp	.+18     	; 0x3f52 <main+0x628>
    steps=1;
	
	dijkstra(start,dest);
	// To reverse the path array
	steps=1;
	for(i=0;i<30;i++)
    3f40:	8f 85       	ldd	r24, Y+15	; 0x0f
    3f42:	98 89       	ldd	r25, Y+16	; 0x10
    3f44:	01 96       	adiw	r24, 0x01	; 1
    3f46:	98 8b       	std	Y+16, r25	; 0x10
    3f48:	8f 87       	std	Y+15, r24	; 0x0f
    3f4a:	8f 85       	ldd	r24, Y+15	; 0x0f
    3f4c:	98 89       	ldd	r25, Y+16	; 0x10
    3f4e:	4e 97       	sbiw	r24, 0x1e	; 30
    3f50:	14 f3       	brlt	.-60     	; 0x3f16 <main+0x5ec>
		steps++;
		else
		break;
	}
	
	j = steps - 1;   // j will Point to last Element
    3f52:	8d 89       	ldd	r24, Y+21	; 0x15
    3f54:	9e 89       	ldd	r25, Y+22	; 0x16
    3f56:	01 97       	sbiw	r24, 0x01	; 1
    3f58:	9a 8b       	std	Y+18, r25	; 0x12
    3f5a:	89 8b       	std	Y+17, r24	; 0x11
	i = 0;       // i will be pointing to first element
    3f5c:	18 8a       	std	Y+16, r1	; 0x10
    3f5e:	1f 86       	std	Y+15, r1	; 0x0f
	
	while (i < j) {
    3f60:	37 c0       	rjmp	.+110    	; 0x3fd0 <main+0x6a6>
		temp = path[i];
    3f62:	8f 85       	ldd	r24, Y+15	; 0x0f
    3f64:	98 89       	ldd	r25, Y+16	; 0x10
    3f66:	88 0f       	add	r24, r24
    3f68:	99 1f       	adc	r25, r25
    3f6a:	8a 5b       	subi	r24, 0xBA	; 186
    3f6c:	9b 4e       	sbci	r25, 0xEB	; 235
    3f6e:	fc 01       	movw	r30, r24
    3f70:	80 81       	ld	r24, Z
    3f72:	91 81       	ldd	r25, Z+1	; 0x01
    3f74:	90 93 87 14 	sts	0x1487, r25	; 0x801487 <temp+0x1>
    3f78:	80 93 86 14 	sts	0x1486, r24	; 0x801486 <temp>
		path[i] = path[j];
    3f7c:	89 89       	ldd	r24, Y+17	; 0x11
    3f7e:	9a 89       	ldd	r25, Y+18	; 0x12
    3f80:	88 0f       	add	r24, r24
    3f82:	99 1f       	adc	r25, r25
    3f84:	8a 5b       	subi	r24, 0xBA	; 186
    3f86:	9b 4e       	sbci	r25, 0xEB	; 235
    3f88:	fc 01       	movw	r30, r24
    3f8a:	20 81       	ld	r18, Z
    3f8c:	31 81       	ldd	r19, Z+1	; 0x01
    3f8e:	8f 85       	ldd	r24, Y+15	; 0x0f
    3f90:	98 89       	ldd	r25, Y+16	; 0x10
    3f92:	88 0f       	add	r24, r24
    3f94:	99 1f       	adc	r25, r25
    3f96:	8a 5b       	subi	r24, 0xBA	; 186
    3f98:	9b 4e       	sbci	r25, 0xEB	; 235
    3f9a:	fc 01       	movw	r30, r24
    3f9c:	31 83       	std	Z+1, r19	; 0x01
    3f9e:	20 83       	st	Z, r18
		path[j] = temp;
    3fa0:	80 91 86 14 	lds	r24, 0x1486	; 0x801486 <temp>
    3fa4:	90 91 87 14 	lds	r25, 0x1487	; 0x801487 <temp+0x1>
    3fa8:	9c 01       	movw	r18, r24
    3faa:	89 89       	ldd	r24, Y+17	; 0x11
    3fac:	9a 89       	ldd	r25, Y+18	; 0x12
    3fae:	88 0f       	add	r24, r24
    3fb0:	99 1f       	adc	r25, r25
    3fb2:	8a 5b       	subi	r24, 0xBA	; 186
    3fb4:	9b 4e       	sbci	r25, 0xEB	; 235
    3fb6:	fc 01       	movw	r30, r24
    3fb8:	31 83       	std	Z+1, r19	; 0x01
    3fba:	20 83       	st	Z, r18
		i++;             // increment i
    3fbc:	8f 85       	ldd	r24, Y+15	; 0x0f
    3fbe:	98 89       	ldd	r25, Y+16	; 0x10
    3fc0:	01 96       	adiw	r24, 0x01	; 1
    3fc2:	98 8b       	std	Y+16, r25	; 0x10
    3fc4:	8f 87       	std	Y+15, r24	; 0x0f
		j--;          // decrement j
    3fc6:	89 89       	ldd	r24, Y+17	; 0x11
    3fc8:	9a 89       	ldd	r25, Y+18	; 0x12
    3fca:	01 97       	sbiw	r24, 0x01	; 1
    3fcc:	9a 8b       	std	Y+18, r25	; 0x12
    3fce:	89 8b       	std	Y+17, r24	; 0x11
	}
	
	j = steps - 1;   // j will Point to last Element
	i = 0;       // i will be pointing to first element
	
	while (i < j) {
    3fd0:	2f 85       	ldd	r18, Y+15	; 0x0f
    3fd2:	38 89       	ldd	r19, Y+16	; 0x10
    3fd4:	89 89       	ldd	r24, Y+17	; 0x11
    3fd6:	9a 89       	ldd	r25, Y+18	; 0x12
    3fd8:	28 17       	cp	r18, r24
    3fda:	39 07       	cpc	r19, r25
    3fdc:	14 f2       	brlt	.-124    	; 0x3f62 <main+0x638>

		  
	
while(1)
	{   //code to follow black line
horizontal();
    3fde:	0e 94 a7 12 	call	0x254e	; 0x254e <horizontal>
		l = ADC_Conversion(3);	//Getting data of Left WL Sensor
    3fe2:	83 e0       	ldi	r24, 0x03	; 3
    3fe4:	0e 94 46 11 	call	0x228c	; 0x228c <ADC_Conversion>
    3fe8:	88 2f       	mov	r24, r24
    3fea:	90 e0       	ldi	r25, 0x00	; 0
    3fec:	a0 e0       	ldi	r26, 0x00	; 0
    3fee:	b0 e0       	ldi	r27, 0x00	; 0
    3ff0:	bc 01       	movw	r22, r24
    3ff2:	cd 01       	movw	r24, r26
    3ff4:	0e 94 0c 28 	call	0x5018	; 0x5018 <__floatunsisf>
    3ff8:	dc 01       	movw	r26, r24
    3ffa:	cb 01       	movw	r24, r22
    3ffc:	8b ab       	std	Y+51, r24	; 0x33
    3ffe:	9c ab       	std	Y+52, r25	; 0x34
    4000:	ad ab       	std	Y+53, r26	; 0x35
    4002:	be ab       	std	Y+54, r27	; 0x36
		c = ADC_Conversion(2);	//Getting data of Center WL Sensor
    4004:	82 e0       	ldi	r24, 0x02	; 2
    4006:	0e 94 46 11 	call	0x228c	; 0x228c <ADC_Conversion>
    400a:	88 2f       	mov	r24, r24
    400c:	90 e0       	ldi	r25, 0x00	; 0
    400e:	a0 e0       	ldi	r26, 0x00	; 0
    4010:	b0 e0       	ldi	r27, 0x00	; 0
    4012:	bc 01       	movw	r22, r24
    4014:	cd 01       	movw	r24, r26
    4016:	0e 94 0c 28 	call	0x5018	; 0x5018 <__floatunsisf>
    401a:	dc 01       	movw	r26, r24
    401c:	cb 01       	movw	r24, r22
    401e:	8f ab       	std	Y+55, r24	; 0x37
    4020:	98 af       	std	Y+56, r25	; 0x38
    4022:	a9 af       	std	Y+57, r26	; 0x39
    4024:	ba af       	std	Y+58, r27	; 0x3a
		r = ADC_Conversion(1);	//Getting data of Right WL Sensor
    4026:	81 e0       	ldi	r24, 0x01	; 1
    4028:	0e 94 46 11 	call	0x228c	; 0x228c <ADC_Conversion>
    402c:	88 2f       	mov	r24, r24
    402e:	90 e0       	ldi	r25, 0x00	; 0
    4030:	a0 e0       	ldi	r26, 0x00	; 0
    4032:	b0 e0       	ldi	r27, 0x00	; 0
    4034:	bc 01       	movw	r22, r24
    4036:	cd 01       	movw	r24, r26
    4038:	ef d7       	rcall	.+4062   	; 0x5018 <__floatunsisf>
    403a:	dc 01       	movw	r26, r24
    403c:	cb 01       	movw	r24, r22
    403e:	8b af       	std	Y+59, r24	; 0x3b
    4040:	9c af       	std	Y+60, r25	; 0x3c
    4042:	ad af       	std	Y+61, r26	; 0x3d
    4044:	be af       	std	Y+62, r27	; 0x3e
		
		
		
		if ((l<threshold)&&(c>=threshold)&&(r<threshold))//white  black  white
    4046:	89 a5       	ldd	r24, Y+41	; 0x29
    4048:	9a a5       	ldd	r25, Y+42	; 0x2a
    404a:	09 2e       	mov	r0, r25
    404c:	00 0c       	add	r0, r0
    404e:	aa 0b       	sbc	r26, r26
    4050:	bb 0b       	sbc	r27, r27
    4052:	bc 01       	movw	r22, r24
    4054:	cd 01       	movw	r24, r26
    4056:	e2 d7       	rcall	.+4036   	; 0x501c <__floatsisf>
    4058:	dc 01       	movw	r26, r24
    405a:	cb 01       	movw	r24, r22
    405c:	2b a9       	ldd	r18, Y+51	; 0x33
    405e:	3c a9       	ldd	r19, Y+52	; 0x34
    4060:	4d a9       	ldd	r20, Y+53	; 0x35
    4062:	5e a9       	ldd	r21, Y+54	; 0x36
    4064:	bc 01       	movw	r22, r24
    4066:	cd 01       	movw	r24, r26
    4068:	0e 94 be 28 	call	0x517c	; 0x517c <__gesf2>
    406c:	18 16       	cp	r1, r24
    406e:	7c f5       	brge	.+94     	; 0x40ce <main+0x7a4>
    4070:	89 a5       	ldd	r24, Y+41	; 0x29
    4072:	9a a5       	ldd	r25, Y+42	; 0x2a
    4074:	09 2e       	mov	r0, r25
    4076:	00 0c       	add	r0, r0
    4078:	aa 0b       	sbc	r26, r26
    407a:	bb 0b       	sbc	r27, r27
    407c:	bc 01       	movw	r22, r24
    407e:	cd 01       	movw	r24, r26
    4080:	cd d7       	rcall	.+3994   	; 0x501c <__floatsisf>
    4082:	dc 01       	movw	r26, r24
    4084:	cb 01       	movw	r24, r22
    4086:	2f a9       	ldd	r18, Y+55	; 0x37
    4088:	38 ad       	ldd	r19, Y+56	; 0x38
    408a:	49 ad       	ldd	r20, Y+57	; 0x39
    408c:	5a ad       	ldd	r21, Y+58	; 0x3a
    408e:	bc 01       	movw	r22, r24
    4090:	cd 01       	movw	r24, r26
    4092:	2a d7       	rcall	.+3668   	; 0x4ee8 <__cmpsf2>
    4094:	18 16       	cp	r1, r24
    4096:	dc f0       	brlt	.+54     	; 0x40ce <main+0x7a4>
    4098:	89 a5       	ldd	r24, Y+41	; 0x29
    409a:	9a a5       	ldd	r25, Y+42	; 0x2a
    409c:	09 2e       	mov	r0, r25
    409e:	00 0c       	add	r0, r0
    40a0:	aa 0b       	sbc	r26, r26
    40a2:	bb 0b       	sbc	r27, r27
    40a4:	bc 01       	movw	r22, r24
    40a6:	cd 01       	movw	r24, r26
    40a8:	b9 d7       	rcall	.+3954   	; 0x501c <__floatsisf>
    40aa:	dc 01       	movw	r26, r24
    40ac:	cb 01       	movw	r24, r22
    40ae:	2b ad       	ldd	r18, Y+59	; 0x3b
    40b0:	3c ad       	ldd	r19, Y+60	; 0x3c
    40b2:	4d ad       	ldd	r20, Y+61	; 0x3d
    40b4:	5e ad       	ldd	r21, Y+62	; 0x3e
    40b6:	bc 01       	movw	r22, r24
    40b8:	cd 01       	movw	r24, r26
    40ba:	0e 94 be 28 	call	0x517c	; 0x517c <__gesf2>
    40be:	18 16       	cp	r1, r24
    40c0:	34 f4       	brge	.+12     	; 0x40ce <main+0x7a4>
		{
			forward();
    40c2:	0e 94 c2 11 	call	0x2384	; 0x2384 <forward>
			velocity(230,230);
    40c6:	66 ee       	ldi	r22, 0xE6	; 230
    40c8:	86 ee       	ldi	r24, 0xE6	; 230
    40ca:	0e 94 8a 11 	call	0x2314	; 0x2314 <velocity>
		}
		if ((l>=threshold)&&(c<threshold)&&(r<threshold))//black  white  white
    40ce:	89 a5       	ldd	r24, Y+41	; 0x29
    40d0:	9a a5       	ldd	r25, Y+42	; 0x2a
    40d2:	09 2e       	mov	r0, r25
    40d4:	00 0c       	add	r0, r0
    40d6:	aa 0b       	sbc	r26, r26
    40d8:	bb 0b       	sbc	r27, r27
    40da:	bc 01       	movw	r22, r24
    40dc:	cd 01       	movw	r24, r26
    40de:	9e d7       	rcall	.+3900   	; 0x501c <__floatsisf>
    40e0:	dc 01       	movw	r26, r24
    40e2:	cb 01       	movw	r24, r22
    40e4:	2b a9       	ldd	r18, Y+51	; 0x33
    40e6:	3c a9       	ldd	r19, Y+52	; 0x34
    40e8:	4d a9       	ldd	r20, Y+53	; 0x35
    40ea:	5e a9       	ldd	r21, Y+54	; 0x36
    40ec:	bc 01       	movw	r22, r24
    40ee:	cd 01       	movw	r24, r26
    40f0:	fb d6       	rcall	.+3574   	; 0x4ee8 <__cmpsf2>
    40f2:	18 16       	cp	r1, r24
    40f4:	84 f1       	brlt	.+96     	; 0x4156 <main+0x82c>
    40f6:	89 a5       	ldd	r24, Y+41	; 0x29
    40f8:	9a a5       	ldd	r25, Y+42	; 0x2a
    40fa:	09 2e       	mov	r0, r25
    40fc:	00 0c       	add	r0, r0
    40fe:	aa 0b       	sbc	r26, r26
    4100:	bb 0b       	sbc	r27, r27
    4102:	bc 01       	movw	r22, r24
    4104:	cd 01       	movw	r24, r26
    4106:	8a d7       	rcall	.+3860   	; 0x501c <__floatsisf>
    4108:	dc 01       	movw	r26, r24
    410a:	cb 01       	movw	r24, r22
    410c:	2f a9       	ldd	r18, Y+55	; 0x37
    410e:	38 ad       	ldd	r19, Y+56	; 0x38
    4110:	49 ad       	ldd	r20, Y+57	; 0x39
    4112:	5a ad       	ldd	r21, Y+58	; 0x3a
    4114:	bc 01       	movw	r22, r24
    4116:	cd 01       	movw	r24, r26
    4118:	0e 94 be 28 	call	0x517c	; 0x517c <__gesf2>
    411c:	18 16       	cp	r1, r24
    411e:	dc f4       	brge	.+54     	; 0x4156 <main+0x82c>
    4120:	89 a5       	ldd	r24, Y+41	; 0x29
    4122:	9a a5       	ldd	r25, Y+42	; 0x2a
    4124:	09 2e       	mov	r0, r25
    4126:	00 0c       	add	r0, r0
    4128:	aa 0b       	sbc	r26, r26
    412a:	bb 0b       	sbc	r27, r27
    412c:	bc 01       	movw	r22, r24
    412e:	cd 01       	movw	r24, r26
    4130:	75 d7       	rcall	.+3818   	; 0x501c <__floatsisf>
    4132:	dc 01       	movw	r26, r24
    4134:	cb 01       	movw	r24, r22
    4136:	2b ad       	ldd	r18, Y+59	; 0x3b
    4138:	3c ad       	ldd	r19, Y+60	; 0x3c
    413a:	4d ad       	ldd	r20, Y+61	; 0x3d
    413c:	5e ad       	ldd	r21, Y+62	; 0x3e
    413e:	bc 01       	movw	r22, r24
    4140:	cd 01       	movw	r24, r26
    4142:	0e 94 be 28 	call	0x517c	; 0x517c <__gesf2>
    4146:	18 16       	cp	r1, r24
    4148:	34 f4       	brge	.+12     	; 0x4156 <main+0x82c>
		{
			
			soft_left();
    414a:	0e 94 ef 11 	call	0x23de	; 0x23de <soft_left>
			velocity(230,230);
    414e:	66 ee       	ldi	r22, 0xE6	; 230
    4150:	86 ee       	ldi	r24, 0xE6	; 230
    4152:	0e 94 8a 11 	call	0x2314	; 0x2314 <velocity>
		}
		if ((l<threshold)&&(c<threshold)&&(r>=threshold))//W   W   B
    4156:	89 a5       	ldd	r24, Y+41	; 0x29
    4158:	9a a5       	ldd	r25, Y+42	; 0x2a
    415a:	09 2e       	mov	r0, r25
    415c:	00 0c       	add	r0, r0
    415e:	aa 0b       	sbc	r26, r26
    4160:	bb 0b       	sbc	r27, r27
    4162:	bc 01       	movw	r22, r24
    4164:	cd 01       	movw	r24, r26
    4166:	5a d7       	rcall	.+3764   	; 0x501c <__floatsisf>
    4168:	dc 01       	movw	r26, r24
    416a:	cb 01       	movw	r24, r22
    416c:	2b a9       	ldd	r18, Y+51	; 0x33
    416e:	3c a9       	ldd	r19, Y+52	; 0x34
    4170:	4d a9       	ldd	r20, Y+53	; 0x35
    4172:	5e a9       	ldd	r21, Y+54	; 0x36
    4174:	bc 01       	movw	r22, r24
    4176:	cd 01       	movw	r24, r26
    4178:	0e 94 be 28 	call	0x517c	; 0x517c <__gesf2>
    417c:	18 16       	cp	r1, r24
    417e:	74 f5       	brge	.+92     	; 0x41dc <main+0x8b2>
    4180:	89 a5       	ldd	r24, Y+41	; 0x29
    4182:	9a a5       	ldd	r25, Y+42	; 0x2a
    4184:	09 2e       	mov	r0, r25
    4186:	00 0c       	add	r0, r0
    4188:	aa 0b       	sbc	r26, r26
    418a:	bb 0b       	sbc	r27, r27
    418c:	bc 01       	movw	r22, r24
    418e:	cd 01       	movw	r24, r26
    4190:	45 d7       	rcall	.+3722   	; 0x501c <__floatsisf>
    4192:	dc 01       	movw	r26, r24
    4194:	cb 01       	movw	r24, r22
    4196:	2f a9       	ldd	r18, Y+55	; 0x37
    4198:	38 ad       	ldd	r19, Y+56	; 0x38
    419a:	49 ad       	ldd	r20, Y+57	; 0x39
    419c:	5a ad       	ldd	r21, Y+58	; 0x3a
    419e:	bc 01       	movw	r22, r24
    41a0:	cd 01       	movw	r24, r26
    41a2:	ec d7       	rcall	.+4056   	; 0x517c <__gesf2>
    41a4:	18 16       	cp	r1, r24
    41a6:	d4 f4       	brge	.+52     	; 0x41dc <main+0x8b2>
    41a8:	89 a5       	ldd	r24, Y+41	; 0x29
    41aa:	9a a5       	ldd	r25, Y+42	; 0x2a
    41ac:	09 2e       	mov	r0, r25
    41ae:	00 0c       	add	r0, r0
    41b0:	aa 0b       	sbc	r26, r26
    41b2:	bb 0b       	sbc	r27, r27
    41b4:	bc 01       	movw	r22, r24
    41b6:	cd 01       	movw	r24, r26
    41b8:	31 d7       	rcall	.+3682   	; 0x501c <__floatsisf>
    41ba:	dc 01       	movw	r26, r24
    41bc:	cb 01       	movw	r24, r22
    41be:	2b ad       	ldd	r18, Y+59	; 0x3b
    41c0:	3c ad       	ldd	r19, Y+60	; 0x3c
    41c2:	4d ad       	ldd	r20, Y+61	; 0x3d
    41c4:	5e ad       	ldd	r21, Y+62	; 0x3e
    41c6:	bc 01       	movw	r22, r24
    41c8:	cd 01       	movw	r24, r26
    41ca:	8e d6       	rcall	.+3356   	; 0x4ee8 <__cmpsf2>
    41cc:	18 16       	cp	r1, r24
    41ce:	34 f0       	brlt	.+12     	; 0x41dc <main+0x8b2>
		{
			
			soft_right();
    41d0:	0e 94 f8 11 	call	0x23f0	; 0x23f0 <soft_right>
			velocity(230,230);
    41d4:	66 ee       	ldi	r22, 0xE6	; 230
    41d6:	86 ee       	ldi	r24, 0xE6	; 230
    41d8:	0e 94 8a 11 	call	0x2314	; 0x2314 <velocity>
		}
		if (((l>=threshold)&&(c>=threshold)&&(r>=threshold))||((l>=threshold)&&(c>=threshold)&&(r<threshold))||((l<threshold)&&(c>=threshold)&&(r>=threshold)))//NODES
    41dc:	89 a5       	ldd	r24, Y+41	; 0x29
    41de:	9a a5       	ldd	r25, Y+42	; 0x2a
    41e0:	09 2e       	mov	r0, r25
    41e2:	00 0c       	add	r0, r0
    41e4:	aa 0b       	sbc	r26, r26
    41e6:	bb 0b       	sbc	r27, r27
    41e8:	bc 01       	movw	r22, r24
    41ea:	cd 01       	movw	r24, r26
    41ec:	17 d7       	rcall	.+3630   	; 0x501c <__floatsisf>
    41ee:	dc 01       	movw	r26, r24
    41f0:	cb 01       	movw	r24, r22
    41f2:	2b a9       	ldd	r18, Y+51	; 0x33
    41f4:	3c a9       	ldd	r19, Y+52	; 0x34
    41f6:	4d a9       	ldd	r20, Y+53	; 0x35
    41f8:	5e a9       	ldd	r21, Y+54	; 0x36
    41fa:	bc 01       	movw	r22, r24
    41fc:	cd 01       	movw	r24, r26
    41fe:	74 d6       	rcall	.+3304   	; 0x4ee8 <__cmpsf2>
    4200:	18 16       	cp	r1, r24
    4202:	4c f1       	brlt	.+82     	; 0x4256 <main+0x92c>
    4204:	89 a5       	ldd	r24, Y+41	; 0x29
    4206:	9a a5       	ldd	r25, Y+42	; 0x2a
    4208:	09 2e       	mov	r0, r25
    420a:	00 0c       	add	r0, r0
    420c:	aa 0b       	sbc	r26, r26
    420e:	bb 0b       	sbc	r27, r27
    4210:	bc 01       	movw	r22, r24
    4212:	cd 01       	movw	r24, r26
    4214:	03 d7       	rcall	.+3590   	; 0x501c <__floatsisf>
    4216:	dc 01       	movw	r26, r24
    4218:	cb 01       	movw	r24, r22
    421a:	2f a9       	ldd	r18, Y+55	; 0x37
    421c:	38 ad       	ldd	r19, Y+56	; 0x38
    421e:	49 ad       	ldd	r20, Y+57	; 0x39
    4220:	5a ad       	ldd	r21, Y+58	; 0x3a
    4222:	bc 01       	movw	r22, r24
    4224:	cd 01       	movw	r24, r26
    4226:	60 d6       	rcall	.+3264   	; 0x4ee8 <__cmpsf2>
    4228:	18 16       	cp	r1, r24
    422a:	ac f0       	brlt	.+42     	; 0x4256 <main+0x92c>
    422c:	89 a5       	ldd	r24, Y+41	; 0x29
    422e:	9a a5       	ldd	r25, Y+42	; 0x2a
    4230:	09 2e       	mov	r0, r25
    4232:	00 0c       	add	r0, r0
    4234:	aa 0b       	sbc	r26, r26
    4236:	bb 0b       	sbc	r27, r27
    4238:	bc 01       	movw	r22, r24
    423a:	cd 01       	movw	r24, r26
    423c:	ef d6       	rcall	.+3550   	; 0x501c <__floatsisf>
    423e:	dc 01       	movw	r26, r24
    4240:	cb 01       	movw	r24, r22
    4242:	2b ad       	ldd	r18, Y+59	; 0x3b
    4244:	3c ad       	ldd	r19, Y+60	; 0x3c
    4246:	4d ad       	ldd	r20, Y+61	; 0x3d
    4248:	5e ad       	ldd	r21, Y+62	; 0x3e
    424a:	bc 01       	movw	r22, r24
    424c:	cd 01       	movw	r24, r26
    424e:	4c d6       	rcall	.+3224   	; 0x4ee8 <__cmpsf2>
    4250:	18 16       	cp	r1, r24
    4252:	0c f0       	brlt	.+2      	; 0x4256 <main+0x92c>
    4254:	7c c0       	rjmp	.+248    	; 0x434e <main+0xa24>
    4256:	89 a5       	ldd	r24, Y+41	; 0x29
    4258:	9a a5       	ldd	r25, Y+42	; 0x2a
    425a:	09 2e       	mov	r0, r25
    425c:	00 0c       	add	r0, r0
    425e:	aa 0b       	sbc	r26, r26
    4260:	bb 0b       	sbc	r27, r27
    4262:	bc 01       	movw	r22, r24
    4264:	cd 01       	movw	r24, r26
    4266:	da d6       	rcall	.+3508   	; 0x501c <__floatsisf>
    4268:	dc 01       	movw	r26, r24
    426a:	cb 01       	movw	r24, r22
    426c:	2b a9       	ldd	r18, Y+51	; 0x33
    426e:	3c a9       	ldd	r19, Y+52	; 0x34
    4270:	4d a9       	ldd	r20, Y+53	; 0x35
    4272:	5e a9       	ldd	r21, Y+54	; 0x36
    4274:	bc 01       	movw	r22, r24
    4276:	cd 01       	movw	r24, r26
    4278:	37 d6       	rcall	.+3182   	; 0x4ee8 <__cmpsf2>
    427a:	18 16       	cp	r1, r24
    427c:	4c f1       	brlt	.+82     	; 0x42d0 <main+0x9a6>
    427e:	89 a5       	ldd	r24, Y+41	; 0x29
    4280:	9a a5       	ldd	r25, Y+42	; 0x2a
    4282:	09 2e       	mov	r0, r25
    4284:	00 0c       	add	r0, r0
    4286:	aa 0b       	sbc	r26, r26
    4288:	bb 0b       	sbc	r27, r27
    428a:	bc 01       	movw	r22, r24
    428c:	cd 01       	movw	r24, r26
    428e:	c6 d6       	rcall	.+3468   	; 0x501c <__floatsisf>
    4290:	dc 01       	movw	r26, r24
    4292:	cb 01       	movw	r24, r22
    4294:	2f a9       	ldd	r18, Y+55	; 0x37
    4296:	38 ad       	ldd	r19, Y+56	; 0x38
    4298:	49 ad       	ldd	r20, Y+57	; 0x39
    429a:	5a ad       	ldd	r21, Y+58	; 0x3a
    429c:	bc 01       	movw	r22, r24
    429e:	cd 01       	movw	r24, r26
    42a0:	23 d6       	rcall	.+3142   	; 0x4ee8 <__cmpsf2>
    42a2:	18 16       	cp	r1, r24
    42a4:	ac f0       	brlt	.+42     	; 0x42d0 <main+0x9a6>
    42a6:	89 a5       	ldd	r24, Y+41	; 0x29
    42a8:	9a a5       	ldd	r25, Y+42	; 0x2a
    42aa:	09 2e       	mov	r0, r25
    42ac:	00 0c       	add	r0, r0
    42ae:	aa 0b       	sbc	r26, r26
    42b0:	bb 0b       	sbc	r27, r27
    42b2:	bc 01       	movw	r22, r24
    42b4:	cd 01       	movw	r24, r26
    42b6:	b2 d6       	rcall	.+3428   	; 0x501c <__floatsisf>
    42b8:	dc 01       	movw	r26, r24
    42ba:	cb 01       	movw	r24, r22
    42bc:	2b ad       	ldd	r18, Y+59	; 0x3b
    42be:	3c ad       	ldd	r19, Y+60	; 0x3c
    42c0:	4d ad       	ldd	r20, Y+61	; 0x3d
    42c2:	5e ad       	ldd	r21, Y+62	; 0x3e
    42c4:	bc 01       	movw	r22, r24
    42c6:	cd 01       	movw	r24, r26
    42c8:	59 d7       	rcall	.+3762   	; 0x517c <__gesf2>
    42ca:	18 16       	cp	r1, r24
    42cc:	0c f4       	brge	.+2      	; 0x42d0 <main+0x9a6>
    42ce:	3f c0       	rjmp	.+126    	; 0x434e <main+0xa24>
    42d0:	89 a5       	ldd	r24, Y+41	; 0x29
    42d2:	9a a5       	ldd	r25, Y+42	; 0x2a
    42d4:	09 2e       	mov	r0, r25
    42d6:	00 0c       	add	r0, r0
    42d8:	aa 0b       	sbc	r26, r26
    42da:	bb 0b       	sbc	r27, r27
    42dc:	bc 01       	movw	r22, r24
    42de:	cd 01       	movw	r24, r26
    42e0:	9d d6       	rcall	.+3386   	; 0x501c <__floatsisf>
    42e2:	dc 01       	movw	r26, r24
    42e4:	cb 01       	movw	r24, r22
    42e6:	2b a9       	ldd	r18, Y+51	; 0x33
    42e8:	3c a9       	ldd	r19, Y+52	; 0x34
    42ea:	4d a9       	ldd	r20, Y+53	; 0x35
    42ec:	5e a9       	ldd	r21, Y+54	; 0x36
    42ee:	bc 01       	movw	r22, r24
    42f0:	cd 01       	movw	r24, r26
    42f2:	44 d7       	rcall	.+3720   	; 0x517c <__gesf2>
    42f4:	18 16       	cp	r1, r24
    42f6:	0c f0       	brlt	.+2      	; 0x42fa <main+0x9d0>
    42f8:	d8 c3       	rjmp	.+1968   	; 0x4aaa <main+0x1180>
    42fa:	89 a5       	ldd	r24, Y+41	; 0x29
    42fc:	9a a5       	ldd	r25, Y+42	; 0x2a
    42fe:	09 2e       	mov	r0, r25
    4300:	00 0c       	add	r0, r0
    4302:	aa 0b       	sbc	r26, r26
    4304:	bb 0b       	sbc	r27, r27
    4306:	bc 01       	movw	r22, r24
    4308:	cd 01       	movw	r24, r26
    430a:	88 d6       	rcall	.+3344   	; 0x501c <__floatsisf>
    430c:	dc 01       	movw	r26, r24
    430e:	cb 01       	movw	r24, r22
    4310:	2f a9       	ldd	r18, Y+55	; 0x37
    4312:	38 ad       	ldd	r19, Y+56	; 0x38
    4314:	49 ad       	ldd	r20, Y+57	; 0x39
    4316:	5a ad       	ldd	r21, Y+58	; 0x3a
    4318:	bc 01       	movw	r22, r24
    431a:	cd 01       	movw	r24, r26
    431c:	e5 d5       	rcall	.+3018   	; 0x4ee8 <__cmpsf2>
    431e:	18 16       	cp	r1, r24
    4320:	0c f4       	brge	.+2      	; 0x4324 <main+0x9fa>
    4322:	c3 c3       	rjmp	.+1926   	; 0x4aaa <main+0x1180>
    4324:	89 a5       	ldd	r24, Y+41	; 0x29
    4326:	9a a5       	ldd	r25, Y+42	; 0x2a
    4328:	09 2e       	mov	r0, r25
    432a:	00 0c       	add	r0, r0
    432c:	aa 0b       	sbc	r26, r26
    432e:	bb 0b       	sbc	r27, r27
    4330:	bc 01       	movw	r22, r24
    4332:	cd 01       	movw	r24, r26
    4334:	73 d6       	rcall	.+3302   	; 0x501c <__floatsisf>
    4336:	dc 01       	movw	r26, r24
    4338:	cb 01       	movw	r24, r22
    433a:	2b ad       	ldd	r18, Y+59	; 0x3b
    433c:	3c ad       	ldd	r19, Y+60	; 0x3c
    433e:	4d ad       	ldd	r20, Y+61	; 0x3d
    4340:	5e ad       	ldd	r21, Y+62	; 0x3e
    4342:	bc 01       	movw	r22, r24
    4344:	cd 01       	movw	r24, r26
    4346:	d0 d5       	rcall	.+2976   	; 0x4ee8 <__cmpsf2>
    4348:	18 16       	cp	r1, r24
    434a:	0c f4       	brge	.+2      	; 0x434e <main+0xa24>
    434c:	ae c3       	rjmp	.+1884   	; 0x4aaa <main+0x1180>
		{
			stop();
    434e:	0e 94 e6 11 	call	0x23cc	; 0x23cc <stop>
    4352:	9e 01       	movw	r18, r28
    4354:	23 5b       	subi	r18, 0xB3	; 179
    4356:	3f 4f       	sbci	r19, 0xFF	; 255
    4358:	80 e0       	ldi	r24, 0x00	; 0
    435a:	90 e0       	ldi	r25, 0x00	; 0
    435c:	a8 e4       	ldi	r26, 0x48	; 72
    435e:	b3 e4       	ldi	r27, 0x43	; 67
    4360:	f9 01       	movw	r30, r18
    4362:	80 83       	st	Z, r24
    4364:	91 83       	std	Z+1, r25	; 0x01
    4366:	a2 83       	std	Z+2, r26	; 0x02
    4368:	b3 83       	std	Z+3, r27	; 0x03

	__builtin_avr_delay_cycles(__ticks_dc);

#else
	uint16_t __ticks;
	__tmp = ((F_CPU) / 4e3) * __ms;
    436a:	8e 01       	movw	r16, r28
    436c:	0f 5a       	subi	r16, 0xAF	; 175
    436e:	1f 4f       	sbci	r17, 0xFF	; 255
    4370:	ce 01       	movw	r24, r28
    4372:	83 5b       	subi	r24, 0xB3	; 179
    4374:	9f 4f       	sbci	r25, 0xFF	; 255
    4376:	26 e6       	ldi	r18, 0x66	; 102
    4378:	36 e6       	ldi	r19, 0x66	; 102
    437a:	46 e6       	ldi	r20, 0x66	; 102
    437c:	55 e4       	ldi	r21, 0x45	; 69
    437e:	fc 01       	movw	r30, r24
    4380:	60 81       	ld	r22, Z
    4382:	71 81       	ldd	r23, Z+1	; 0x01
    4384:	82 81       	ldd	r24, Z+2	; 0x02
    4386:	93 81       	ldd	r25, Z+3	; 0x03
    4388:	fd d6       	rcall	.+3578   	; 0x5184 <__mulsf3>
    438a:	dc 01       	movw	r26, r24
    438c:	cb 01       	movw	r24, r22
    438e:	f8 01       	movw	r30, r16
    4390:	80 83       	st	Z, r24
    4392:	91 83       	std	Z+1, r25	; 0x01
    4394:	a2 83       	std	Z+2, r26	; 0x02
    4396:	b3 83       	std	Z+3, r27	; 0x03
	if (__tmp < 1.0)
    4398:	ce 01       	movw	r24, r28
    439a:	8f 5a       	subi	r24, 0xAF	; 175
    439c:	9f 4f       	sbci	r25, 0xFF	; 255
    439e:	20 e0       	ldi	r18, 0x00	; 0
    43a0:	30 e0       	ldi	r19, 0x00	; 0
    43a2:	40 e8       	ldi	r20, 0x80	; 128
    43a4:	5f e3       	ldi	r21, 0x3F	; 63
    43a6:	fc 01       	movw	r30, r24
    43a8:	60 81       	ld	r22, Z
    43aa:	71 81       	ldd	r23, Z+1	; 0x01
    43ac:	82 81       	ldd	r24, Z+2	; 0x02
    43ae:	93 81       	ldd	r25, Z+3	; 0x03
    43b0:	9b d5       	rcall	.+2870   	; 0x4ee8 <__cmpsf2>
    43b2:	88 23       	and	r24, r24
    43b4:	4c f4       	brge	.+18     	; 0x43c8 <main+0xa9e>
		__ticks = 1;
    43b6:	ce 01       	movw	r24, r28
    43b8:	8b 5a       	subi	r24, 0xAB	; 171
    43ba:	9f 4f       	sbci	r25, 0xFF	; 255
    43bc:	21 e0       	ldi	r18, 0x01	; 1
    43be:	30 e0       	ldi	r19, 0x00	; 0
    43c0:	fc 01       	movw	r30, r24
    43c2:	31 83       	std	Z+1, r19	; 0x01
    43c4:	20 83       	st	Z, r18
    43c6:	69 c0       	rjmp	.+210    	; 0x449a <main+0xb70>
	else if (__tmp > 65535)
    43c8:	ce 01       	movw	r24, r28
    43ca:	8f 5a       	subi	r24, 0xAF	; 175
    43cc:	9f 4f       	sbci	r25, 0xFF	; 255
    43ce:	20 e0       	ldi	r18, 0x00	; 0
    43d0:	3f ef       	ldi	r19, 0xFF	; 255
    43d2:	4f e7       	ldi	r20, 0x7F	; 127
    43d4:	57 e4       	ldi	r21, 0x47	; 71
    43d6:	fc 01       	movw	r30, r24
    43d8:	60 81       	ld	r22, Z
    43da:	71 81       	ldd	r23, Z+1	; 0x01
    43dc:	82 81       	ldd	r24, Z+2	; 0x02
    43de:	93 81       	ldd	r25, Z+3	; 0x03
    43e0:	cd d6       	rcall	.+3482   	; 0x517c <__gesf2>
    43e2:	18 16       	cp	r1, r24
    43e4:	0c f0       	brlt	.+2      	; 0x43e8 <main+0xabe>
    43e6:	48 c0       	rjmp	.+144    	; 0x4478 <main+0xb4e>
	{
		//	__ticks = requested delay in 1/10 ms
		__ticks = (uint16_t) (__ms * 10.0);
    43e8:	ce 01       	movw	r24, r28
    43ea:	83 5b       	subi	r24, 0xB3	; 179
    43ec:	9f 4f       	sbci	r25, 0xFF	; 255
    43ee:	20 e0       	ldi	r18, 0x00	; 0
    43f0:	30 e0       	ldi	r19, 0x00	; 0
    43f2:	40 e2       	ldi	r20, 0x20	; 32
    43f4:	51 e4       	ldi	r21, 0x41	; 65
    43f6:	fc 01       	movw	r30, r24
    43f8:	60 81       	ld	r22, Z
    43fa:	71 81       	ldd	r23, Z+1	; 0x01
    43fc:	82 81       	ldd	r24, Z+2	; 0x02
    43fe:	93 81       	ldd	r25, Z+3	; 0x03
    4400:	c1 d6       	rcall	.+3458   	; 0x5184 <__mulsf3>
    4402:	dc 01       	movw	r26, r24
    4404:	cb 01       	movw	r24, r22
    4406:	8e 01       	movw	r16, r28
    4408:	0b 5a       	subi	r16, 0xAB	; 171
    440a:	1f 4f       	sbci	r17, 0xFF	; 255
    440c:	bc 01       	movw	r22, r24
    440e:	cd 01       	movw	r24, r26
    4410:	d7 d5       	rcall	.+2990   	; 0x4fc0 <__fixunssfsi>
    4412:	dc 01       	movw	r26, r24
    4414:	cb 01       	movw	r24, r22
    4416:	f8 01       	movw	r30, r16
    4418:	91 83       	std	Z+1, r25	; 0x01
    441a:	80 83       	st	Z, r24
    441c:	24 c0       	rjmp	.+72     	; 0x4466 <main+0xb3c>
    441e:	ce 01       	movw	r24, r28
    4420:	89 5a       	subi	r24, 0xA9	; 169
    4422:	9f 4f       	sbci	r25, 0xFF	; 255
    4424:	20 e7       	ldi	r18, 0x70	; 112
    4426:	31 e0       	ldi	r19, 0x01	; 1
    4428:	fc 01       	movw	r30, r24
    442a:	31 83       	std	Z+1, r19	; 0x01
    442c:	20 83       	st	Z, r18
    442e:	ce 01       	movw	r24, r28
    4430:	89 5a       	subi	r24, 0xA9	; 169
    4432:	9f 4f       	sbci	r25, 0xFF	; 255
    4434:	fc 01       	movw	r30, r24
    4436:	80 81       	ld	r24, Z
    4438:	91 81       	ldd	r25, Z+1	; 0x01
    443a:	01 97       	sbiw	r24, 0x01	; 1
    443c:	f1 f7       	brne	.-4      	; 0x443a <main+0xb10>
    443e:	9e 01       	movw	r18, r28
    4440:	29 5a       	subi	r18, 0xA9	; 169
    4442:	3f 4f       	sbci	r19, 0xFF	; 255
    4444:	f9 01       	movw	r30, r18
    4446:	91 83       	std	Z+1, r25	; 0x01
    4448:	80 83       	st	Z, r24
		while(__ticks)
		{
			// wait 1/10 ms
			_delay_loop_2(((F_CPU) / 4e3) / 10);
			__ticks --;
    444a:	ce 01       	movw	r24, r28
    444c:	8b 5a       	subi	r24, 0xAB	; 171
    444e:	9f 4f       	sbci	r25, 0xFF	; 255
    4450:	9e 01       	movw	r18, r28
    4452:	2b 5a       	subi	r18, 0xAB	; 171
    4454:	3f 4f       	sbci	r19, 0xFF	; 255
    4456:	f9 01       	movw	r30, r18
    4458:	20 81       	ld	r18, Z
    445a:	31 81       	ldd	r19, Z+1	; 0x01
    445c:	21 50       	subi	r18, 0x01	; 1
    445e:	31 09       	sbc	r19, r1
    4460:	fc 01       	movw	r30, r24
    4462:	31 83       	std	Z+1, r19	; 0x01
    4464:	20 83       	st	Z, r18
		__ticks = 1;
	else if (__tmp > 65535)
	{
		//	__ticks = requested delay in 1/10 ms
		__ticks = (uint16_t) (__ms * 10.0);
		while(__ticks)
    4466:	ce 01       	movw	r24, r28
    4468:	8b 5a       	subi	r24, 0xAB	; 171
    446a:	9f 4f       	sbci	r25, 0xFF	; 255
    446c:	fc 01       	movw	r30, r24
    446e:	80 81       	ld	r24, Z
    4470:	91 81       	ldd	r25, Z+1	; 0x01
    4472:	89 2b       	or	r24, r25
    4474:	a1 f6       	brne	.-88     	; 0x441e <main+0xaf4>
    4476:	2b c0       	rjmp	.+86     	; 0x44ce <main+0xba4>
			__ticks --;
		}
		return;
	}
	else
		__ticks = (uint16_t)__tmp;
    4478:	8e 01       	movw	r16, r28
    447a:	0b 5a       	subi	r16, 0xAB	; 171
    447c:	1f 4f       	sbci	r17, 0xFF	; 255
    447e:	ce 01       	movw	r24, r28
    4480:	8f 5a       	subi	r24, 0xAF	; 175
    4482:	9f 4f       	sbci	r25, 0xFF	; 255
    4484:	fc 01       	movw	r30, r24
    4486:	60 81       	ld	r22, Z
    4488:	71 81       	ldd	r23, Z+1	; 0x01
    448a:	82 81       	ldd	r24, Z+2	; 0x02
    448c:	93 81       	ldd	r25, Z+3	; 0x03
    448e:	98 d5       	rcall	.+2864   	; 0x4fc0 <__fixunssfsi>
    4490:	dc 01       	movw	r26, r24
    4492:	cb 01       	movw	r24, r22
    4494:	f8 01       	movw	r30, r16
    4496:	91 83       	std	Z+1, r25	; 0x01
    4498:	80 83       	st	Z, r24
    449a:	ce 01       	movw	r24, r28
    449c:	87 5a       	subi	r24, 0xA7	; 167
    449e:	9f 4f       	sbci	r25, 0xFF	; 255
    44a0:	9e 01       	movw	r18, r28
    44a2:	2b 5a       	subi	r18, 0xAB	; 171
    44a4:	3f 4f       	sbci	r19, 0xFF	; 255
    44a6:	f9 01       	movw	r30, r18
    44a8:	20 81       	ld	r18, Z
    44aa:	31 81       	ldd	r19, Z+1	; 0x01
    44ac:	fc 01       	movw	r30, r24
    44ae:	31 83       	std	Z+1, r19	; 0x01
    44b0:	20 83       	st	Z, r18
    44b2:	ce 01       	movw	r24, r28
    44b4:	87 5a       	subi	r24, 0xA7	; 167
    44b6:	9f 4f       	sbci	r25, 0xFF	; 255
    44b8:	fc 01       	movw	r30, r24
    44ba:	80 81       	ld	r24, Z
    44bc:	91 81       	ldd	r25, Z+1	; 0x01
    44be:	01 97       	sbiw	r24, 0x01	; 1
    44c0:	f1 f7       	brne	.-4      	; 0x44be <main+0xb94>
    44c2:	9e 01       	movw	r18, r28
    44c4:	27 5a       	subi	r18, 0xA7	; 167
    44c6:	3f 4f       	sbci	r19, 0xFF	; 255
    44c8:	f9 01       	movw	r30, r18
    44ca:	91 83       	std	Z+1, r25	; 0x01
    44cc:	80 83       	st	Z, r24
			_delay_ms(200);
			backward_mm(5);
    44ce:	85 e0       	ldi	r24, 0x05	; 5
    44d0:	90 e0       	ldi	r25, 0x00	; 0
    44d2:	0e 94 6f 0f 	call	0x1ede	; 0x1ede <backward_mm>
			stop();
    44d6:	0e 94 e6 11 	call	0x23cc	; 0x23cc <stop>
			horizontal();
    44da:	0e 94 a7 12 	call	0x254e	; 0x254e <horizontal>
			
			
						
			
		//	prev=prsnt;
			prsnt=path[p];
    44de:	8d 85       	ldd	r24, Y+13	; 0x0d
    44e0:	9e 85       	ldd	r25, Y+14	; 0x0e
    44e2:	88 0f       	add	r24, r24
    44e4:	99 1f       	adc	r25, r25
    44e6:	8a 5b       	subi	r24, 0xBA	; 186
    44e8:	9b 4e       	sbci	r25, 0xEB	; 235
    44ea:	fc 01       	movw	r30, r24
    44ec:	80 81       	ld	r24, Z
    44ee:	91 81       	ldd	r25, Z+1	; 0x01
    44f0:	9c 8f       	std	Y+28, r25	; 0x1c
    44f2:	8b 8f       	std	Y+27, r24	; 0x1b
			nxt=path[p+1];
    44f4:	8d 85       	ldd	r24, Y+13	; 0x0d
    44f6:	9e 85       	ldd	r25, Y+14	; 0x0e
    44f8:	01 96       	adiw	r24, 0x01	; 1
    44fa:	88 0f       	add	r24, r24
    44fc:	99 1f       	adc	r25, r25
    44fe:	8a 5b       	subi	r24, 0xBA	; 186
    4500:	9b 4e       	sbci	r25, 0xEB	; 235
    4502:	fc 01       	movw	r30, r24
    4504:	80 81       	ld	r24, Z
    4506:	91 81       	ldd	r25, Z+1	; 0x01
    4508:	9c a7       	std	Y+44, r25	; 0x2c
    450a:	8b a7       	std	Y+43, r24	; 0x2b
			lcd_init();
    450c:	0e 94 1a 06 	call	0xc34	; 0xc34 <lcd_init>
			lcd_print(1,1,prev,3);
    4510:	89 8d       	ldd	r24, Y+25	; 0x19
    4512:	9a 8d       	ldd	r25, Y+26	; 0x1a
    4514:	23 e0       	ldi	r18, 0x03	; 3
    4516:	30 e0       	ldi	r19, 0x00	; 0
    4518:	ac 01       	movw	r20, r24
    451a:	61 e0       	ldi	r22, 0x01	; 1
    451c:	81 e0       	ldi	r24, 0x01	; 1
    451e:	0e 94 c6 09 	call	0x138c	; 0x138c <lcd_print>
			lcd_print(1,5,prsnt,3);
    4522:	8b 8d       	ldd	r24, Y+27	; 0x1b
    4524:	9c 8d       	ldd	r25, Y+28	; 0x1c
    4526:	23 e0       	ldi	r18, 0x03	; 3
    4528:	30 e0       	ldi	r19, 0x00	; 0
    452a:	ac 01       	movw	r20, r24
    452c:	65 e0       	ldi	r22, 0x05	; 5
    452e:	81 e0       	ldi	r24, 0x01	; 1
    4530:	0e 94 c6 09 	call	0x138c	; 0x138c <lcd_print>
			lcd_print(1,9,nxt,3);
    4534:	8b a5       	ldd	r24, Y+43	; 0x2b
    4536:	9c a5       	ldd	r25, Y+44	; 0x2c
    4538:	23 e0       	ldi	r18, 0x03	; 3
    453a:	30 e0       	ldi	r19, 0x00	; 0
    453c:	ac 01       	movw	r20, r24
    453e:	69 e0       	ldi	r22, 0x09	; 9
    4540:	81 e0       	ldi	r24, 0x01	; 1
    4542:	0e 94 c6 09 	call	0x138c	; 0x138c <lcd_print>
			lcd_print(2,1,l,3);
    4546:	6b a9       	ldd	r22, Y+51	; 0x33
    4548:	7c a9       	ldd	r23, Y+52	; 0x34
    454a:	8d a9       	ldd	r24, Y+53	; 0x35
    454c:	9e a9       	ldd	r25, Y+54	; 0x36
    454e:	38 d5       	rcall	.+2672   	; 0x4fc0 <__fixunssfsi>
    4550:	dc 01       	movw	r26, r24
    4552:	cb 01       	movw	r24, r22
    4554:	23 e0       	ldi	r18, 0x03	; 3
    4556:	30 e0       	ldi	r19, 0x00	; 0
    4558:	ac 01       	movw	r20, r24
    455a:	61 e0       	ldi	r22, 0x01	; 1
    455c:	82 e0       	ldi	r24, 0x02	; 2
    455e:	0e 94 c6 09 	call	0x138c	; 0x138c <lcd_print>
			lcd_print(2,5,c,3);
    4562:	6f a9       	ldd	r22, Y+55	; 0x37
    4564:	78 ad       	ldd	r23, Y+56	; 0x38
    4566:	89 ad       	ldd	r24, Y+57	; 0x39
    4568:	9a ad       	ldd	r25, Y+58	; 0x3a
    456a:	2a d5       	rcall	.+2644   	; 0x4fc0 <__fixunssfsi>
    456c:	dc 01       	movw	r26, r24
    456e:	cb 01       	movw	r24, r22
    4570:	23 e0       	ldi	r18, 0x03	; 3
    4572:	30 e0       	ldi	r19, 0x00	; 0
    4574:	ac 01       	movw	r20, r24
    4576:	65 e0       	ldi	r22, 0x05	; 5
    4578:	82 e0       	ldi	r24, 0x02	; 2
    457a:	0e 94 c6 09 	call	0x138c	; 0x138c <lcd_print>
			lcd_print(2,9,r,3);
    457e:	6b ad       	ldd	r22, Y+59	; 0x3b
    4580:	7c ad       	ldd	r23, Y+60	; 0x3c
    4582:	8d ad       	ldd	r24, Y+61	; 0x3d
    4584:	9e ad       	ldd	r25, Y+62	; 0x3e
    4586:	1c d5       	rcall	.+2616   	; 0x4fc0 <__fixunssfsi>
    4588:	dc 01       	movw	r26, r24
    458a:	cb 01       	movw	r24, r22
    458c:	23 e0       	ldi	r18, 0x03	; 3
    458e:	30 e0       	ldi	r19, 0x00	; 0
    4590:	ac 01       	movw	r20, r24
    4592:	69 e0       	ldi	r22, 0x09	; 9
    4594:	82 e0       	ldi	r24, 0x02	; 2
    4596:	0e 94 c6 09 	call	0x138c	; 0x138c <lcd_print>
			/*if (prsnt==nodes[2])
			{
				return 0;
			}*/

			if(prsnt==dest)
    459a:	2b 8d       	ldd	r18, Y+27	; 0x1b
    459c:	3c 8d       	ldd	r19, Y+28	; 0x1c
    459e:	89 a9       	ldd	r24, Y+49	; 0x31
    45a0:	9a a9       	ldd	r25, Y+50	; 0x32
    45a2:	28 17       	cp	r18, r24
    45a4:	39 07       	cpc	r19, r25
    45a6:	09 f0       	breq	.+2      	; 0x45aa <main+0xc80>
    45a8:	a8 c1       	rjmp	.+848    	; 0x48fa <main+0xfd0>
			{
				stop();
    45aa:	0e 94 e6 11 	call	0x23cc	; 0x23cc <stop>
				while(dest!=nodes[played+1])
    45ae:	c0 c0       	rjmp	.+384    	; 0x4730 <main+0xe06>
    45b0:	9e 01       	movw	r18, r28
    45b2:	25 5a       	subi	r18, 0xA5	; 165
    45b4:	3f 4f       	sbci	r19, 0xFF	; 255
    45b6:	80 e0       	ldi	r24, 0x00	; 0
    45b8:	90 e0       	ldi	r25, 0x00	; 0
    45ba:	a8 ec       	ldi	r26, 0xC8	; 200
    45bc:	b2 e4       	ldi	r27, 0x42	; 66
    45be:	f9 01       	movw	r30, r18
    45c0:	80 83       	st	Z, r24
    45c2:	91 83       	std	Z+1, r25	; 0x01
    45c4:	a2 83       	std	Z+2, r26	; 0x02
    45c6:	b3 83       	std	Z+3, r27	; 0x03

	__builtin_avr_delay_cycles(__ticks_dc);

#else
	uint16_t __ticks;
	__tmp = ((F_CPU) / 4e3) * __ms;
    45c8:	8e 01       	movw	r16, r28
    45ca:	01 5a       	subi	r16, 0xA1	; 161
    45cc:	1f 4f       	sbci	r17, 0xFF	; 255
    45ce:	ce 01       	movw	r24, r28
    45d0:	85 5a       	subi	r24, 0xA5	; 165
    45d2:	9f 4f       	sbci	r25, 0xFF	; 255
    45d4:	26 e6       	ldi	r18, 0x66	; 102
    45d6:	36 e6       	ldi	r19, 0x66	; 102
    45d8:	46 e6       	ldi	r20, 0x66	; 102
    45da:	55 e4       	ldi	r21, 0x45	; 69
    45dc:	fc 01       	movw	r30, r24
    45de:	60 81       	ld	r22, Z
    45e0:	71 81       	ldd	r23, Z+1	; 0x01
    45e2:	82 81       	ldd	r24, Z+2	; 0x02
    45e4:	93 81       	ldd	r25, Z+3	; 0x03
    45e6:	ce d5       	rcall	.+2972   	; 0x5184 <__mulsf3>
    45e8:	dc 01       	movw	r26, r24
    45ea:	cb 01       	movw	r24, r22
    45ec:	f8 01       	movw	r30, r16
    45ee:	80 83       	st	Z, r24
    45f0:	91 83       	std	Z+1, r25	; 0x01
    45f2:	a2 83       	std	Z+2, r26	; 0x02
    45f4:	b3 83       	std	Z+3, r27	; 0x03
	if (__tmp < 1.0)
    45f6:	ce 01       	movw	r24, r28
    45f8:	81 5a       	subi	r24, 0xA1	; 161
    45fa:	9f 4f       	sbci	r25, 0xFF	; 255
    45fc:	20 e0       	ldi	r18, 0x00	; 0
    45fe:	30 e0       	ldi	r19, 0x00	; 0
    4600:	40 e8       	ldi	r20, 0x80	; 128
    4602:	5f e3       	ldi	r21, 0x3F	; 63
    4604:	fc 01       	movw	r30, r24
    4606:	60 81       	ld	r22, Z
    4608:	71 81       	ldd	r23, Z+1	; 0x01
    460a:	82 81       	ldd	r24, Z+2	; 0x02
    460c:	93 81       	ldd	r25, Z+3	; 0x03
    460e:	6c d4       	rcall	.+2264   	; 0x4ee8 <__cmpsf2>
    4610:	88 23       	and	r24, r24
    4612:	4c f4       	brge	.+18     	; 0x4626 <main+0xcfc>
		__ticks = 1;
    4614:	ce 01       	movw	r24, r28
    4616:	8d 59       	subi	r24, 0x9D	; 157
    4618:	9f 4f       	sbci	r25, 0xFF	; 255
    461a:	21 e0       	ldi	r18, 0x01	; 1
    461c:	30 e0       	ldi	r19, 0x00	; 0
    461e:	fc 01       	movw	r30, r24
    4620:	31 83       	std	Z+1, r19	; 0x01
    4622:	20 83       	st	Z, r18
    4624:	69 c0       	rjmp	.+210    	; 0x46f8 <main+0xdce>
	else if (__tmp > 65535)
    4626:	ce 01       	movw	r24, r28
    4628:	81 5a       	subi	r24, 0xA1	; 161
    462a:	9f 4f       	sbci	r25, 0xFF	; 255
    462c:	20 e0       	ldi	r18, 0x00	; 0
    462e:	3f ef       	ldi	r19, 0xFF	; 255
    4630:	4f e7       	ldi	r20, 0x7F	; 127
    4632:	57 e4       	ldi	r21, 0x47	; 71
    4634:	fc 01       	movw	r30, r24
    4636:	60 81       	ld	r22, Z
    4638:	71 81       	ldd	r23, Z+1	; 0x01
    463a:	82 81       	ldd	r24, Z+2	; 0x02
    463c:	93 81       	ldd	r25, Z+3	; 0x03
    463e:	9e d5       	rcall	.+2876   	; 0x517c <__gesf2>
    4640:	18 16       	cp	r1, r24
    4642:	0c f0       	brlt	.+2      	; 0x4646 <main+0xd1c>
    4644:	48 c0       	rjmp	.+144    	; 0x46d6 <main+0xdac>
	{
		//	__ticks = requested delay in 1/10 ms
		__ticks = (uint16_t) (__ms * 10.0);
    4646:	ce 01       	movw	r24, r28
    4648:	85 5a       	subi	r24, 0xA5	; 165
    464a:	9f 4f       	sbci	r25, 0xFF	; 255
    464c:	20 e0       	ldi	r18, 0x00	; 0
    464e:	30 e0       	ldi	r19, 0x00	; 0
    4650:	40 e2       	ldi	r20, 0x20	; 32
    4652:	51 e4       	ldi	r21, 0x41	; 65
    4654:	fc 01       	movw	r30, r24
    4656:	60 81       	ld	r22, Z
    4658:	71 81       	ldd	r23, Z+1	; 0x01
    465a:	82 81       	ldd	r24, Z+2	; 0x02
    465c:	93 81       	ldd	r25, Z+3	; 0x03
    465e:	92 d5       	rcall	.+2852   	; 0x5184 <__mulsf3>
    4660:	dc 01       	movw	r26, r24
    4662:	cb 01       	movw	r24, r22
    4664:	8e 01       	movw	r16, r28
    4666:	0d 59       	subi	r16, 0x9D	; 157
    4668:	1f 4f       	sbci	r17, 0xFF	; 255
    466a:	bc 01       	movw	r22, r24
    466c:	cd 01       	movw	r24, r26
    466e:	a8 d4       	rcall	.+2384   	; 0x4fc0 <__fixunssfsi>
    4670:	dc 01       	movw	r26, r24
    4672:	cb 01       	movw	r24, r22
    4674:	f8 01       	movw	r30, r16
    4676:	91 83       	std	Z+1, r25	; 0x01
    4678:	80 83       	st	Z, r24
    467a:	24 c0       	rjmp	.+72     	; 0x46c4 <main+0xd9a>
    467c:	ce 01       	movw	r24, r28
    467e:	8b 59       	subi	r24, 0x9B	; 155
    4680:	9f 4f       	sbci	r25, 0xFF	; 255
    4682:	20 e7       	ldi	r18, 0x70	; 112
    4684:	31 e0       	ldi	r19, 0x01	; 1
    4686:	fc 01       	movw	r30, r24
    4688:	31 83       	std	Z+1, r19	; 0x01
    468a:	20 83       	st	Z, r18
    468c:	ce 01       	movw	r24, r28
    468e:	8b 59       	subi	r24, 0x9B	; 155
    4690:	9f 4f       	sbci	r25, 0xFF	; 255
    4692:	fc 01       	movw	r30, r24
    4694:	80 81       	ld	r24, Z
    4696:	91 81       	ldd	r25, Z+1	; 0x01
    4698:	01 97       	sbiw	r24, 0x01	; 1
    469a:	f1 f7       	brne	.-4      	; 0x4698 <main+0xd6e>
    469c:	9e 01       	movw	r18, r28
    469e:	2b 59       	subi	r18, 0x9B	; 155
    46a0:	3f 4f       	sbci	r19, 0xFF	; 255
    46a2:	f9 01       	movw	r30, r18
    46a4:	91 83       	std	Z+1, r25	; 0x01
    46a6:	80 83       	st	Z, r24
		while(__ticks)
		{
			// wait 1/10 ms
			_delay_loop_2(((F_CPU) / 4e3) / 10);
			__ticks --;
    46a8:	ce 01       	movw	r24, r28
    46aa:	8d 59       	subi	r24, 0x9D	; 157
    46ac:	9f 4f       	sbci	r25, 0xFF	; 255
    46ae:	9e 01       	movw	r18, r28
    46b0:	2d 59       	subi	r18, 0x9D	; 157
    46b2:	3f 4f       	sbci	r19, 0xFF	; 255
    46b4:	f9 01       	movw	r30, r18
    46b6:	20 81       	ld	r18, Z
    46b8:	31 81       	ldd	r19, Z+1	; 0x01
    46ba:	21 50       	subi	r18, 0x01	; 1
    46bc:	31 09       	sbc	r19, r1
    46be:	fc 01       	movw	r30, r24
    46c0:	31 83       	std	Z+1, r19	; 0x01
    46c2:	20 83       	st	Z, r18
		__ticks = 1;
	else if (__tmp > 65535)
	{
		//	__ticks = requested delay in 1/10 ms
		__ticks = (uint16_t) (__ms * 10.0);
		while(__ticks)
    46c4:	ce 01       	movw	r24, r28
    46c6:	8d 59       	subi	r24, 0x9D	; 157
    46c8:	9f 4f       	sbci	r25, 0xFF	; 255
    46ca:	fc 01       	movw	r30, r24
    46cc:	80 81       	ld	r24, Z
    46ce:	91 81       	ldd	r25, Z+1	; 0x01
    46d0:	89 2b       	or	r24, r25
    46d2:	a1 f6       	brne	.-88     	; 0x467c <main+0xd52>
    46d4:	2b c0       	rjmp	.+86     	; 0x472c <main+0xe02>
			__ticks --;
		}
		return;
	}
	else
		__ticks = (uint16_t)__tmp;
    46d6:	8e 01       	movw	r16, r28
    46d8:	0d 59       	subi	r16, 0x9D	; 157
    46da:	1f 4f       	sbci	r17, 0xFF	; 255
    46dc:	ce 01       	movw	r24, r28
    46de:	81 5a       	subi	r24, 0xA1	; 161
    46e0:	9f 4f       	sbci	r25, 0xFF	; 255
    46e2:	fc 01       	movw	r30, r24
    46e4:	60 81       	ld	r22, Z
    46e6:	71 81       	ldd	r23, Z+1	; 0x01
    46e8:	82 81       	ldd	r24, Z+2	; 0x02
    46ea:	93 81       	ldd	r25, Z+3	; 0x03
    46ec:	69 d4       	rcall	.+2258   	; 0x4fc0 <__fixunssfsi>
    46ee:	dc 01       	movw	r26, r24
    46f0:	cb 01       	movw	r24, r22
    46f2:	f8 01       	movw	r30, r16
    46f4:	91 83       	std	Z+1, r25	; 0x01
    46f6:	80 83       	st	Z, r24
    46f8:	ce 01       	movw	r24, r28
    46fa:	89 59       	subi	r24, 0x99	; 153
    46fc:	9f 4f       	sbci	r25, 0xFF	; 255
    46fe:	9e 01       	movw	r18, r28
    4700:	2d 59       	subi	r18, 0x9D	; 157
    4702:	3f 4f       	sbci	r19, 0xFF	; 255
    4704:	f9 01       	movw	r30, r18
    4706:	20 81       	ld	r18, Z
    4708:	31 81       	ldd	r19, Z+1	; 0x01
    470a:	fc 01       	movw	r30, r24
    470c:	31 83       	std	Z+1, r19	; 0x01
    470e:	20 83       	st	Z, r18
    4710:	ce 01       	movw	r24, r28
    4712:	89 59       	subi	r24, 0x99	; 153
    4714:	9f 4f       	sbci	r25, 0xFF	; 255
    4716:	fc 01       	movw	r30, r24
    4718:	80 81       	ld	r24, Z
    471a:	91 81       	ldd	r25, Z+1	; 0x01
    471c:	01 97       	sbiw	r24, 0x01	; 1
    471e:	f1 f7       	brne	.-4      	; 0x471c <main+0xdf2>
    4720:	9e 01       	movw	r18, r28
    4722:	29 59       	subi	r18, 0x99	; 153
    4724:	3f 4f       	sbci	r19, 0xFF	; 255
    4726:	f9 01       	movw	r30, r18
    4728:	91 83       	std	Z+1, r25	; 0x01
    472a:	80 83       	st	Z, r24
				{
					_delay_ms(100);
					stop();
    472c:	0e 94 e6 11 	call	0x23cc	; 0x23cc <stop>
			}*/

			if(prsnt==dest)
			{
				stop();
				while(dest!=nodes[played+1])
    4730:	80 91 04 14 	lds	r24, 0x1404	; 0x801404 <played>
    4734:	90 91 05 14 	lds	r25, 0x1405	; 0x801405 <played+0x1>
    4738:	01 96       	adiw	r24, 0x01	; 1
    473a:	88 0f       	add	r24, r24
    473c:	99 1f       	adc	r25, r25
    473e:	85 57       	subi	r24, 0x75	; 117
    4740:	9b 4e       	sbci	r25, 0xEB	; 235
    4742:	fc 01       	movw	r30, r24
    4744:	20 81       	ld	r18, Z
    4746:	31 81       	ldd	r19, Z+1	; 0x01
    4748:	89 a9       	ldd	r24, Y+49	; 0x31
    474a:	9a a9       	ldd	r25, Y+50	; 0x32
    474c:	28 17       	cp	r18, r24
    474e:	39 07       	cpc	r19, r25
    4750:	09 f0       	breq	.+2      	; 0x4754 <main+0xe2a>
    4752:	2e cf       	rjmp	.-420    	; 0x45b0 <main+0xc86>
				{
					_delay_ms(100);
					stop();
				}
				//strike
				buzzer_on();
    4754:	0e 94 9e 10 	call	0x213c	; 0x213c <buzzer_on>
    4758:	9e 01       	movw	r18, r28
    475a:	27 59       	subi	r18, 0x97	; 151
    475c:	3f 4f       	sbci	r19, 0xFF	; 255
    475e:	80 e0       	ldi	r24, 0x00	; 0
    4760:	90 e0       	ldi	r25, 0x00	; 0
    4762:	aa ef       	ldi	r26, 0xFA	; 250
    4764:	b3 e4       	ldi	r27, 0x43	; 67
    4766:	f9 01       	movw	r30, r18
    4768:	80 83       	st	Z, r24
    476a:	91 83       	std	Z+1, r25	; 0x01
    476c:	a2 83       	std	Z+2, r26	; 0x02
    476e:	b3 83       	std	Z+3, r27	; 0x03

	__builtin_avr_delay_cycles(__ticks_dc);

#else
	uint16_t __ticks;
	__tmp = ((F_CPU) / 4e3) * __ms;
    4770:	8e 01       	movw	r16, r28
    4772:	03 59       	subi	r16, 0x93	; 147
    4774:	1f 4f       	sbci	r17, 0xFF	; 255
    4776:	ce 01       	movw	r24, r28
    4778:	87 59       	subi	r24, 0x97	; 151
    477a:	9f 4f       	sbci	r25, 0xFF	; 255
    477c:	26 e6       	ldi	r18, 0x66	; 102
    477e:	36 e6       	ldi	r19, 0x66	; 102
    4780:	46 e6       	ldi	r20, 0x66	; 102
    4782:	55 e4       	ldi	r21, 0x45	; 69
    4784:	fc 01       	movw	r30, r24
    4786:	60 81       	ld	r22, Z
    4788:	71 81       	ldd	r23, Z+1	; 0x01
    478a:	82 81       	ldd	r24, Z+2	; 0x02
    478c:	93 81       	ldd	r25, Z+3	; 0x03
    478e:	fa d4       	rcall	.+2548   	; 0x5184 <__mulsf3>
    4790:	dc 01       	movw	r26, r24
    4792:	cb 01       	movw	r24, r22
    4794:	f8 01       	movw	r30, r16
    4796:	80 83       	st	Z, r24
    4798:	91 83       	std	Z+1, r25	; 0x01
    479a:	a2 83       	std	Z+2, r26	; 0x02
    479c:	b3 83       	std	Z+3, r27	; 0x03
	if (__tmp < 1.0)
    479e:	ce 01       	movw	r24, r28
    47a0:	83 59       	subi	r24, 0x93	; 147
    47a2:	9f 4f       	sbci	r25, 0xFF	; 255
    47a4:	20 e0       	ldi	r18, 0x00	; 0
    47a6:	30 e0       	ldi	r19, 0x00	; 0
    47a8:	40 e8       	ldi	r20, 0x80	; 128
    47aa:	5f e3       	ldi	r21, 0x3F	; 63
    47ac:	fc 01       	movw	r30, r24
    47ae:	60 81       	ld	r22, Z
    47b0:	71 81       	ldd	r23, Z+1	; 0x01
    47b2:	82 81       	ldd	r24, Z+2	; 0x02
    47b4:	93 81       	ldd	r25, Z+3	; 0x03
    47b6:	98 d3       	rcall	.+1840   	; 0x4ee8 <__cmpsf2>
    47b8:	88 23       	and	r24, r24
    47ba:	4c f4       	brge	.+18     	; 0x47ce <main+0xea4>
		__ticks = 1;
    47bc:	ce 01       	movw	r24, r28
    47be:	8f 58       	subi	r24, 0x8F	; 143
    47c0:	9f 4f       	sbci	r25, 0xFF	; 255
    47c2:	21 e0       	ldi	r18, 0x01	; 1
    47c4:	30 e0       	ldi	r19, 0x00	; 0
    47c6:	fc 01       	movw	r30, r24
    47c8:	31 83       	std	Z+1, r19	; 0x01
    47ca:	20 83       	st	Z, r18
    47cc:	69 c0       	rjmp	.+210    	; 0x48a0 <main+0xf76>
	else if (__tmp > 65535)
    47ce:	ce 01       	movw	r24, r28
    47d0:	83 59       	subi	r24, 0x93	; 147
    47d2:	9f 4f       	sbci	r25, 0xFF	; 255
    47d4:	20 e0       	ldi	r18, 0x00	; 0
    47d6:	3f ef       	ldi	r19, 0xFF	; 255
    47d8:	4f e7       	ldi	r20, 0x7F	; 127
    47da:	57 e4       	ldi	r21, 0x47	; 71
    47dc:	fc 01       	movw	r30, r24
    47de:	60 81       	ld	r22, Z
    47e0:	71 81       	ldd	r23, Z+1	; 0x01
    47e2:	82 81       	ldd	r24, Z+2	; 0x02
    47e4:	93 81       	ldd	r25, Z+3	; 0x03
    47e6:	ca d4       	rcall	.+2452   	; 0x517c <__gesf2>
    47e8:	18 16       	cp	r1, r24
    47ea:	0c f0       	brlt	.+2      	; 0x47ee <main+0xec4>
    47ec:	48 c0       	rjmp	.+144    	; 0x487e <main+0xf54>
	{
		//	__ticks = requested delay in 1/10 ms
		__ticks = (uint16_t) (__ms * 10.0);
    47ee:	ce 01       	movw	r24, r28
    47f0:	87 59       	subi	r24, 0x97	; 151
    47f2:	9f 4f       	sbci	r25, 0xFF	; 255
    47f4:	20 e0       	ldi	r18, 0x00	; 0
    47f6:	30 e0       	ldi	r19, 0x00	; 0
    47f8:	40 e2       	ldi	r20, 0x20	; 32
    47fa:	51 e4       	ldi	r21, 0x41	; 65
    47fc:	fc 01       	movw	r30, r24
    47fe:	60 81       	ld	r22, Z
    4800:	71 81       	ldd	r23, Z+1	; 0x01
    4802:	82 81       	ldd	r24, Z+2	; 0x02
    4804:	93 81       	ldd	r25, Z+3	; 0x03
    4806:	be d4       	rcall	.+2428   	; 0x5184 <__mulsf3>
    4808:	dc 01       	movw	r26, r24
    480a:	cb 01       	movw	r24, r22
    480c:	8e 01       	movw	r16, r28
    480e:	0f 58       	subi	r16, 0x8F	; 143
    4810:	1f 4f       	sbci	r17, 0xFF	; 255
    4812:	bc 01       	movw	r22, r24
    4814:	cd 01       	movw	r24, r26
    4816:	d4 d3       	rcall	.+1960   	; 0x4fc0 <__fixunssfsi>
    4818:	dc 01       	movw	r26, r24
    481a:	cb 01       	movw	r24, r22
    481c:	f8 01       	movw	r30, r16
    481e:	91 83       	std	Z+1, r25	; 0x01
    4820:	80 83       	st	Z, r24
    4822:	24 c0       	rjmp	.+72     	; 0x486c <main+0xf42>
    4824:	ce 01       	movw	r24, r28
    4826:	8d 58       	subi	r24, 0x8D	; 141
    4828:	9f 4f       	sbci	r25, 0xFF	; 255
    482a:	20 e7       	ldi	r18, 0x70	; 112
    482c:	31 e0       	ldi	r19, 0x01	; 1
    482e:	fc 01       	movw	r30, r24
    4830:	31 83       	std	Z+1, r19	; 0x01
    4832:	20 83       	st	Z, r18
    4834:	ce 01       	movw	r24, r28
    4836:	8d 58       	subi	r24, 0x8D	; 141
    4838:	9f 4f       	sbci	r25, 0xFF	; 255
    483a:	fc 01       	movw	r30, r24
    483c:	80 81       	ld	r24, Z
    483e:	91 81       	ldd	r25, Z+1	; 0x01
    4840:	01 97       	sbiw	r24, 0x01	; 1
    4842:	f1 f7       	brne	.-4      	; 0x4840 <main+0xf16>
    4844:	9e 01       	movw	r18, r28
    4846:	2d 58       	subi	r18, 0x8D	; 141
    4848:	3f 4f       	sbci	r19, 0xFF	; 255
    484a:	f9 01       	movw	r30, r18
    484c:	91 83       	std	Z+1, r25	; 0x01
    484e:	80 83       	st	Z, r24
		while(__ticks)
		{
			// wait 1/10 ms
			_delay_loop_2(((F_CPU) / 4e3) / 10);
			__ticks --;
    4850:	ce 01       	movw	r24, r28
    4852:	8f 58       	subi	r24, 0x8F	; 143
    4854:	9f 4f       	sbci	r25, 0xFF	; 255
    4856:	9e 01       	movw	r18, r28
    4858:	2f 58       	subi	r18, 0x8F	; 143
    485a:	3f 4f       	sbci	r19, 0xFF	; 255
    485c:	f9 01       	movw	r30, r18
    485e:	20 81       	ld	r18, Z
    4860:	31 81       	ldd	r19, Z+1	; 0x01
    4862:	21 50       	subi	r18, 0x01	; 1
    4864:	31 09       	sbc	r19, r1
    4866:	fc 01       	movw	r30, r24
    4868:	31 83       	std	Z+1, r19	; 0x01
    486a:	20 83       	st	Z, r18
		__ticks = 1;
	else if (__tmp > 65535)
	{
		//	__ticks = requested delay in 1/10 ms
		__ticks = (uint16_t) (__ms * 10.0);
		while(__ticks)
    486c:	ce 01       	movw	r24, r28
    486e:	8f 58       	subi	r24, 0x8F	; 143
    4870:	9f 4f       	sbci	r25, 0xFF	; 255
    4872:	fc 01       	movw	r30, r24
    4874:	80 81       	ld	r24, Z
    4876:	91 81       	ldd	r25, Z+1	; 0x01
    4878:	89 2b       	or	r24, r25
    487a:	a1 f6       	brne	.-88     	; 0x4824 <main+0xefa>
    487c:	2b c0       	rjmp	.+86     	; 0x48d4 <main+0xfaa>
			__ticks --;
		}
		return;
	}
	else
		__ticks = (uint16_t)__tmp;
    487e:	8e 01       	movw	r16, r28
    4880:	0f 58       	subi	r16, 0x8F	; 143
    4882:	1f 4f       	sbci	r17, 0xFF	; 255
    4884:	ce 01       	movw	r24, r28
    4886:	83 59       	subi	r24, 0x93	; 147
    4888:	9f 4f       	sbci	r25, 0xFF	; 255
    488a:	fc 01       	movw	r30, r24
    488c:	60 81       	ld	r22, Z
    488e:	71 81       	ldd	r23, Z+1	; 0x01
    4890:	82 81       	ldd	r24, Z+2	; 0x02
    4892:	93 81       	ldd	r25, Z+3	; 0x03
    4894:	95 d3       	rcall	.+1834   	; 0x4fc0 <__fixunssfsi>
    4896:	dc 01       	movw	r26, r24
    4898:	cb 01       	movw	r24, r22
    489a:	f8 01       	movw	r30, r16
    489c:	91 83       	std	Z+1, r25	; 0x01
    489e:	80 83       	st	Z, r24
    48a0:	ce 01       	movw	r24, r28
    48a2:	8b 58       	subi	r24, 0x8B	; 139
    48a4:	9f 4f       	sbci	r25, 0xFF	; 255
    48a6:	9e 01       	movw	r18, r28
    48a8:	2f 58       	subi	r18, 0x8F	; 143
    48aa:	3f 4f       	sbci	r19, 0xFF	; 255
    48ac:	f9 01       	movw	r30, r18
    48ae:	20 81       	ld	r18, Z
    48b0:	31 81       	ldd	r19, Z+1	; 0x01
    48b2:	fc 01       	movw	r30, r24
    48b4:	31 83       	std	Z+1, r19	; 0x01
    48b6:	20 83       	st	Z, r18
    48b8:	ce 01       	movw	r24, r28
    48ba:	8b 58       	subi	r24, 0x8B	; 139
    48bc:	9f 4f       	sbci	r25, 0xFF	; 255
    48be:	fc 01       	movw	r30, r24
    48c0:	80 81       	ld	r24, Z
    48c2:	91 81       	ldd	r25, Z+1	; 0x01
    48c4:	01 97       	sbiw	r24, 0x01	; 1
    48c6:	f1 f7       	brne	.-4      	; 0x48c4 <main+0xf9a>
    48c8:	9e 01       	movw	r18, r28
    48ca:	2b 58       	subi	r18, 0x8B	; 139
    48cc:	3f 4f       	sbci	r19, 0xFF	; 255
    48ce:	f9 01       	movw	r30, r18
    48d0:	91 83       	std	Z+1, r25	; 0x01
    48d2:	80 83       	st	Z, r24
				_delay_ms(500);
				buzzer_off();
    48d4:	0e 94 b5 10 	call	0x216a	; 0x216a <buzzer_off>
				played++;
    48d8:	80 91 04 14 	lds	r24, 0x1404	; 0x801404 <played>
    48dc:	90 91 05 14 	lds	r25, 0x1405	; 0x801405 <played+0x1>
    48e0:	01 96       	adiw	r24, 0x01	; 1
    48e2:	90 93 05 14 	sts	0x1405, r25	; 0x801405 <played+0x1>
    48e6:	80 93 04 14 	sts	0x1404, r24	; 0x801404 <played>
				UDR0=255;		//for synchronisation
    48ea:	86 ec       	ldi	r24, 0xC6	; 198
    48ec:	90 e0       	ldi	r25, 0x00	; 0
    48ee:	2f ef       	ldi	r18, 0xFF	; 255
    48f0:	fc 01       	movw	r30, r24
    48f2:	20 83       	st	Z, r18
				
				p=0;
    48f4:	1e 86       	std	Y+14, r1	; 0x0e
    48f6:	1d 86       	std	Y+13, r1	; 0x0d
				break;
    48f8:	7a c2       	rjmp	.+1268   	; 0x4dee <main+0x14c4>
           *THE NODES WHERE THE BOT CAN REAACH JUST BY LINE FOLLOWING ARE EXCLUDED IN THESE CONDITIONS.
           EX. SAY IF THE ROBOT IS COMING FROM A PREVIOUS NODE ,IT IS  ON PRESENT NODE AND IT HAS TO MOVE TO NEXT NODE THE IT SHOULD TAKE
               A TURN OF 'THIS' DEGREE.
			*/
			
			decision(prev,prsnt,nxt);
    48fa:	4b a5       	ldd	r20, Y+43	; 0x2b
    48fc:	5c a5       	ldd	r21, Y+44	; 0x2c
    48fe:	2b 8d       	ldd	r18, Y+27	; 0x1b
    4900:	3c 8d       	ldd	r19, Y+28	; 0x1c
    4902:	89 8d       	ldd	r24, Y+25	; 0x19
    4904:	9a 8d       	ldd	r25, Y+26	; 0x1a
    4906:	b9 01       	movw	r22, r18
    4908:	0e 94 14 13 	call	0x2628	; 0x2628 <decision>
	 decision(prev,prsnt,nxt);
	
	 
 }//sharp sensor if */
			
		  forward();
    490c:	0e 94 c2 11 	call	0x2384	; 0x2384 <forward>
    4910:	9e 01       	movw	r18, r28
    4912:	29 58       	subi	r18, 0x89	; 137
    4914:	3f 4f       	sbci	r19, 0xFF	; 255
    4916:	80 e0       	ldi	r24, 0x00	; 0
    4918:	90 e0       	ldi	r25, 0x00	; 0
    491a:	a6 e9       	ldi	r26, 0x96	; 150
    491c:	b3 e4       	ldi	r27, 0x43	; 67
    491e:	f9 01       	movw	r30, r18
    4920:	80 83       	st	Z, r24
    4922:	91 83       	std	Z+1, r25	; 0x01
    4924:	a2 83       	std	Z+2, r26	; 0x02
    4926:	b3 83       	std	Z+3, r27	; 0x03

	__builtin_avr_delay_cycles(__ticks_dc);

#else
	uint16_t __ticks;
	__tmp = ((F_CPU) / 4e3) * __ms;
    4928:	8e 01       	movw	r16, r28
    492a:	05 58       	subi	r16, 0x85	; 133
    492c:	1f 4f       	sbci	r17, 0xFF	; 255
    492e:	ce 01       	movw	r24, r28
    4930:	89 58       	subi	r24, 0x89	; 137
    4932:	9f 4f       	sbci	r25, 0xFF	; 255
    4934:	26 e6       	ldi	r18, 0x66	; 102
    4936:	36 e6       	ldi	r19, 0x66	; 102
    4938:	46 e6       	ldi	r20, 0x66	; 102
    493a:	55 e4       	ldi	r21, 0x45	; 69
    493c:	fc 01       	movw	r30, r24
    493e:	60 81       	ld	r22, Z
    4940:	71 81       	ldd	r23, Z+1	; 0x01
    4942:	82 81       	ldd	r24, Z+2	; 0x02
    4944:	93 81       	ldd	r25, Z+3	; 0x03
    4946:	1e d4       	rcall	.+2108   	; 0x5184 <__mulsf3>
    4948:	dc 01       	movw	r26, r24
    494a:	cb 01       	movw	r24, r22
    494c:	f8 01       	movw	r30, r16
    494e:	80 83       	st	Z, r24
    4950:	91 83       	std	Z+1, r25	; 0x01
    4952:	a2 83       	std	Z+2, r26	; 0x02
    4954:	b3 83       	std	Z+3, r27	; 0x03
	if (__tmp < 1.0)
    4956:	ce 01       	movw	r24, r28
    4958:	85 58       	subi	r24, 0x85	; 133
    495a:	9f 4f       	sbci	r25, 0xFF	; 255
    495c:	20 e0       	ldi	r18, 0x00	; 0
    495e:	30 e0       	ldi	r19, 0x00	; 0
    4960:	40 e8       	ldi	r20, 0x80	; 128
    4962:	5f e3       	ldi	r21, 0x3F	; 63
    4964:	fc 01       	movw	r30, r24
    4966:	60 81       	ld	r22, Z
    4968:	71 81       	ldd	r23, Z+1	; 0x01
    496a:	82 81       	ldd	r24, Z+2	; 0x02
    496c:	93 81       	ldd	r25, Z+3	; 0x03
    496e:	bc d2       	rcall	.+1400   	; 0x4ee8 <__cmpsf2>
    4970:	88 23       	and	r24, r24
    4972:	4c f4       	brge	.+18     	; 0x4986 <main+0x105c>
		__ticks = 1;
    4974:	ce 01       	movw	r24, r28
    4976:	81 58       	subi	r24, 0x81	; 129
    4978:	9f 4f       	sbci	r25, 0xFF	; 255
    497a:	21 e0       	ldi	r18, 0x01	; 1
    497c:	30 e0       	ldi	r19, 0x00	; 0
    497e:	fc 01       	movw	r30, r24
    4980:	31 83       	std	Z+1, r19	; 0x01
    4982:	20 83       	st	Z, r18
    4984:	69 c0       	rjmp	.+210    	; 0x4a58 <main+0x112e>
	else if (__tmp > 65535)
    4986:	ce 01       	movw	r24, r28
    4988:	85 58       	subi	r24, 0x85	; 133
    498a:	9f 4f       	sbci	r25, 0xFF	; 255
    498c:	20 e0       	ldi	r18, 0x00	; 0
    498e:	3f ef       	ldi	r19, 0xFF	; 255
    4990:	4f e7       	ldi	r20, 0x7F	; 127
    4992:	57 e4       	ldi	r21, 0x47	; 71
    4994:	fc 01       	movw	r30, r24
    4996:	60 81       	ld	r22, Z
    4998:	71 81       	ldd	r23, Z+1	; 0x01
    499a:	82 81       	ldd	r24, Z+2	; 0x02
    499c:	93 81       	ldd	r25, Z+3	; 0x03
    499e:	ee d3       	rcall	.+2012   	; 0x517c <__gesf2>
    49a0:	18 16       	cp	r1, r24
    49a2:	0c f0       	brlt	.+2      	; 0x49a6 <main+0x107c>
    49a4:	48 c0       	rjmp	.+144    	; 0x4a36 <main+0x110c>
	{
		//	__ticks = requested delay in 1/10 ms
		__ticks = (uint16_t) (__ms * 10.0);
    49a6:	ce 01       	movw	r24, r28
    49a8:	89 58       	subi	r24, 0x89	; 137
    49aa:	9f 4f       	sbci	r25, 0xFF	; 255
    49ac:	20 e0       	ldi	r18, 0x00	; 0
    49ae:	30 e0       	ldi	r19, 0x00	; 0
    49b0:	40 e2       	ldi	r20, 0x20	; 32
    49b2:	51 e4       	ldi	r21, 0x41	; 65
    49b4:	fc 01       	movw	r30, r24
    49b6:	60 81       	ld	r22, Z
    49b8:	71 81       	ldd	r23, Z+1	; 0x01
    49ba:	82 81       	ldd	r24, Z+2	; 0x02
    49bc:	93 81       	ldd	r25, Z+3	; 0x03
    49be:	e2 d3       	rcall	.+1988   	; 0x5184 <__mulsf3>
    49c0:	dc 01       	movw	r26, r24
    49c2:	cb 01       	movw	r24, r22
    49c4:	8e 01       	movw	r16, r28
    49c6:	01 58       	subi	r16, 0x81	; 129
    49c8:	1f 4f       	sbci	r17, 0xFF	; 255
    49ca:	bc 01       	movw	r22, r24
    49cc:	cd 01       	movw	r24, r26
    49ce:	f8 d2       	rcall	.+1520   	; 0x4fc0 <__fixunssfsi>
    49d0:	dc 01       	movw	r26, r24
    49d2:	cb 01       	movw	r24, r22
    49d4:	f8 01       	movw	r30, r16
    49d6:	91 83       	std	Z+1, r25	; 0x01
    49d8:	80 83       	st	Z, r24
    49da:	24 c0       	rjmp	.+72     	; 0x4a24 <main+0x10fa>
    49dc:	ce 01       	movw	r24, r28
    49de:	8f 57       	subi	r24, 0x7F	; 127
    49e0:	9f 4f       	sbci	r25, 0xFF	; 255
    49e2:	20 e7       	ldi	r18, 0x70	; 112
    49e4:	31 e0       	ldi	r19, 0x01	; 1
    49e6:	fc 01       	movw	r30, r24
    49e8:	31 83       	std	Z+1, r19	; 0x01
    49ea:	20 83       	st	Z, r18
    49ec:	ce 01       	movw	r24, r28
    49ee:	8f 57       	subi	r24, 0x7F	; 127
    49f0:	9f 4f       	sbci	r25, 0xFF	; 255
    49f2:	fc 01       	movw	r30, r24
    49f4:	80 81       	ld	r24, Z
    49f6:	91 81       	ldd	r25, Z+1	; 0x01
    49f8:	01 97       	sbiw	r24, 0x01	; 1
    49fa:	f1 f7       	brne	.-4      	; 0x49f8 <main+0x10ce>
    49fc:	9e 01       	movw	r18, r28
    49fe:	2f 57       	subi	r18, 0x7F	; 127
    4a00:	3f 4f       	sbci	r19, 0xFF	; 255
    4a02:	f9 01       	movw	r30, r18
    4a04:	91 83       	std	Z+1, r25	; 0x01
    4a06:	80 83       	st	Z, r24
		while(__ticks)
		{
			// wait 1/10 ms
			_delay_loop_2(((F_CPU) / 4e3) / 10);
			__ticks --;
    4a08:	ce 01       	movw	r24, r28
    4a0a:	81 58       	subi	r24, 0x81	; 129
    4a0c:	9f 4f       	sbci	r25, 0xFF	; 255
    4a0e:	9e 01       	movw	r18, r28
    4a10:	21 58       	subi	r18, 0x81	; 129
    4a12:	3f 4f       	sbci	r19, 0xFF	; 255
    4a14:	f9 01       	movw	r30, r18
    4a16:	20 81       	ld	r18, Z
    4a18:	31 81       	ldd	r19, Z+1	; 0x01
    4a1a:	21 50       	subi	r18, 0x01	; 1
    4a1c:	31 09       	sbc	r19, r1
    4a1e:	fc 01       	movw	r30, r24
    4a20:	31 83       	std	Z+1, r19	; 0x01
    4a22:	20 83       	st	Z, r18
		__ticks = 1;
	else if (__tmp > 65535)
	{
		//	__ticks = requested delay in 1/10 ms
		__ticks = (uint16_t) (__ms * 10.0);
		while(__ticks)
    4a24:	ce 01       	movw	r24, r28
    4a26:	81 58       	subi	r24, 0x81	; 129
    4a28:	9f 4f       	sbci	r25, 0xFF	; 255
    4a2a:	fc 01       	movw	r30, r24
    4a2c:	80 81       	ld	r24, Z
    4a2e:	91 81       	ldd	r25, Z+1	; 0x01
    4a30:	89 2b       	or	r24, r25
    4a32:	a1 f6       	brne	.-88     	; 0x49dc <main+0x10b2>
    4a34:	2b c0       	rjmp	.+86     	; 0x4a8c <main+0x1162>
			__ticks --;
		}
		return;
	}
	else
		__ticks = (uint16_t)__tmp;
    4a36:	8e 01       	movw	r16, r28
    4a38:	01 58       	subi	r16, 0x81	; 129
    4a3a:	1f 4f       	sbci	r17, 0xFF	; 255
    4a3c:	ce 01       	movw	r24, r28
    4a3e:	85 58       	subi	r24, 0x85	; 133
    4a40:	9f 4f       	sbci	r25, 0xFF	; 255
    4a42:	fc 01       	movw	r30, r24
    4a44:	60 81       	ld	r22, Z
    4a46:	71 81       	ldd	r23, Z+1	; 0x01
    4a48:	82 81       	ldd	r24, Z+2	; 0x02
    4a4a:	93 81       	ldd	r25, Z+3	; 0x03
    4a4c:	b9 d2       	rcall	.+1394   	; 0x4fc0 <__fixunssfsi>
    4a4e:	dc 01       	movw	r26, r24
    4a50:	cb 01       	movw	r24, r22
    4a52:	f8 01       	movw	r30, r16
    4a54:	91 83       	std	Z+1, r25	; 0x01
    4a56:	80 83       	st	Z, r24
    4a58:	ce 01       	movw	r24, r28
    4a5a:	8d 57       	subi	r24, 0x7D	; 125
    4a5c:	9f 4f       	sbci	r25, 0xFF	; 255
    4a5e:	9e 01       	movw	r18, r28
    4a60:	21 58       	subi	r18, 0x81	; 129
    4a62:	3f 4f       	sbci	r19, 0xFF	; 255
    4a64:	f9 01       	movw	r30, r18
    4a66:	20 81       	ld	r18, Z
    4a68:	31 81       	ldd	r19, Z+1	; 0x01
    4a6a:	fc 01       	movw	r30, r24
    4a6c:	31 83       	std	Z+1, r19	; 0x01
    4a6e:	20 83       	st	Z, r18
    4a70:	ce 01       	movw	r24, r28
    4a72:	8d 57       	subi	r24, 0x7D	; 125
    4a74:	9f 4f       	sbci	r25, 0xFF	; 255
    4a76:	fc 01       	movw	r30, r24
    4a78:	80 81       	ld	r24, Z
    4a7a:	91 81       	ldd	r25, Z+1	; 0x01
    4a7c:	01 97       	sbiw	r24, 0x01	; 1
    4a7e:	f1 f7       	brne	.-4      	; 0x4a7c <main+0x1152>
    4a80:	9e 01       	movw	r18, r28
    4a82:	2d 57       	subi	r18, 0x7D	; 125
    4a84:	3f 4f       	sbci	r19, 0xFF	; 255
    4a86:	f9 01       	movw	r30, r18
    4a88:	91 83       	std	Z+1, r25	; 0x01
    4a8a:	80 83       	st	Z, r24
		  _delay_ms(300);
		  buzzer_off();
    4a8c:	0e 94 b5 10 	call	0x216a	; 0x216a <buzzer_off>
		  velocity(230,230);
    4a90:	66 ee       	ldi	r22, 0xE6	; 230
    4a92:	86 ee       	ldi	r24, 0xE6	; 230
    4a94:	0e 94 8a 11 	call	0x2314	; 0x2314 <velocity>
 			prev=prsnt;
    4a98:	8b 8d       	ldd	r24, Y+27	; 0x1b
    4a9a:	9c 8d       	ldd	r25, Y+28	; 0x1c
    4a9c:	9a 8f       	std	Y+26, r25	; 0x1a
    4a9e:	89 8f       	std	Y+25, r24	; 0x19

			p++;
    4aa0:	8d 85       	ldd	r24, Y+13	; 0x0d
    4aa2:	9e 85       	ldd	r25, Y+14	; 0x0e
    4aa4:	01 96       	adiw	r24, 0x01	; 1
    4aa6:	9e 87       	std	Y+14, r25	; 0x0e
    4aa8:	8d 87       	std	Y+13, r24	; 0x0d
			
			
			
		}
		if ((l<threshold)&&(c<threshold)&&(r<threshold))//  W  W  W
    4aaa:	89 a5       	ldd	r24, Y+41	; 0x29
    4aac:	9a a5       	ldd	r25, Y+42	; 0x2a
    4aae:	09 2e       	mov	r0, r25
    4ab0:	00 0c       	add	r0, r0
    4ab2:	aa 0b       	sbc	r26, r26
    4ab4:	bb 0b       	sbc	r27, r27
    4ab6:	bc 01       	movw	r22, r24
    4ab8:	cd 01       	movw	r24, r26
    4aba:	b0 d2       	rcall	.+1376   	; 0x501c <__floatsisf>
    4abc:	dc 01       	movw	r26, r24
    4abe:	cb 01       	movw	r24, r22
    4ac0:	2b a9       	ldd	r18, Y+51	; 0x33
    4ac2:	3c a9       	ldd	r19, Y+52	; 0x34
    4ac4:	4d a9       	ldd	r20, Y+53	; 0x35
    4ac6:	5e a9       	ldd	r21, Y+54	; 0x36
    4ac8:	bc 01       	movw	r22, r24
    4aca:	cd 01       	movw	r24, r26
    4acc:	57 d3       	rcall	.+1710   	; 0x517c <__gesf2>
    4ace:	18 16       	cp	r1, r24
    4ad0:	0c f0       	brlt	.+2      	; 0x4ad4 <main+0x11aa>
    4ad2:	74 c1       	rjmp	.+744    	; 0x4dbc <main+0x1492>
    4ad4:	89 a5       	ldd	r24, Y+41	; 0x29
    4ad6:	9a a5       	ldd	r25, Y+42	; 0x2a
    4ad8:	09 2e       	mov	r0, r25
    4ada:	00 0c       	add	r0, r0
    4adc:	aa 0b       	sbc	r26, r26
    4ade:	bb 0b       	sbc	r27, r27
    4ae0:	bc 01       	movw	r22, r24
    4ae2:	cd 01       	movw	r24, r26
    4ae4:	9b d2       	rcall	.+1334   	; 0x501c <__floatsisf>
    4ae6:	dc 01       	movw	r26, r24
    4ae8:	cb 01       	movw	r24, r22
    4aea:	2f a9       	ldd	r18, Y+55	; 0x37
    4aec:	38 ad       	ldd	r19, Y+56	; 0x38
    4aee:	49 ad       	ldd	r20, Y+57	; 0x39
    4af0:	5a ad       	ldd	r21, Y+58	; 0x3a
    4af2:	bc 01       	movw	r22, r24
    4af4:	cd 01       	movw	r24, r26
    4af6:	42 d3       	rcall	.+1668   	; 0x517c <__gesf2>
    4af8:	18 16       	cp	r1, r24
    4afa:	0c f0       	brlt	.+2      	; 0x4afe <main+0x11d4>
    4afc:	5f c1       	rjmp	.+702    	; 0x4dbc <main+0x1492>
    4afe:	89 a5       	ldd	r24, Y+41	; 0x29
    4b00:	9a a5       	ldd	r25, Y+42	; 0x2a
    4b02:	09 2e       	mov	r0, r25
    4b04:	00 0c       	add	r0, r0
    4b06:	aa 0b       	sbc	r26, r26
    4b08:	bb 0b       	sbc	r27, r27
    4b0a:	bc 01       	movw	r22, r24
    4b0c:	cd 01       	movw	r24, r26
    4b0e:	86 d2       	rcall	.+1292   	; 0x501c <__floatsisf>
    4b10:	dc 01       	movw	r26, r24
    4b12:	cb 01       	movw	r24, r22
    4b14:	2b ad       	ldd	r18, Y+59	; 0x3b
    4b16:	3c ad       	ldd	r19, Y+60	; 0x3c
    4b18:	4d ad       	ldd	r20, Y+61	; 0x3d
    4b1a:	5e ad       	ldd	r21, Y+62	; 0x3e
    4b1c:	bc 01       	movw	r22, r24
    4b1e:	cd 01       	movw	r24, r26
    4b20:	2d d3       	rcall	.+1626   	; 0x517c <__gesf2>
    4b22:	18 16       	cp	r1, r24
    4b24:	0c f0       	brlt	.+2      	; 0x4b28 <main+0x11fe>
    4b26:	4a c1       	rjmp	.+660    	; 0x4dbc <main+0x1492>
		{
			if ((lprev>=threshold)&&(cprev<threshold)&&(rprev<threshold))// PREVIOUS  B  W  W
    4b28:	89 a5       	ldd	r24, Y+41	; 0x29
    4b2a:	9a a5       	ldd	r25, Y+42	; 0x2a
    4b2c:	09 2e       	mov	r0, r25
    4b2e:	00 0c       	add	r0, r0
    4b30:	aa 0b       	sbc	r26, r26
    4b32:	bb 0b       	sbc	r27, r27
    4b34:	bc 01       	movw	r22, r24
    4b36:	cd 01       	movw	r24, r26
    4b38:	71 d2       	rcall	.+1250   	; 0x501c <__floatsisf>
    4b3a:	dc 01       	movw	r26, r24
    4b3c:	cb 01       	movw	r24, r22
    4b3e:	29 81       	ldd	r18, Y+1	; 0x01
    4b40:	3a 81       	ldd	r19, Y+2	; 0x02
    4b42:	4b 81       	ldd	r20, Y+3	; 0x03
    4b44:	5c 81       	ldd	r21, Y+4	; 0x04
    4b46:	bc 01       	movw	r22, r24
    4b48:	cd 01       	movw	r24, r26
    4b4a:	ce d1       	rcall	.+924    	; 0x4ee8 <__cmpsf2>
    4b4c:	18 16       	cp	r1, r24
    4b4e:	74 f1       	brlt	.+92     	; 0x4bac <main+0x1282>
    4b50:	89 a5       	ldd	r24, Y+41	; 0x29
    4b52:	9a a5       	ldd	r25, Y+42	; 0x2a
    4b54:	09 2e       	mov	r0, r25
    4b56:	00 0c       	add	r0, r0
    4b58:	aa 0b       	sbc	r26, r26
    4b5a:	bb 0b       	sbc	r27, r27
    4b5c:	bc 01       	movw	r22, r24
    4b5e:	cd 01       	movw	r24, r26
    4b60:	5d d2       	rcall	.+1210   	; 0x501c <__floatsisf>
    4b62:	dc 01       	movw	r26, r24
    4b64:	cb 01       	movw	r24, r22
    4b66:	29 85       	ldd	r18, Y+9	; 0x09
    4b68:	3a 85       	ldd	r19, Y+10	; 0x0a
    4b6a:	4b 85       	ldd	r20, Y+11	; 0x0b
    4b6c:	5c 85       	ldd	r21, Y+12	; 0x0c
    4b6e:	bc 01       	movw	r22, r24
    4b70:	cd 01       	movw	r24, r26
    4b72:	04 d3       	rcall	.+1544   	; 0x517c <__gesf2>
    4b74:	18 16       	cp	r1, r24
    4b76:	d4 f4       	brge	.+52     	; 0x4bac <main+0x1282>
    4b78:	89 a5       	ldd	r24, Y+41	; 0x29
    4b7a:	9a a5       	ldd	r25, Y+42	; 0x2a
    4b7c:	09 2e       	mov	r0, r25
    4b7e:	00 0c       	add	r0, r0
    4b80:	aa 0b       	sbc	r26, r26
    4b82:	bb 0b       	sbc	r27, r27
    4b84:	bc 01       	movw	r22, r24
    4b86:	cd 01       	movw	r24, r26
    4b88:	49 d2       	rcall	.+1170   	; 0x501c <__floatsisf>
    4b8a:	dc 01       	movw	r26, r24
    4b8c:	cb 01       	movw	r24, r22
    4b8e:	2d 81       	ldd	r18, Y+5	; 0x05
    4b90:	3e 81       	ldd	r19, Y+6	; 0x06
    4b92:	4f 81       	ldd	r20, Y+7	; 0x07
    4b94:	58 85       	ldd	r21, Y+8	; 0x08
    4b96:	bc 01       	movw	r22, r24
    4b98:	cd 01       	movw	r24, r26
    4b9a:	f0 d2       	rcall	.+1504   	; 0x517c <__gesf2>
    4b9c:	18 16       	cp	r1, r24
    4b9e:	34 f4       	brge	.+12     	; 0x4bac <main+0x1282>
			{
				
				soft_left();
    4ba0:	0e 94 ef 11 	call	0x23de	; 0x23de <soft_left>
				velocity(230,230);
    4ba4:	66 ee       	ldi	r22, 0xE6	; 230
    4ba6:	86 ee       	ldi	r24, 0xE6	; 230
    4ba8:	0e 94 8a 11 	call	0x2314	; 0x2314 <velocity>
			}
			if ((lprev<threshold)&&(cprev<threshold)&&(rprev>=threshold))//  PREVIOUS   W  W  B
    4bac:	89 a5       	ldd	r24, Y+41	; 0x29
    4bae:	9a a5       	ldd	r25, Y+42	; 0x2a
    4bb0:	09 2e       	mov	r0, r25
    4bb2:	00 0c       	add	r0, r0
    4bb4:	aa 0b       	sbc	r26, r26
    4bb6:	bb 0b       	sbc	r27, r27
    4bb8:	bc 01       	movw	r22, r24
    4bba:	cd 01       	movw	r24, r26
    4bbc:	2f d2       	rcall	.+1118   	; 0x501c <__floatsisf>
    4bbe:	dc 01       	movw	r26, r24
    4bc0:	cb 01       	movw	r24, r22
    4bc2:	29 81       	ldd	r18, Y+1	; 0x01
    4bc4:	3a 81       	ldd	r19, Y+2	; 0x02
    4bc6:	4b 81       	ldd	r20, Y+3	; 0x03
    4bc8:	5c 81       	ldd	r21, Y+4	; 0x04
    4bca:	bc 01       	movw	r22, r24
    4bcc:	cd 01       	movw	r24, r26
    4bce:	d6 d2       	rcall	.+1452   	; 0x517c <__gesf2>
    4bd0:	18 16       	cp	r1, r24
    4bd2:	74 f5       	brge	.+92     	; 0x4c30 <main+0x1306>
    4bd4:	89 a5       	ldd	r24, Y+41	; 0x29
    4bd6:	9a a5       	ldd	r25, Y+42	; 0x2a
    4bd8:	09 2e       	mov	r0, r25
    4bda:	00 0c       	add	r0, r0
    4bdc:	aa 0b       	sbc	r26, r26
    4bde:	bb 0b       	sbc	r27, r27
    4be0:	bc 01       	movw	r22, r24
    4be2:	cd 01       	movw	r24, r26
    4be4:	1b d2       	rcall	.+1078   	; 0x501c <__floatsisf>
    4be6:	dc 01       	movw	r26, r24
    4be8:	cb 01       	movw	r24, r22
    4bea:	29 85       	ldd	r18, Y+9	; 0x09
    4bec:	3a 85       	ldd	r19, Y+10	; 0x0a
    4bee:	4b 85       	ldd	r20, Y+11	; 0x0b
    4bf0:	5c 85       	ldd	r21, Y+12	; 0x0c
    4bf2:	bc 01       	movw	r22, r24
    4bf4:	cd 01       	movw	r24, r26
    4bf6:	c2 d2       	rcall	.+1412   	; 0x517c <__gesf2>
    4bf8:	18 16       	cp	r1, r24
    4bfa:	d4 f4       	brge	.+52     	; 0x4c30 <main+0x1306>
    4bfc:	89 a5       	ldd	r24, Y+41	; 0x29
    4bfe:	9a a5       	ldd	r25, Y+42	; 0x2a
    4c00:	09 2e       	mov	r0, r25
    4c02:	00 0c       	add	r0, r0
    4c04:	aa 0b       	sbc	r26, r26
    4c06:	bb 0b       	sbc	r27, r27
    4c08:	bc 01       	movw	r22, r24
    4c0a:	cd 01       	movw	r24, r26
    4c0c:	07 d2       	rcall	.+1038   	; 0x501c <__floatsisf>
    4c0e:	dc 01       	movw	r26, r24
    4c10:	cb 01       	movw	r24, r22
    4c12:	2d 81       	ldd	r18, Y+5	; 0x05
    4c14:	3e 81       	ldd	r19, Y+6	; 0x06
    4c16:	4f 81       	ldd	r20, Y+7	; 0x07
    4c18:	58 85       	ldd	r21, Y+8	; 0x08
    4c1a:	bc 01       	movw	r22, r24
    4c1c:	cd 01       	movw	r24, r26
    4c1e:	64 d1       	rcall	.+712    	; 0x4ee8 <__cmpsf2>
    4c20:	18 16       	cp	r1, r24
    4c22:	34 f0       	brlt	.+12     	; 0x4c30 <main+0x1306>
			{
				
				soft_right();
    4c24:	0e 94 f8 11 	call	0x23f0	; 0x23f0 <soft_right>
				velocity(230,230);
    4c28:	66 ee       	ldi	r22, 0xE6	; 230
    4c2a:	86 ee       	ldi	r24, 0xE6	; 230
    4c2c:	0e 94 8a 11 	call	0x2314	; 0x2314 <velocity>
			}
			if ((lprev<threshold)&&(cprev>=threshold)&&(rprev<threshold))//   PREVIOUS  W   B   W  SPECIAL CASE
    4c30:	89 a5       	ldd	r24, Y+41	; 0x29
    4c32:	9a a5       	ldd	r25, Y+42	; 0x2a
    4c34:	09 2e       	mov	r0, r25
    4c36:	00 0c       	add	r0, r0
    4c38:	aa 0b       	sbc	r26, r26
    4c3a:	bb 0b       	sbc	r27, r27
    4c3c:	bc 01       	movw	r22, r24
    4c3e:	cd 01       	movw	r24, r26
    4c40:	ed d1       	rcall	.+986    	; 0x501c <__floatsisf>
    4c42:	dc 01       	movw	r26, r24
    4c44:	cb 01       	movw	r24, r22
    4c46:	29 81       	ldd	r18, Y+1	; 0x01
    4c48:	3a 81       	ldd	r19, Y+2	; 0x02
    4c4a:	4b 81       	ldd	r20, Y+3	; 0x03
    4c4c:	5c 81       	ldd	r21, Y+4	; 0x04
    4c4e:	bc 01       	movw	r22, r24
    4c50:	cd 01       	movw	r24, r26
    4c52:	94 d2       	rcall	.+1320   	; 0x517c <__gesf2>
    4c54:	18 16       	cp	r1, r24
    4c56:	74 f5       	brge	.+92     	; 0x4cb4 <main+0x138a>
    4c58:	89 a5       	ldd	r24, Y+41	; 0x29
    4c5a:	9a a5       	ldd	r25, Y+42	; 0x2a
    4c5c:	09 2e       	mov	r0, r25
    4c5e:	00 0c       	add	r0, r0
    4c60:	aa 0b       	sbc	r26, r26
    4c62:	bb 0b       	sbc	r27, r27
    4c64:	bc 01       	movw	r22, r24
    4c66:	cd 01       	movw	r24, r26
    4c68:	d9 d1       	rcall	.+946    	; 0x501c <__floatsisf>
    4c6a:	dc 01       	movw	r26, r24
    4c6c:	cb 01       	movw	r24, r22
    4c6e:	29 85       	ldd	r18, Y+9	; 0x09
    4c70:	3a 85       	ldd	r19, Y+10	; 0x0a
    4c72:	4b 85       	ldd	r20, Y+11	; 0x0b
    4c74:	5c 85       	ldd	r21, Y+12	; 0x0c
    4c76:	bc 01       	movw	r22, r24
    4c78:	cd 01       	movw	r24, r26
    4c7a:	36 d1       	rcall	.+620    	; 0x4ee8 <__cmpsf2>
    4c7c:	18 16       	cp	r1, r24
    4c7e:	d4 f0       	brlt	.+52     	; 0x4cb4 <main+0x138a>
    4c80:	89 a5       	ldd	r24, Y+41	; 0x29
    4c82:	9a a5       	ldd	r25, Y+42	; 0x2a
    4c84:	09 2e       	mov	r0, r25
    4c86:	00 0c       	add	r0, r0
    4c88:	aa 0b       	sbc	r26, r26
    4c8a:	bb 0b       	sbc	r27, r27
    4c8c:	bc 01       	movw	r22, r24
    4c8e:	cd 01       	movw	r24, r26
    4c90:	c5 d1       	rcall	.+906    	; 0x501c <__floatsisf>
    4c92:	dc 01       	movw	r26, r24
    4c94:	cb 01       	movw	r24, r22
    4c96:	2d 81       	ldd	r18, Y+5	; 0x05
    4c98:	3e 81       	ldd	r19, Y+6	; 0x06
    4c9a:	4f 81       	ldd	r20, Y+7	; 0x07
    4c9c:	58 85       	ldd	r21, Y+8	; 0x08
    4c9e:	bc 01       	movw	r22, r24
    4ca0:	cd 01       	movw	r24, r26
    4ca2:	6c d2       	rcall	.+1240   	; 0x517c <__gesf2>
    4ca4:	18 16       	cp	r1, r24
    4ca6:	34 f4       	brge	.+12     	; 0x4cb4 <main+0x138a>
			{
				
				soft_left();
    4ca8:	0e 94 ef 11 	call	0x23de	; 0x23de <soft_left>
				velocity(230,230);
    4cac:	66 ee       	ldi	r22, 0xE6	; 230
    4cae:	86 ee       	ldi	r24, 0xE6	; 230
    4cb0:	0e 94 8a 11 	call	0x2314	; 0x2314 <velocity>
			}
			if ((lprev<threshold)&&(cprev>=threshold)&&(rprev>=threshold))//   PREVIOUS  W  B  B
    4cb4:	89 a5       	ldd	r24, Y+41	; 0x29
    4cb6:	9a a5       	ldd	r25, Y+42	; 0x2a
    4cb8:	09 2e       	mov	r0, r25
    4cba:	00 0c       	add	r0, r0
    4cbc:	aa 0b       	sbc	r26, r26
    4cbe:	bb 0b       	sbc	r27, r27
    4cc0:	bc 01       	movw	r22, r24
    4cc2:	cd 01       	movw	r24, r26
    4cc4:	ab d1       	rcall	.+854    	; 0x501c <__floatsisf>
    4cc6:	dc 01       	movw	r26, r24
    4cc8:	cb 01       	movw	r24, r22
    4cca:	29 81       	ldd	r18, Y+1	; 0x01
    4ccc:	3a 81       	ldd	r19, Y+2	; 0x02
    4cce:	4b 81       	ldd	r20, Y+3	; 0x03
    4cd0:	5c 81       	ldd	r21, Y+4	; 0x04
    4cd2:	bc 01       	movw	r22, r24
    4cd4:	cd 01       	movw	r24, r26
    4cd6:	52 d2       	rcall	.+1188   	; 0x517c <__gesf2>
    4cd8:	18 16       	cp	r1, r24
    4cda:	74 f5       	brge	.+92     	; 0x4d38 <main+0x140e>
    4cdc:	89 a5       	ldd	r24, Y+41	; 0x29
    4cde:	9a a5       	ldd	r25, Y+42	; 0x2a
    4ce0:	09 2e       	mov	r0, r25
    4ce2:	00 0c       	add	r0, r0
    4ce4:	aa 0b       	sbc	r26, r26
    4ce6:	bb 0b       	sbc	r27, r27
    4ce8:	bc 01       	movw	r22, r24
    4cea:	cd 01       	movw	r24, r26
    4cec:	97 d1       	rcall	.+814    	; 0x501c <__floatsisf>
    4cee:	dc 01       	movw	r26, r24
    4cf0:	cb 01       	movw	r24, r22
    4cf2:	29 85       	ldd	r18, Y+9	; 0x09
    4cf4:	3a 85       	ldd	r19, Y+10	; 0x0a
    4cf6:	4b 85       	ldd	r20, Y+11	; 0x0b
    4cf8:	5c 85       	ldd	r21, Y+12	; 0x0c
    4cfa:	bc 01       	movw	r22, r24
    4cfc:	cd 01       	movw	r24, r26
    4cfe:	f4 d0       	rcall	.+488    	; 0x4ee8 <__cmpsf2>
    4d00:	18 16       	cp	r1, r24
    4d02:	d4 f0       	brlt	.+52     	; 0x4d38 <main+0x140e>
    4d04:	89 a5       	ldd	r24, Y+41	; 0x29
    4d06:	9a a5       	ldd	r25, Y+42	; 0x2a
    4d08:	09 2e       	mov	r0, r25
    4d0a:	00 0c       	add	r0, r0
    4d0c:	aa 0b       	sbc	r26, r26
    4d0e:	bb 0b       	sbc	r27, r27
    4d10:	bc 01       	movw	r22, r24
    4d12:	cd 01       	movw	r24, r26
    4d14:	83 d1       	rcall	.+774    	; 0x501c <__floatsisf>
    4d16:	dc 01       	movw	r26, r24
    4d18:	cb 01       	movw	r24, r22
    4d1a:	2d 81       	ldd	r18, Y+5	; 0x05
    4d1c:	3e 81       	ldd	r19, Y+6	; 0x06
    4d1e:	4f 81       	ldd	r20, Y+7	; 0x07
    4d20:	58 85       	ldd	r21, Y+8	; 0x08
    4d22:	bc 01       	movw	r22, r24
    4d24:	cd 01       	movw	r24, r26
    4d26:	e0 d0       	rcall	.+448    	; 0x4ee8 <__cmpsf2>
    4d28:	18 16       	cp	r1, r24
    4d2a:	34 f0       	brlt	.+12     	; 0x4d38 <main+0x140e>
			{
				
				soft_right();
    4d2c:	0e 94 f8 11 	call	0x23f0	; 0x23f0 <soft_right>
				velocity(230,230);
    4d30:	66 ee       	ldi	r22, 0xE6	; 230
    4d32:	86 ee       	ldi	r24, 0xE6	; 230
    4d34:	0e 94 8a 11 	call	0x2314	; 0x2314 <velocity>
			}
			if ((lprev>=threshold)&&(cprev>=threshold)&&(rprev<threshold))//   PREVIOUS  B  B  W
    4d38:	89 a5       	ldd	r24, Y+41	; 0x29
    4d3a:	9a a5       	ldd	r25, Y+42	; 0x2a
    4d3c:	09 2e       	mov	r0, r25
    4d3e:	00 0c       	add	r0, r0
    4d40:	aa 0b       	sbc	r26, r26
    4d42:	bb 0b       	sbc	r27, r27
    4d44:	bc 01       	movw	r22, r24
    4d46:	cd 01       	movw	r24, r26
    4d48:	69 d1       	rcall	.+722    	; 0x501c <__floatsisf>
    4d4a:	dc 01       	movw	r26, r24
    4d4c:	cb 01       	movw	r24, r22
    4d4e:	29 81       	ldd	r18, Y+1	; 0x01
    4d50:	3a 81       	ldd	r19, Y+2	; 0x02
    4d52:	4b 81       	ldd	r20, Y+3	; 0x03
    4d54:	5c 81       	ldd	r21, Y+4	; 0x04
    4d56:	bc 01       	movw	r22, r24
    4d58:	cd 01       	movw	r24, r26
    4d5a:	c6 d0       	rcall	.+396    	; 0x4ee8 <__cmpsf2>
    4d5c:	18 16       	cp	r1, r24
    4d5e:	74 f1       	brlt	.+92     	; 0x4dbc <main+0x1492>
    4d60:	89 a5       	ldd	r24, Y+41	; 0x29
    4d62:	9a a5       	ldd	r25, Y+42	; 0x2a
    4d64:	09 2e       	mov	r0, r25
    4d66:	00 0c       	add	r0, r0
    4d68:	aa 0b       	sbc	r26, r26
    4d6a:	bb 0b       	sbc	r27, r27
    4d6c:	bc 01       	movw	r22, r24
    4d6e:	cd 01       	movw	r24, r26
    4d70:	55 d1       	rcall	.+682    	; 0x501c <__floatsisf>
    4d72:	dc 01       	movw	r26, r24
    4d74:	cb 01       	movw	r24, r22
    4d76:	29 85       	ldd	r18, Y+9	; 0x09
    4d78:	3a 85       	ldd	r19, Y+10	; 0x0a
    4d7a:	4b 85       	ldd	r20, Y+11	; 0x0b
    4d7c:	5c 85       	ldd	r21, Y+12	; 0x0c
    4d7e:	bc 01       	movw	r22, r24
    4d80:	cd 01       	movw	r24, r26
    4d82:	b2 d0       	rcall	.+356    	; 0x4ee8 <__cmpsf2>
    4d84:	18 16       	cp	r1, r24
    4d86:	d4 f0       	brlt	.+52     	; 0x4dbc <main+0x1492>
    4d88:	89 a5       	ldd	r24, Y+41	; 0x29
    4d8a:	9a a5       	ldd	r25, Y+42	; 0x2a
    4d8c:	09 2e       	mov	r0, r25
    4d8e:	00 0c       	add	r0, r0
    4d90:	aa 0b       	sbc	r26, r26
    4d92:	bb 0b       	sbc	r27, r27
    4d94:	bc 01       	movw	r22, r24
    4d96:	cd 01       	movw	r24, r26
    4d98:	41 d1       	rcall	.+642    	; 0x501c <__floatsisf>
    4d9a:	dc 01       	movw	r26, r24
    4d9c:	cb 01       	movw	r24, r22
    4d9e:	2d 81       	ldd	r18, Y+5	; 0x05
    4da0:	3e 81       	ldd	r19, Y+6	; 0x06
    4da2:	4f 81       	ldd	r20, Y+7	; 0x07
    4da4:	58 85       	ldd	r21, Y+8	; 0x08
    4da6:	bc 01       	movw	r22, r24
    4da8:	cd 01       	movw	r24, r26
    4daa:	e8 d1       	rcall	.+976    	; 0x517c <__gesf2>
    4dac:	18 16       	cp	r1, r24
    4dae:	34 f4       	brge	.+12     	; 0x4dbc <main+0x1492>
			{
				
				soft_left();
    4db0:	0e 94 ef 11 	call	0x23de	; 0x23de <soft_left>
				velocity(230,230);
    4db4:	66 ee       	ldi	r22, 0xE6	; 230
    4db6:	86 ee       	ldi	r24, 0xE6	; 230
    4db8:	0e 94 8a 11 	call	0x2314	; 0x2314 <velocity>
			}
		}

		
		// The values of white line sensors are stores for feedback system
		lprev=l;
    4dbc:	8b a9       	ldd	r24, Y+51	; 0x33
    4dbe:	9c a9       	ldd	r25, Y+52	; 0x34
    4dc0:	ad a9       	ldd	r26, Y+53	; 0x35
    4dc2:	be a9       	ldd	r27, Y+54	; 0x36
    4dc4:	89 83       	std	Y+1, r24	; 0x01
    4dc6:	9a 83       	std	Y+2, r25	; 0x02
    4dc8:	ab 83       	std	Y+3, r26	; 0x03
    4dca:	bc 83       	std	Y+4, r27	; 0x04
		rprev=r;
    4dcc:	8b ad       	ldd	r24, Y+59	; 0x3b
    4dce:	9c ad       	ldd	r25, Y+60	; 0x3c
    4dd0:	ad ad       	ldd	r26, Y+61	; 0x3d
    4dd2:	be ad       	ldd	r27, Y+62	; 0x3e
    4dd4:	8d 83       	std	Y+5, r24	; 0x05
    4dd6:	9e 83       	std	Y+6, r25	; 0x06
    4dd8:	af 83       	std	Y+7, r26	; 0x07
    4dda:	b8 87       	std	Y+8, r27	; 0x08
		cprev=c;
    4ddc:	8f a9       	ldd	r24, Y+55	; 0x37
    4dde:	98 ad       	ldd	r25, Y+56	; 0x38
    4de0:	a9 ad       	ldd	r26, Y+57	; 0x39
    4de2:	ba ad       	ldd	r27, Y+58	; 0x3a
    4de4:	89 87       	std	Y+9, r24	; 0x09
    4de6:	9a 87       	std	Y+10, r25	; 0x0a
    4de8:	ab 87       	std	Y+11, r26	; 0x0b
    4dea:	bc 87       	std	Y+12, r27	; 0x0c

 }// while loop
    4dec:	f8 c8       	rjmp	.-3600   	; 0x3fde <main+0x6b4>
		prsnt2=temp_dest;
	}
	
}
prsnt=13;
for(k=0;k<33;k++)
    4dee:	8b 89       	ldd	r24, Y+19	; 0x13
    4df0:	9c 89       	ldd	r25, Y+20	; 0x14
    4df2:	01 96       	adiw	r24, 0x01	; 1
    4df4:	9c 8b       	std	Y+20, r25	; 0x14
    4df6:	8b 8b       	std	Y+19, r24	; 0x13
    4df8:	8b 89       	ldd	r24, Y+19	; 0x13
    4dfa:	9c 89       	ldd	r25, Y+20	; 0x14
    4dfc:	81 97       	sbiw	r24, 0x21	; 33
    4dfe:	0c f4       	brge	.+2      	; 0x4e02 <main+0x14d8>
    4e00:	66 c8       	rjmp	.-3892   	; 0x3ece <main+0x5a4>

 }// while loop
	}//for loop
			}//if condition for boot switch
  
return 0;
    4e02:	80 e0       	ldi	r24, 0x00	; 0
    4e04:	90 e0       	ldi	r25, 0x00	; 0
}
    4e06:	ca 53       	subi	r28, 0x3A	; 58
    4e08:	df 4f       	sbci	r29, 0xFF	; 255
    4e0a:	0f b6       	in	r0, 0x3f	; 63
    4e0c:	f8 94       	cli
    4e0e:	de bf       	out	0x3e, r29	; 62
    4e10:	0f be       	out	0x3f, r0	; 63
    4e12:	cd bf       	out	0x3d, r28	; 61
    4e14:	df 91       	pop	r29
    4e16:	cf 91       	pop	r28
    4e18:	1f 91       	pop	r17
    4e1a:	0f 91       	pop	r16
    4e1c:	08 95       	ret

00004e1e <__subsf3>:
    4e1e:	50 58       	subi	r21, 0x80	; 128

00004e20 <__addsf3>:
    4e20:	bb 27       	eor	r27, r27
    4e22:	aa 27       	eor	r26, r26
    4e24:	0e d0       	rcall	.+28     	; 0x4e42 <__addsf3x>
    4e26:	70 c1       	rjmp	.+736    	; 0x5108 <__fp_round>
    4e28:	61 d1       	rcall	.+706    	; 0x50ec <__fp_pscA>
    4e2a:	30 f0       	brcs	.+12     	; 0x4e38 <__addsf3+0x18>
    4e2c:	66 d1       	rcall	.+716    	; 0x50fa <__fp_pscB>
    4e2e:	20 f0       	brcs	.+8      	; 0x4e38 <__addsf3+0x18>
    4e30:	31 f4       	brne	.+12     	; 0x4e3e <__addsf3+0x1e>
    4e32:	9f 3f       	cpi	r25, 0xFF	; 255
    4e34:	11 f4       	brne	.+4      	; 0x4e3a <__addsf3+0x1a>
    4e36:	1e f4       	brtc	.+6      	; 0x4e3e <__addsf3+0x1e>
    4e38:	56 c1       	rjmp	.+684    	; 0x50e6 <__fp_nan>
    4e3a:	0e f4       	brtc	.+2      	; 0x4e3e <__addsf3+0x1e>
    4e3c:	e0 95       	com	r30
    4e3e:	e7 fb       	bst	r30, 7
    4e40:	4c c1       	rjmp	.+664    	; 0x50da <__fp_inf>

00004e42 <__addsf3x>:
    4e42:	e9 2f       	mov	r30, r25
    4e44:	72 d1       	rcall	.+740    	; 0x512a <__fp_split3>
    4e46:	80 f3       	brcs	.-32     	; 0x4e28 <__addsf3+0x8>
    4e48:	ba 17       	cp	r27, r26
    4e4a:	62 07       	cpc	r22, r18
    4e4c:	73 07       	cpc	r23, r19
    4e4e:	84 07       	cpc	r24, r20
    4e50:	95 07       	cpc	r25, r21
    4e52:	18 f0       	brcs	.+6      	; 0x4e5a <__addsf3x+0x18>
    4e54:	71 f4       	brne	.+28     	; 0x4e72 <__addsf3x+0x30>
    4e56:	9e f5       	brtc	.+102    	; 0x4ebe <__addsf3x+0x7c>
    4e58:	8a c1       	rjmp	.+788    	; 0x516e <__fp_zero>
    4e5a:	0e f4       	brtc	.+2      	; 0x4e5e <__addsf3x+0x1c>
    4e5c:	e0 95       	com	r30
    4e5e:	0b 2e       	mov	r0, r27
    4e60:	ba 2f       	mov	r27, r26
    4e62:	a0 2d       	mov	r26, r0
    4e64:	0b 01       	movw	r0, r22
    4e66:	b9 01       	movw	r22, r18
    4e68:	90 01       	movw	r18, r0
    4e6a:	0c 01       	movw	r0, r24
    4e6c:	ca 01       	movw	r24, r20
    4e6e:	a0 01       	movw	r20, r0
    4e70:	11 24       	eor	r1, r1
    4e72:	ff 27       	eor	r31, r31
    4e74:	59 1b       	sub	r21, r25
    4e76:	99 f0       	breq	.+38     	; 0x4e9e <__addsf3x+0x5c>
    4e78:	59 3f       	cpi	r21, 0xF9	; 249
    4e7a:	50 f4       	brcc	.+20     	; 0x4e90 <__addsf3x+0x4e>
    4e7c:	50 3e       	cpi	r21, 0xE0	; 224
    4e7e:	68 f1       	brcs	.+90     	; 0x4eda <__addsf3x+0x98>
    4e80:	1a 16       	cp	r1, r26
    4e82:	f0 40       	sbci	r31, 0x00	; 0
    4e84:	a2 2f       	mov	r26, r18
    4e86:	23 2f       	mov	r18, r19
    4e88:	34 2f       	mov	r19, r20
    4e8a:	44 27       	eor	r20, r20
    4e8c:	58 5f       	subi	r21, 0xF8	; 248
    4e8e:	f3 cf       	rjmp	.-26     	; 0x4e76 <__addsf3x+0x34>
    4e90:	46 95       	lsr	r20
    4e92:	37 95       	ror	r19
    4e94:	27 95       	ror	r18
    4e96:	a7 95       	ror	r26
    4e98:	f0 40       	sbci	r31, 0x00	; 0
    4e9a:	53 95       	inc	r21
    4e9c:	c9 f7       	brne	.-14     	; 0x4e90 <__addsf3x+0x4e>
    4e9e:	7e f4       	brtc	.+30     	; 0x4ebe <__addsf3x+0x7c>
    4ea0:	1f 16       	cp	r1, r31
    4ea2:	ba 0b       	sbc	r27, r26
    4ea4:	62 0b       	sbc	r22, r18
    4ea6:	73 0b       	sbc	r23, r19
    4ea8:	84 0b       	sbc	r24, r20
    4eaa:	ba f0       	brmi	.+46     	; 0x4eda <__addsf3x+0x98>
    4eac:	91 50       	subi	r25, 0x01	; 1
    4eae:	a1 f0       	breq	.+40     	; 0x4ed8 <__addsf3x+0x96>
    4eb0:	ff 0f       	add	r31, r31
    4eb2:	bb 1f       	adc	r27, r27
    4eb4:	66 1f       	adc	r22, r22
    4eb6:	77 1f       	adc	r23, r23
    4eb8:	88 1f       	adc	r24, r24
    4eba:	c2 f7       	brpl	.-16     	; 0x4eac <__addsf3x+0x6a>
    4ebc:	0e c0       	rjmp	.+28     	; 0x4eda <__addsf3x+0x98>
    4ebe:	ba 0f       	add	r27, r26
    4ec0:	62 1f       	adc	r22, r18
    4ec2:	73 1f       	adc	r23, r19
    4ec4:	84 1f       	adc	r24, r20
    4ec6:	48 f4       	brcc	.+18     	; 0x4eda <__addsf3x+0x98>
    4ec8:	87 95       	ror	r24
    4eca:	77 95       	ror	r23
    4ecc:	67 95       	ror	r22
    4ece:	b7 95       	ror	r27
    4ed0:	f7 95       	ror	r31
    4ed2:	9e 3f       	cpi	r25, 0xFE	; 254
    4ed4:	08 f0       	brcs	.+2      	; 0x4ed8 <__addsf3x+0x96>
    4ed6:	b3 cf       	rjmp	.-154    	; 0x4e3e <__addsf3+0x1e>
    4ed8:	93 95       	inc	r25
    4eda:	88 0f       	add	r24, r24
    4edc:	08 f0       	brcs	.+2      	; 0x4ee0 <__addsf3x+0x9e>
    4ede:	99 27       	eor	r25, r25
    4ee0:	ee 0f       	add	r30, r30
    4ee2:	97 95       	ror	r25
    4ee4:	87 95       	ror	r24
    4ee6:	08 95       	ret

00004ee8 <__cmpsf2>:
    4ee8:	d4 d0       	rcall	.+424    	; 0x5092 <__fp_cmp>
    4eea:	08 f4       	brcc	.+2      	; 0x4eee <__cmpsf2+0x6>
    4eec:	81 e0       	ldi	r24, 0x01	; 1
    4eee:	08 95       	ret

00004ef0 <__divsf3>:
    4ef0:	0c d0       	rcall	.+24     	; 0x4f0a <__divsf3x>
    4ef2:	0a c1       	rjmp	.+532    	; 0x5108 <__fp_round>
    4ef4:	02 d1       	rcall	.+516    	; 0x50fa <__fp_pscB>
    4ef6:	40 f0       	brcs	.+16     	; 0x4f08 <__divsf3+0x18>
    4ef8:	f9 d0       	rcall	.+498    	; 0x50ec <__fp_pscA>
    4efa:	30 f0       	brcs	.+12     	; 0x4f08 <__divsf3+0x18>
    4efc:	21 f4       	brne	.+8      	; 0x4f06 <__divsf3+0x16>
    4efe:	5f 3f       	cpi	r21, 0xFF	; 255
    4f00:	19 f0       	breq	.+6      	; 0x4f08 <__divsf3+0x18>
    4f02:	eb c0       	rjmp	.+470    	; 0x50da <__fp_inf>
    4f04:	51 11       	cpse	r21, r1
    4f06:	34 c1       	rjmp	.+616    	; 0x5170 <__fp_szero>
    4f08:	ee c0       	rjmp	.+476    	; 0x50e6 <__fp_nan>

00004f0a <__divsf3x>:
    4f0a:	0f d1       	rcall	.+542    	; 0x512a <__fp_split3>
    4f0c:	98 f3       	brcs	.-26     	; 0x4ef4 <__divsf3+0x4>

00004f0e <__divsf3_pse>:
    4f0e:	99 23       	and	r25, r25
    4f10:	c9 f3       	breq	.-14     	; 0x4f04 <__divsf3+0x14>
    4f12:	55 23       	and	r21, r21
    4f14:	b1 f3       	breq	.-20     	; 0x4f02 <__divsf3+0x12>
    4f16:	95 1b       	sub	r25, r21
    4f18:	55 0b       	sbc	r21, r21
    4f1a:	bb 27       	eor	r27, r27
    4f1c:	aa 27       	eor	r26, r26
    4f1e:	62 17       	cp	r22, r18
    4f20:	73 07       	cpc	r23, r19
    4f22:	84 07       	cpc	r24, r20
    4f24:	38 f0       	brcs	.+14     	; 0x4f34 <__divsf3_pse+0x26>
    4f26:	9f 5f       	subi	r25, 0xFF	; 255
    4f28:	5f 4f       	sbci	r21, 0xFF	; 255
    4f2a:	22 0f       	add	r18, r18
    4f2c:	33 1f       	adc	r19, r19
    4f2e:	44 1f       	adc	r20, r20
    4f30:	aa 1f       	adc	r26, r26
    4f32:	a9 f3       	breq	.-22     	; 0x4f1e <__divsf3_pse+0x10>
    4f34:	33 d0       	rcall	.+102    	; 0x4f9c <__divsf3_pse+0x8e>
    4f36:	0e 2e       	mov	r0, r30
    4f38:	3a f0       	brmi	.+14     	; 0x4f48 <__divsf3_pse+0x3a>
    4f3a:	e0 e8       	ldi	r30, 0x80	; 128
    4f3c:	30 d0       	rcall	.+96     	; 0x4f9e <__divsf3_pse+0x90>
    4f3e:	91 50       	subi	r25, 0x01	; 1
    4f40:	50 40       	sbci	r21, 0x00	; 0
    4f42:	e6 95       	lsr	r30
    4f44:	00 1c       	adc	r0, r0
    4f46:	ca f7       	brpl	.-14     	; 0x4f3a <__divsf3_pse+0x2c>
    4f48:	29 d0       	rcall	.+82     	; 0x4f9c <__divsf3_pse+0x8e>
    4f4a:	fe 2f       	mov	r31, r30
    4f4c:	27 d0       	rcall	.+78     	; 0x4f9c <__divsf3_pse+0x8e>
    4f4e:	66 0f       	add	r22, r22
    4f50:	77 1f       	adc	r23, r23
    4f52:	88 1f       	adc	r24, r24
    4f54:	bb 1f       	adc	r27, r27
    4f56:	26 17       	cp	r18, r22
    4f58:	37 07       	cpc	r19, r23
    4f5a:	48 07       	cpc	r20, r24
    4f5c:	ab 07       	cpc	r26, r27
    4f5e:	b0 e8       	ldi	r27, 0x80	; 128
    4f60:	09 f0       	breq	.+2      	; 0x4f64 <__divsf3_pse+0x56>
    4f62:	bb 0b       	sbc	r27, r27
    4f64:	80 2d       	mov	r24, r0
    4f66:	bf 01       	movw	r22, r30
    4f68:	ff 27       	eor	r31, r31
    4f6a:	93 58       	subi	r25, 0x83	; 131
    4f6c:	5f 4f       	sbci	r21, 0xFF	; 255
    4f6e:	2a f0       	brmi	.+10     	; 0x4f7a <__divsf3_pse+0x6c>
    4f70:	9e 3f       	cpi	r25, 0xFE	; 254
    4f72:	51 05       	cpc	r21, r1
    4f74:	68 f0       	brcs	.+26     	; 0x4f90 <__divsf3_pse+0x82>
    4f76:	b1 c0       	rjmp	.+354    	; 0x50da <__fp_inf>
    4f78:	fb c0       	rjmp	.+502    	; 0x5170 <__fp_szero>
    4f7a:	5f 3f       	cpi	r21, 0xFF	; 255
    4f7c:	ec f3       	brlt	.-6      	; 0x4f78 <__divsf3_pse+0x6a>
    4f7e:	98 3e       	cpi	r25, 0xE8	; 232
    4f80:	dc f3       	brlt	.-10     	; 0x4f78 <__divsf3_pse+0x6a>
    4f82:	86 95       	lsr	r24
    4f84:	77 95       	ror	r23
    4f86:	67 95       	ror	r22
    4f88:	b7 95       	ror	r27
    4f8a:	f7 95       	ror	r31
    4f8c:	9f 5f       	subi	r25, 0xFF	; 255
    4f8e:	c9 f7       	brne	.-14     	; 0x4f82 <__divsf3_pse+0x74>
    4f90:	88 0f       	add	r24, r24
    4f92:	91 1d       	adc	r25, r1
    4f94:	96 95       	lsr	r25
    4f96:	87 95       	ror	r24
    4f98:	97 f9       	bld	r25, 7
    4f9a:	08 95       	ret
    4f9c:	e1 e0       	ldi	r30, 0x01	; 1
    4f9e:	66 0f       	add	r22, r22
    4fa0:	77 1f       	adc	r23, r23
    4fa2:	88 1f       	adc	r24, r24
    4fa4:	bb 1f       	adc	r27, r27
    4fa6:	62 17       	cp	r22, r18
    4fa8:	73 07       	cpc	r23, r19
    4faa:	84 07       	cpc	r24, r20
    4fac:	ba 07       	cpc	r27, r26
    4fae:	20 f0       	brcs	.+8      	; 0x4fb8 <__divsf3_pse+0xaa>
    4fb0:	62 1b       	sub	r22, r18
    4fb2:	73 0b       	sbc	r23, r19
    4fb4:	84 0b       	sbc	r24, r20
    4fb6:	ba 0b       	sbc	r27, r26
    4fb8:	ee 1f       	adc	r30, r30
    4fba:	88 f7       	brcc	.-30     	; 0x4f9e <__divsf3_pse+0x90>
    4fbc:	e0 95       	com	r30
    4fbe:	08 95       	ret

00004fc0 <__fixunssfsi>:
    4fc0:	bc d0       	rcall	.+376    	; 0x513a <__fp_splitA>
    4fc2:	88 f0       	brcs	.+34     	; 0x4fe6 <__fixunssfsi+0x26>
    4fc4:	9f 57       	subi	r25, 0x7F	; 127
    4fc6:	90 f0       	brcs	.+36     	; 0x4fec <__fixunssfsi+0x2c>
    4fc8:	b9 2f       	mov	r27, r25
    4fca:	99 27       	eor	r25, r25
    4fcc:	b7 51       	subi	r27, 0x17	; 23
    4fce:	a0 f0       	brcs	.+40     	; 0x4ff8 <__fixunssfsi+0x38>
    4fd0:	d1 f0       	breq	.+52     	; 0x5006 <__fixunssfsi+0x46>
    4fd2:	66 0f       	add	r22, r22
    4fd4:	77 1f       	adc	r23, r23
    4fd6:	88 1f       	adc	r24, r24
    4fd8:	99 1f       	adc	r25, r25
    4fda:	1a f0       	brmi	.+6      	; 0x4fe2 <__fixunssfsi+0x22>
    4fdc:	ba 95       	dec	r27
    4fde:	c9 f7       	brne	.-14     	; 0x4fd2 <__fixunssfsi+0x12>
    4fe0:	12 c0       	rjmp	.+36     	; 0x5006 <__fixunssfsi+0x46>
    4fe2:	b1 30       	cpi	r27, 0x01	; 1
    4fe4:	81 f0       	breq	.+32     	; 0x5006 <__fixunssfsi+0x46>
    4fe6:	c3 d0       	rcall	.+390    	; 0x516e <__fp_zero>
    4fe8:	b1 e0       	ldi	r27, 0x01	; 1
    4fea:	08 95       	ret
    4fec:	c0 c0       	rjmp	.+384    	; 0x516e <__fp_zero>
    4fee:	67 2f       	mov	r22, r23
    4ff0:	78 2f       	mov	r23, r24
    4ff2:	88 27       	eor	r24, r24
    4ff4:	b8 5f       	subi	r27, 0xF8	; 248
    4ff6:	39 f0       	breq	.+14     	; 0x5006 <__fixunssfsi+0x46>
    4ff8:	b9 3f       	cpi	r27, 0xF9	; 249
    4ffa:	cc f3       	brlt	.-14     	; 0x4fee <__fixunssfsi+0x2e>
    4ffc:	86 95       	lsr	r24
    4ffe:	77 95       	ror	r23
    5000:	67 95       	ror	r22
    5002:	b3 95       	inc	r27
    5004:	d9 f7       	brne	.-10     	; 0x4ffc <__fixunssfsi+0x3c>
    5006:	3e f4       	brtc	.+14     	; 0x5016 <__fixunssfsi+0x56>
    5008:	90 95       	com	r25
    500a:	80 95       	com	r24
    500c:	70 95       	com	r23
    500e:	61 95       	neg	r22
    5010:	7f 4f       	sbci	r23, 0xFF	; 255
    5012:	8f 4f       	sbci	r24, 0xFF	; 255
    5014:	9f 4f       	sbci	r25, 0xFF	; 255
    5016:	08 95       	ret

00005018 <__floatunsisf>:
    5018:	e8 94       	clt
    501a:	09 c0       	rjmp	.+18     	; 0x502e <__floatsisf+0x12>

0000501c <__floatsisf>:
    501c:	97 fb       	bst	r25, 7
    501e:	3e f4       	brtc	.+14     	; 0x502e <__floatsisf+0x12>
    5020:	90 95       	com	r25
    5022:	80 95       	com	r24
    5024:	70 95       	com	r23
    5026:	61 95       	neg	r22
    5028:	7f 4f       	sbci	r23, 0xFF	; 255
    502a:	8f 4f       	sbci	r24, 0xFF	; 255
    502c:	9f 4f       	sbci	r25, 0xFF	; 255
    502e:	99 23       	and	r25, r25
    5030:	a9 f0       	breq	.+42     	; 0x505c <__floatsisf+0x40>
    5032:	f9 2f       	mov	r31, r25
    5034:	96 e9       	ldi	r25, 0x96	; 150
    5036:	bb 27       	eor	r27, r27
    5038:	93 95       	inc	r25
    503a:	f6 95       	lsr	r31
    503c:	87 95       	ror	r24
    503e:	77 95       	ror	r23
    5040:	67 95       	ror	r22
    5042:	b7 95       	ror	r27
    5044:	f1 11       	cpse	r31, r1
    5046:	f8 cf       	rjmp	.-16     	; 0x5038 <__floatsisf+0x1c>
    5048:	fa f4       	brpl	.+62     	; 0x5088 <__floatsisf+0x6c>
    504a:	bb 0f       	add	r27, r27
    504c:	11 f4       	brne	.+4      	; 0x5052 <__floatsisf+0x36>
    504e:	60 ff       	sbrs	r22, 0
    5050:	1b c0       	rjmp	.+54     	; 0x5088 <__floatsisf+0x6c>
    5052:	6f 5f       	subi	r22, 0xFF	; 255
    5054:	7f 4f       	sbci	r23, 0xFF	; 255
    5056:	8f 4f       	sbci	r24, 0xFF	; 255
    5058:	9f 4f       	sbci	r25, 0xFF	; 255
    505a:	16 c0       	rjmp	.+44     	; 0x5088 <__floatsisf+0x6c>
    505c:	88 23       	and	r24, r24
    505e:	11 f0       	breq	.+4      	; 0x5064 <__floatsisf+0x48>
    5060:	96 e9       	ldi	r25, 0x96	; 150
    5062:	11 c0       	rjmp	.+34     	; 0x5086 <__floatsisf+0x6a>
    5064:	77 23       	and	r23, r23
    5066:	21 f0       	breq	.+8      	; 0x5070 <__floatsisf+0x54>
    5068:	9e e8       	ldi	r25, 0x8E	; 142
    506a:	87 2f       	mov	r24, r23
    506c:	76 2f       	mov	r23, r22
    506e:	05 c0       	rjmp	.+10     	; 0x507a <__floatsisf+0x5e>
    5070:	66 23       	and	r22, r22
    5072:	71 f0       	breq	.+28     	; 0x5090 <__floatsisf+0x74>
    5074:	96 e8       	ldi	r25, 0x86	; 134
    5076:	86 2f       	mov	r24, r22
    5078:	70 e0       	ldi	r23, 0x00	; 0
    507a:	60 e0       	ldi	r22, 0x00	; 0
    507c:	2a f0       	brmi	.+10     	; 0x5088 <__floatsisf+0x6c>
    507e:	9a 95       	dec	r25
    5080:	66 0f       	add	r22, r22
    5082:	77 1f       	adc	r23, r23
    5084:	88 1f       	adc	r24, r24
    5086:	da f7       	brpl	.-10     	; 0x507e <__floatsisf+0x62>
    5088:	88 0f       	add	r24, r24
    508a:	96 95       	lsr	r25
    508c:	87 95       	ror	r24
    508e:	97 f9       	bld	r25, 7
    5090:	08 95       	ret

00005092 <__fp_cmp>:
    5092:	99 0f       	add	r25, r25
    5094:	00 08       	sbc	r0, r0
    5096:	55 0f       	add	r21, r21
    5098:	aa 0b       	sbc	r26, r26
    509a:	e0 e8       	ldi	r30, 0x80	; 128
    509c:	fe ef       	ldi	r31, 0xFE	; 254
    509e:	16 16       	cp	r1, r22
    50a0:	17 06       	cpc	r1, r23
    50a2:	e8 07       	cpc	r30, r24
    50a4:	f9 07       	cpc	r31, r25
    50a6:	c0 f0       	brcs	.+48     	; 0x50d8 <__fp_cmp+0x46>
    50a8:	12 16       	cp	r1, r18
    50aa:	13 06       	cpc	r1, r19
    50ac:	e4 07       	cpc	r30, r20
    50ae:	f5 07       	cpc	r31, r21
    50b0:	98 f0       	brcs	.+38     	; 0x50d8 <__fp_cmp+0x46>
    50b2:	62 1b       	sub	r22, r18
    50b4:	73 0b       	sbc	r23, r19
    50b6:	84 0b       	sbc	r24, r20
    50b8:	95 0b       	sbc	r25, r21
    50ba:	39 f4       	brne	.+14     	; 0x50ca <__fp_cmp+0x38>
    50bc:	0a 26       	eor	r0, r26
    50be:	61 f0       	breq	.+24     	; 0x50d8 <__fp_cmp+0x46>
    50c0:	23 2b       	or	r18, r19
    50c2:	24 2b       	or	r18, r20
    50c4:	25 2b       	or	r18, r21
    50c6:	21 f4       	brne	.+8      	; 0x50d0 <__fp_cmp+0x3e>
    50c8:	08 95       	ret
    50ca:	0a 26       	eor	r0, r26
    50cc:	09 f4       	brne	.+2      	; 0x50d0 <__fp_cmp+0x3e>
    50ce:	a1 40       	sbci	r26, 0x01	; 1
    50d0:	a6 95       	lsr	r26
    50d2:	8f ef       	ldi	r24, 0xFF	; 255
    50d4:	81 1d       	adc	r24, r1
    50d6:	81 1d       	adc	r24, r1
    50d8:	08 95       	ret

000050da <__fp_inf>:
    50da:	97 f9       	bld	r25, 7
    50dc:	9f 67       	ori	r25, 0x7F	; 127
    50de:	80 e8       	ldi	r24, 0x80	; 128
    50e0:	70 e0       	ldi	r23, 0x00	; 0
    50e2:	60 e0       	ldi	r22, 0x00	; 0
    50e4:	08 95       	ret

000050e6 <__fp_nan>:
    50e6:	9f ef       	ldi	r25, 0xFF	; 255
    50e8:	80 ec       	ldi	r24, 0xC0	; 192
    50ea:	08 95       	ret

000050ec <__fp_pscA>:
    50ec:	00 24       	eor	r0, r0
    50ee:	0a 94       	dec	r0
    50f0:	16 16       	cp	r1, r22
    50f2:	17 06       	cpc	r1, r23
    50f4:	18 06       	cpc	r1, r24
    50f6:	09 06       	cpc	r0, r25
    50f8:	08 95       	ret

000050fa <__fp_pscB>:
    50fa:	00 24       	eor	r0, r0
    50fc:	0a 94       	dec	r0
    50fe:	12 16       	cp	r1, r18
    5100:	13 06       	cpc	r1, r19
    5102:	14 06       	cpc	r1, r20
    5104:	05 06       	cpc	r0, r21
    5106:	08 95       	ret

00005108 <__fp_round>:
    5108:	09 2e       	mov	r0, r25
    510a:	03 94       	inc	r0
    510c:	00 0c       	add	r0, r0
    510e:	11 f4       	brne	.+4      	; 0x5114 <__fp_round+0xc>
    5110:	88 23       	and	r24, r24
    5112:	52 f0       	brmi	.+20     	; 0x5128 <__fp_round+0x20>
    5114:	bb 0f       	add	r27, r27
    5116:	40 f4       	brcc	.+16     	; 0x5128 <__fp_round+0x20>
    5118:	bf 2b       	or	r27, r31
    511a:	11 f4       	brne	.+4      	; 0x5120 <__fp_round+0x18>
    511c:	60 ff       	sbrs	r22, 0
    511e:	04 c0       	rjmp	.+8      	; 0x5128 <__fp_round+0x20>
    5120:	6f 5f       	subi	r22, 0xFF	; 255
    5122:	7f 4f       	sbci	r23, 0xFF	; 255
    5124:	8f 4f       	sbci	r24, 0xFF	; 255
    5126:	9f 4f       	sbci	r25, 0xFF	; 255
    5128:	08 95       	ret

0000512a <__fp_split3>:
    512a:	57 fd       	sbrc	r21, 7
    512c:	90 58       	subi	r25, 0x80	; 128
    512e:	44 0f       	add	r20, r20
    5130:	55 1f       	adc	r21, r21
    5132:	59 f0       	breq	.+22     	; 0x514a <__fp_splitA+0x10>
    5134:	5f 3f       	cpi	r21, 0xFF	; 255
    5136:	71 f0       	breq	.+28     	; 0x5154 <__fp_splitA+0x1a>
    5138:	47 95       	ror	r20

0000513a <__fp_splitA>:
    513a:	88 0f       	add	r24, r24
    513c:	97 fb       	bst	r25, 7
    513e:	99 1f       	adc	r25, r25
    5140:	61 f0       	breq	.+24     	; 0x515a <__fp_splitA+0x20>
    5142:	9f 3f       	cpi	r25, 0xFF	; 255
    5144:	79 f0       	breq	.+30     	; 0x5164 <__fp_splitA+0x2a>
    5146:	87 95       	ror	r24
    5148:	08 95       	ret
    514a:	12 16       	cp	r1, r18
    514c:	13 06       	cpc	r1, r19
    514e:	14 06       	cpc	r1, r20
    5150:	55 1f       	adc	r21, r21
    5152:	f2 cf       	rjmp	.-28     	; 0x5138 <__fp_split3+0xe>
    5154:	46 95       	lsr	r20
    5156:	f1 df       	rcall	.-30     	; 0x513a <__fp_splitA>
    5158:	08 c0       	rjmp	.+16     	; 0x516a <__fp_splitA+0x30>
    515a:	16 16       	cp	r1, r22
    515c:	17 06       	cpc	r1, r23
    515e:	18 06       	cpc	r1, r24
    5160:	99 1f       	adc	r25, r25
    5162:	f1 cf       	rjmp	.-30     	; 0x5146 <__fp_splitA+0xc>
    5164:	86 95       	lsr	r24
    5166:	71 05       	cpc	r23, r1
    5168:	61 05       	cpc	r22, r1
    516a:	08 94       	sec
    516c:	08 95       	ret

0000516e <__fp_zero>:
    516e:	e8 94       	clt

00005170 <__fp_szero>:
    5170:	bb 27       	eor	r27, r27
    5172:	66 27       	eor	r22, r22
    5174:	77 27       	eor	r23, r23
    5176:	cb 01       	movw	r24, r22
    5178:	97 f9       	bld	r25, 7
    517a:	08 95       	ret

0000517c <__gesf2>:
    517c:	8a df       	rcall	.-236    	; 0x5092 <__fp_cmp>
    517e:	08 f4       	brcc	.+2      	; 0x5182 <__gesf2+0x6>
    5180:	8f ef       	ldi	r24, 0xFF	; 255
    5182:	08 95       	ret

00005184 <__mulsf3>:
    5184:	0b d0       	rcall	.+22     	; 0x519c <__mulsf3x>
    5186:	c0 cf       	rjmp	.-128    	; 0x5108 <__fp_round>
    5188:	b1 df       	rcall	.-158    	; 0x50ec <__fp_pscA>
    518a:	28 f0       	brcs	.+10     	; 0x5196 <__mulsf3+0x12>
    518c:	b6 df       	rcall	.-148    	; 0x50fa <__fp_pscB>
    518e:	18 f0       	brcs	.+6      	; 0x5196 <__mulsf3+0x12>
    5190:	95 23       	and	r25, r21
    5192:	09 f0       	breq	.+2      	; 0x5196 <__mulsf3+0x12>
    5194:	a2 cf       	rjmp	.-188    	; 0x50da <__fp_inf>
    5196:	a7 cf       	rjmp	.-178    	; 0x50e6 <__fp_nan>
    5198:	11 24       	eor	r1, r1
    519a:	ea cf       	rjmp	.-44     	; 0x5170 <__fp_szero>

0000519c <__mulsf3x>:
    519c:	c6 df       	rcall	.-116    	; 0x512a <__fp_split3>
    519e:	a0 f3       	brcs	.-24     	; 0x5188 <__mulsf3+0x4>

000051a0 <__mulsf3_pse>:
    51a0:	95 9f       	mul	r25, r21
    51a2:	d1 f3       	breq	.-12     	; 0x5198 <__mulsf3+0x14>
    51a4:	95 0f       	add	r25, r21
    51a6:	50 e0       	ldi	r21, 0x00	; 0
    51a8:	55 1f       	adc	r21, r21
    51aa:	62 9f       	mul	r22, r18
    51ac:	f0 01       	movw	r30, r0
    51ae:	72 9f       	mul	r23, r18
    51b0:	bb 27       	eor	r27, r27
    51b2:	f0 0d       	add	r31, r0
    51b4:	b1 1d       	adc	r27, r1
    51b6:	63 9f       	mul	r22, r19
    51b8:	aa 27       	eor	r26, r26
    51ba:	f0 0d       	add	r31, r0
    51bc:	b1 1d       	adc	r27, r1
    51be:	aa 1f       	adc	r26, r26
    51c0:	64 9f       	mul	r22, r20
    51c2:	66 27       	eor	r22, r22
    51c4:	b0 0d       	add	r27, r0
    51c6:	a1 1d       	adc	r26, r1
    51c8:	66 1f       	adc	r22, r22
    51ca:	82 9f       	mul	r24, r18
    51cc:	22 27       	eor	r18, r18
    51ce:	b0 0d       	add	r27, r0
    51d0:	a1 1d       	adc	r26, r1
    51d2:	62 1f       	adc	r22, r18
    51d4:	73 9f       	mul	r23, r19
    51d6:	b0 0d       	add	r27, r0
    51d8:	a1 1d       	adc	r26, r1
    51da:	62 1f       	adc	r22, r18
    51dc:	83 9f       	mul	r24, r19
    51de:	a0 0d       	add	r26, r0
    51e0:	61 1d       	adc	r22, r1
    51e2:	22 1f       	adc	r18, r18
    51e4:	74 9f       	mul	r23, r20
    51e6:	33 27       	eor	r19, r19
    51e8:	a0 0d       	add	r26, r0
    51ea:	61 1d       	adc	r22, r1
    51ec:	23 1f       	adc	r18, r19
    51ee:	84 9f       	mul	r24, r20
    51f0:	60 0d       	add	r22, r0
    51f2:	21 1d       	adc	r18, r1
    51f4:	82 2f       	mov	r24, r18
    51f6:	76 2f       	mov	r23, r22
    51f8:	6a 2f       	mov	r22, r26
    51fa:	11 24       	eor	r1, r1
    51fc:	9f 57       	subi	r25, 0x7F	; 127
    51fe:	50 40       	sbci	r21, 0x00	; 0
    5200:	8a f0       	brmi	.+34     	; 0x5224 <__mulsf3_pse+0x84>
    5202:	e1 f0       	breq	.+56     	; 0x523c <__mulsf3_pse+0x9c>
    5204:	88 23       	and	r24, r24
    5206:	4a f0       	brmi	.+18     	; 0x521a <__mulsf3_pse+0x7a>
    5208:	ee 0f       	add	r30, r30
    520a:	ff 1f       	adc	r31, r31
    520c:	bb 1f       	adc	r27, r27
    520e:	66 1f       	adc	r22, r22
    5210:	77 1f       	adc	r23, r23
    5212:	88 1f       	adc	r24, r24
    5214:	91 50       	subi	r25, 0x01	; 1
    5216:	50 40       	sbci	r21, 0x00	; 0
    5218:	a9 f7       	brne	.-22     	; 0x5204 <__mulsf3_pse+0x64>
    521a:	9e 3f       	cpi	r25, 0xFE	; 254
    521c:	51 05       	cpc	r21, r1
    521e:	70 f0       	brcs	.+28     	; 0x523c <__mulsf3_pse+0x9c>
    5220:	5c cf       	rjmp	.-328    	; 0x50da <__fp_inf>
    5222:	a6 cf       	rjmp	.-180    	; 0x5170 <__fp_szero>
    5224:	5f 3f       	cpi	r21, 0xFF	; 255
    5226:	ec f3       	brlt	.-6      	; 0x5222 <__mulsf3_pse+0x82>
    5228:	98 3e       	cpi	r25, 0xE8	; 232
    522a:	dc f3       	brlt	.-10     	; 0x5222 <__mulsf3_pse+0x82>
    522c:	86 95       	lsr	r24
    522e:	77 95       	ror	r23
    5230:	67 95       	ror	r22
    5232:	b7 95       	ror	r27
    5234:	f7 95       	ror	r31
    5236:	e7 95       	ror	r30
    5238:	9f 5f       	subi	r25, 0xFF	; 255
    523a:	c1 f7       	brne	.-16     	; 0x522c <__mulsf3_pse+0x8c>
    523c:	fe 2b       	or	r31, r30
    523e:	88 0f       	add	r24, r24
    5240:	91 1d       	adc	r25, r1
    5242:	96 95       	lsr	r25
    5244:	87 95       	ror	r24
    5246:	97 f9       	bld	r25, 7
    5248:	08 95       	ret

0000524a <__umulhisi3>:
    524a:	a2 9f       	mul	r26, r18
    524c:	b0 01       	movw	r22, r0
    524e:	b3 9f       	mul	r27, r19
    5250:	c0 01       	movw	r24, r0
    5252:	a3 9f       	mul	r26, r19
    5254:	70 0d       	add	r23, r0
    5256:	81 1d       	adc	r24, r1
    5258:	11 24       	eor	r1, r1
    525a:	91 1d       	adc	r25, r1
    525c:	b2 9f       	mul	r27, r18
    525e:	70 0d       	add	r23, r0
    5260:	81 1d       	adc	r24, r1
    5262:	11 24       	eor	r1, r1
    5264:	91 1d       	adc	r25, r1
    5266:	08 95       	ret

00005268 <_exit>:
    5268:	f8 94       	cli

0000526a <__stop_program>:
    526a:	ff cf       	rjmp	.-2      	; 0x526a <__stop_program>
